	.file	"gameEngine.cpp"
	.text
.Ltext0:
	.cfi_sections	.debug_frame
	.section	.text$_ZN7boxsizeC2EPS_,"x"
	.linkonce discard
	.align 2
	.globl	_ZN7boxsizeC2EPS_
	.def	_ZN7boxsizeC2EPS_;	.scl	2;	.type	32;	.endef
	.seh_proc	_ZN7boxsizeC2EPS_
_ZN7boxsizeC2EPS_:
.LFB235:
	.file 1 "boxsize.h"
	.loc 1 7 0
	.cfi_startproc
	pushq	%rbp
	.seh_pushreg	%rbp
	.cfi_def_cfa_offset 16
	.cfi_offset 6, -16
	movq	%rsp, %rbp
	.seh_setframe	%rbp, 0
	.cfi_def_cfa_register 6
	.seh_endprologue
	movq	%rcx, 16(%rbp)
	movq	%rdx, 24(%rbp)
.LBB2:
	.loc 1 8 0
	movq	24(%rbp), %rax
	movl	(%rax), %edx
	movq	16(%rbp), %rax
	movl	%edx, (%rax)
	.loc 1 9 0
	movq	24(%rbp), %rax
	movl	4(%rax), %edx
	movq	16(%rbp), %rax
	movl	%edx, 4(%rax)
	.loc 1 10 0
	movq	24(%rbp), %rax
	movl	8(%rax), %edx
	movq	16(%rbp), %rax
	movl	%edx, 8(%rax)
	.loc 1 11 0
	movq	24(%rbp), %rax
	movl	12(%rax), %edx
	movq	16(%rbp), %rax
	movl	%edx, 12(%rax)
.LBE2:
	.loc 1 12 0
	nop
	popq	%rbp
	.cfi_restore 6
	.cfi_def_cfa 7, 8
	ret
	.cfi_endproc
.LFE235:
	.seh_endproc
	.section	.text$_ZN7boxsize10charactersEv,"x"
	.linkonce discard
	.align 2
	.globl	_ZN7boxsize10charactersEv
	.def	_ZN7boxsize10charactersEv;	.scl	2;	.type	32;	.endef
	.seh_proc	_ZN7boxsize10charactersEv
_ZN7boxsize10charactersEv:
.LFB247:
	.loc 1 30 0
	.cfi_startproc
	pushq	%rbp
	.seh_pushreg	%rbp
	.cfi_def_cfa_offset 16
	.cfi_offset 6, -16
	movq	%rsp, %rbp
	.seh_setframe	%rbp, 0
	.cfi_def_cfa_register 6
	.seh_endprologue
	movq	%rcx, 16(%rbp)
	.loc 1 31 0
	movq	16(%rbp), %rax
	movl	8(%rax), %edx
	movq	16(%rbp), %rax
	movl	12(%rax), %eax
	imull	%edx, %eax
	.loc 1 32 0
	popq	%rbp
	.cfi_restore 6
	.cfi_def_cfa 7, 8
	ret
	.cfi_endproc
.LFE247:
	.seh_endproc
	.section	.text$_ZN7boxsize3getEii,"x"
	.linkonce discard
	.align 2
	.globl	_ZN7boxsize3getEii
	.def	_ZN7boxsize3getEii;	.scl	2;	.type	32;	.endef
	.seh_proc	_ZN7boxsize3getEii
_ZN7boxsize3getEii:
.LFB248:
	.loc 1 33 0
	.cfi_startproc
	pushq	%rbp
	.seh_pushreg	%rbp
	.cfi_def_cfa_offset 16
	.cfi_offset 6, -16
	movq	%rsp, %rbp
	.seh_setframe	%rbp, 0
	.cfi_def_cfa_register 6
	.seh_endprologue
	movq	%rcx, 16(%rbp)
	movl	%edx, 24(%rbp)
	movl	%r8d, 32(%rbp)
	.loc 1 34 0
	movq	16(%rbp), %rax
	movl	8(%rax), %eax
	imull	32(%rbp), %eax
	movl	%eax, %edx
	movl	24(%rbp), %eax
	addl	%edx, %eax
	.loc 1 35 0
	popq	%rbp
	.cfi_restore 6
	.cfi_def_cfa 7, 8
	ret
	.cfi_endproc
.LFE248:
	.seh_endproc
	.section .rdata,"dr"
_ZStL19piecewise_construct:
	.space 1
	.text
	.def	wprintf;	.scl	3;	.type	32;	.endef
	.seh_proc	wprintf
wprintf:
.LFB569:
	.file 2 "c:/users/ian/downloads/pocketcpp-0.7/pocketcpp/mingw/x86_64-w64-mingw32/include/wchar.h"
	.loc 2 555 0
	.cfi_startproc
	pushq	%rbp
	.seh_pushreg	%rbp
	.cfi_def_cfa_offset 16
	.cfi_offset 6, -16
	pushq	%rbx
	.seh_pushreg	%rbx
	.cfi_def_cfa_offset 24
	.cfi_offset 3, -24
	subq	$56, %rsp
	.seh_stackalloc	56
	.cfi_def_cfa_offset 80
	leaq	128(%rsp), %rbp
	.seh_setframe	%rbp, 128
	.cfi_def_cfa 6, -48
	.seh_endprologue
	movq	%rcx, -48(%rbp)
	movq	%rdx, -40(%rbp)
	movq	%r8, -32(%rbp)
	movq	%r9, -24(%rbp)
	.loc 2 557 0
	leaq	-40(%rbp), %rax
	movq	%rax, -88(%rbp)
	.loc 2 558 0
	movq	-88(%rbp), %rax
	movq	%rax, %rdx
	movq	-48(%rbp), %rcx
	call	__mingw_vwprintf
	movl	%eax, %ebx
	.loc 2 560 0
	movl	%ebx, %eax
	.loc 2 561 0
	addq	$56, %rsp
	popq	%rbx
	.cfi_restore 3
	popq	%rbp
	.cfi_restore 6
	.cfi_def_cfa 7, -40
	ret
	.cfi_endproc
.LFE569:
	.seh_endproc
	.section	.text$_ZN3boxC2EPS_,"x"
	.linkonce discard
	.align 2
	.globl	_ZN3boxC2EPS_
	.def	_ZN3boxC2EPS_;	.scl	2;	.type	32;	.endef
	.seh_proc	_ZN3boxC2EPS_
_ZN3boxC2EPS_:
.LFB1246:
	.file 3 "box.h"
	.loc 3 31 0
	.cfi_startproc
	pushq	%rbp
	.seh_pushreg	%rbp
	.cfi_def_cfa_offset 16
	.cfi_offset 6, -16
	movq	%rsp, %rbp
	.seh_setframe	%rbp, 0
	.cfi_def_cfa_register 6
	subq	$32, %rsp
	.seh_stackalloc	32
	.seh_endprologue
	movq	%rcx, 16(%rbp)
	movq	%rdx, 24(%rbp)
.LBB3:
	.loc 3 32 0
	movq	16(%rbp), %rax
	movq	24(%rbp), %rdx
	movq	%rax, %rcx
	call	_ZN7boxsizeC2EPS_
	.loc 3 34 0
	movq	24(%rbp), %rax
	movl	32(%rax), %edx
	movq	16(%rbp), %rax
	movl	%edx, 32(%rax)
	.loc 3 35 0
	movq	24(%rbp), %rax
	movq	40(%rax), %rdx
	movq	16(%rbp), %rax
	movq	%rdx, 40(%rax)
	.loc 3 37 0
	movq	24(%rbp), %rax
	movzbl	49(%rax), %eax
	movzbl	%al, %eax
	movl	%eax, %edx
	movq	16(%rbp), %rcx
	call	_ZN3box8setAlphaEb
	.loc 3 38 0
	movq	16(%rbp), %rax
	movb	$1, 17(%rax)
	.loc 3 39 0
	movq	16(%rbp), %rax
	movb	$0, 16(%rax)
	.loc 3 40 0
	movq	16(%rbp), %rax
	movb	$1, 18(%rax)
.LBE3:
	.loc 3 41 0
	nop
	addq	$32, %rsp
	popq	%rbp
	.cfi_restore 6
	.cfi_def_cfa 7, 8
	ret
	.cfi_endproc
.LFE1246:
	.seh_endproc
	.section	.text$_ZN3box8setAlphaEb,"x"
	.linkonce discard
	.align 2
	.globl	_ZN3box8setAlphaEb
	.def	_ZN3box8setAlphaEb;	.scl	2;	.type	32;	.endef
	.seh_proc	_ZN3box8setAlphaEb
_ZN3box8setAlphaEb:
.LFB1249:
	.loc 3 51 0
	.cfi_startproc
	pushq	%rbp
	.seh_pushreg	%rbp
	.cfi_def_cfa_offset 16
	.cfi_offset 6, -16
	movq	%rsp, %rbp
	.seh_setframe	%rbp, 0
	.cfi_def_cfa_register 6
	.seh_endprologue
	movq	%rcx, 16(%rbp)
	movl	%edx, %eax
	movb	%al, 24(%rbp)
.L11:
	.loc 3 52 0
	movq	16(%rbp), %rax
	movzbl	16(%rax), %eax
	testb	%al, %al
	je	.L10
	jmp	.L11
.L10:
	.loc 3 53 0
	movq	16(%rbp), %rax
	movb	$1, 16(%rax)
	.loc 3 54 0
	movq	16(%rbp), %rax
	movzbl	24(%rbp), %edx
	movb	%dl, 49(%rax)
	.loc 3 55 0
	cmpb	$0, 24(%rbp)
	je	.L12
	.loc 3 56 0
	movq	16(%rbp), %rax
	movb	$0, 48(%rax)
	jmp	.L13
.L12:
	.loc 3 60 0
	movq	16(%rbp), %rax
	movb	$32, 48(%rax)
.L13:
	.loc 3 62 0
	movq	16(%rbp), %rax
	movb	$0, 16(%rax)
	.loc 3 63 0
	nop
	popq	%rbp
	.cfi_restore 6
	.cfi_def_cfa 7, 8
	ret
	.cfi_endproc
.LFE1249:
	.seh_endproc
	.section	.text$_ZN3box5clearEv,"x"
	.linkonce discard
	.align 2
	.globl	_ZN3box5clearEv
	.def	_ZN3box5clearEv;	.scl	2;	.type	32;	.endef
	.seh_proc	_ZN3box5clearEv
_ZN3box5clearEv:
.LFB1250:
	.loc 3 65 0
	.cfi_startproc
	pushq	%rbp
	.seh_pushreg	%rbp
	.cfi_def_cfa_offset 16
	.cfi_offset 6, -16
	movq	%rsp, %rbp
	.seh_setframe	%rbp, 0
	.cfi_def_cfa_register 6
	subq	$48, %rsp
	.seh_stackalloc	48
	.seh_endprologue
	movq	%rcx, 16(%rbp)
.LBB4:
	.loc 3 66 0
	movq	16(%rbp), %rax
	movzbl	18(%rax), %eax
	testb	%al, %al
	je	.L20
.L17:
.LBB5:
	.loc 3 67 0
	movq	16(%rbp), %rax
	movzbl	16(%rax), %eax
	testb	%al, %al
	je	.L16
	jmp	.L17
.L16:
	.loc 3 68 0
	movq	16(%rbp), %rax
	movb	$1, 16(%rax)
	.loc 3 69 0
	movq	16(%rbp), %rax
	movq	%rax, %rcx
	call	_ZN7boxsize10charactersEv
	movl	%eax, -8(%rbp)
.LBB6:
	.loc 3 70 0
	movl	$0, -4(%rbp)
.L19:
	.loc 3 70 0 is_stmt 0 discriminator 3
	movl	-4(%rbp), %eax
	cmpl	-8(%rbp), %eax
	jge	.L18
	.loc 3 71 0 is_stmt 1 discriminator 2
	movq	16(%rbp), %rax
	movq	40(%rax), %rdx
	movl	-4(%rbp), %eax
	cltq
	addq	%rax, %rdx
	movq	16(%rbp), %rax
	movzbl	48(%rax), %eax
	movb	%al, (%rdx)
	.loc 3 70 0 discriminator 2
	addl	$1, -4(%rbp)
	jmp	.L19
.L18:
.LBE6:
	.loc 3 73 0
	movq	16(%rbp), %rax
	movb	$0, 16(%rax)
.L20:
.LBE5:
.LBE4:
	.loc 3 75 0
	nop
	addq	$48, %rsp
	popq	%rbp
	.cfi_restore 6
	.cfi_def_cfa 7, 8
	ret
	.cfi_endproc
.LFE1250:
	.seh_endproc
.lcomm _ZStL8__ioinit,1,1
	.section .rdata,"dr"
	.align 2
.LC0:
	.ascii "E\0R\0R\0O\0R\0:\0 \0%\0s\0\12\0\11\0%\0s\0\12\0\0\0"
	.section	.text$_ZN10gameEngine5ErrorEPKwi,"x"
	.linkonce discard
	.align 2
	.globl	_ZN10gameEngine5ErrorEPKwi
	.def	_ZN10gameEngine5ErrorEPKwi;	.scl	2;	.type	32;	.endef
	.seh_proc	_ZN10gameEngine5ErrorEPKwi
_ZN10gameEngine5ErrorEPKwi:
.LFB6179:
	.file 4 "gameEngine.h"
	.loc 4 98 0
	.cfi_startproc
	pushq	%rbp
	.seh_pushreg	%rbp
	.cfi_def_cfa_offset 16
	.cfi_offset 6, -16
	subq	$320, %rsp
	.seh_stackalloc	320
	.cfi_def_cfa_offset 336
	leaq	128(%rsp), %rbp
	.seh_setframe	%rbp, 128
	.cfi_def_cfa 6, 208
	.seh_endprologue
	movq	%rcx, 208(%rbp)
	movq	%rdx, 216(%rbp)
	movl	%r8d, 224(%rbp)
	.loc 4 106 0
	movq	__imp_GetLastError(%rip), %rax
	call	*%rax
.LVL0:
	movl	%eax, %edx
	movq	$0, 48(%rsp)
	movl	$256, 40(%rsp)
	leaq	-64(%rbp), %rax
	movq	%rax, 32(%rsp)
	movl	$1024, %r9d
	movl	%edx, %r8d
	movl	$0, %edx
	movl	$4096, %ecx
	movq	__imp_FormatMessageA(%rip), %rax
	call	*%rax
.LVL1:
	.loc 4 107 0
	movb	$0, 191(%rbp)
	.loc 4 108 0
	movq	208(%rbp), %rax
	movq	80(%rax), %rax
	movq	%rax, %rcx
	movq	__imp_SetConsoleActiveScreenBuffer(%rip), %rax
	call	*%rax
.LVL2:
	.loc 4 109 0
	leaq	-64(%rbp), %rdx
	movq	216(%rbp), %rax
	movq	%rdx, %r8
	movq	%rax, %rdx
	leaq	.LC0(%rip), %rcx
	call	wprintf
	.loc 4 114 0
	movl	224(%rbp), %eax
	movl	%eax, %ecx
	call	exit
	nop
	.cfi_endproc
.LFE6179:
	.seh_endproc
	.section	.text$_ZNKSt6chrono8durationIxSt5ratioILx1ELx1000000000EEE5countEv,"x"
	.linkonce discard
	.align 2
	.globl	_ZNKSt6chrono8durationIxSt5ratioILx1ELx1000000000EEE5countEv
	.def	_ZNKSt6chrono8durationIxSt5ratioILx1ELx1000000000EEE5countEv;	.scl	2;	.type	32;	.endef
	.seh_proc	_ZNKSt6chrono8durationIxSt5ratioILx1ELx1000000000EEE5countEv
_ZNKSt6chrono8durationIxSt5ratioILx1ELx1000000000EEE5countEv:
.LFB6432:
	.file 5 "c:/users/ian/downloads/pocketcpp-0.7/pocketcpp/mingw/include/c++/7.2.0/chrono"
	.loc 5 340 0
	.cfi_startproc
	pushq	%rbp
	.seh_pushreg	%rbp
	.cfi_def_cfa_offset 16
	.cfi_offset 6, -16
	movq	%rsp, %rbp
	.seh_setframe	%rbp, 0
	.cfi_def_cfa_register 6
	.seh_endprologue
	movq	%rcx, 16(%rbp)
	.loc 5 341 0
	movq	16(%rbp), %rax
	movq	(%rax), %rax
	popq	%rbp
	.cfi_restore 6
	.cfi_def_cfa 7, 8
	ret
	.cfi_endproc
.LFE6432:
	.seh_endproc
	.section	.text$_ZNSt6chrono8durationIxSt5ratioILx1ELx1000000000EEEC1IxvEERKT_,"x"
	.linkonce discard
	.align 2
	.globl	_ZNSt6chrono8durationIxSt5ratioILx1ELx1000000000EEEC1IxvEERKT_
	.def	_ZNSt6chrono8durationIxSt5ratioILx1ELx1000000000EEEC1IxvEERKT_;	.scl	2;	.type	32;	.endef
	.seh_proc	_ZNSt6chrono8durationIxSt5ratioILx1ELx1000000000EEEC1IxvEERKT_
_ZNSt6chrono8durationIxSt5ratioILx1ELx1000000000EEEC1IxvEERKT_:
.LFB6436:
	.loc 5 325 0
	.cfi_startproc
	pushq	%rbp
	.seh_pushreg	%rbp
	.cfi_def_cfa_offset 16
	.cfi_offset 6, -16
	movq	%rsp, %rbp
	.seh_setframe	%rbp, 0
	.cfi_def_cfa_register 6
	.seh_endprologue
	movq	%rcx, 16(%rbp)
	movq	%rdx, 24(%rbp)
.LBB7:
	.loc 5 326 0
	movq	24(%rbp), %rax
	movq	(%rax), %rdx
	movq	16(%rbp), %rax
	movq	%rdx, (%rax)
.LBE7:
	nop
	popq	%rbp
	.cfi_restore 6
	.cfi_def_cfa 7, 8
	ret
	.cfi_endproc
.LFE6436:
	.seh_endproc
	.globl	_ZN10gameEngine16_currentInstanceE
	.bss
	.align 8
_ZN10gameEngine16_currentInstanceE:
	.space 8
	.text
	.align 2
	.globl	_ZN10gameEngineC2EP3boxPvP10_CHAR_INFOb
	.def	_ZN10gameEngineC2EP3boxPvP10_CHAR_INFOb;	.scl	2;	.type	32;	.endef
	.seh_proc	_ZN10gameEngineC2EP3boxPvP10_CHAR_INFOb
_ZN10gameEngineC2EP3boxPvP10_CHAR_INFOb:
.LFB6456:
	.file 6 "gameEngine.cpp"
	.loc 6 12 0
	.cfi_startproc
	pushq	%rbp
	.seh_pushreg	%rbp
	.cfi_def_cfa_offset 16
	.cfi_offset 6, -16
	movq	%rsp, %rbp
	.seh_setframe	%rbp, 0
	.cfi_def_cfa_register 6
	subq	$64, %rsp
	.seh_stackalloc	64
	.seh_endprologue
	movq	%rcx, 16(%rbp)
	movq	%rdx, 24(%rbp)
	movq	%r8, 32(%rbp)
	movq	%r9, 40(%rbp)
	movl	48(%rbp), %eax
	movb	%al, -20(%rbp)
.LBB8:
	.loc 6 13 0
	movq	16(%rbp), %rax
	leaq	8(%rax), %rcx
	movq	24(%rbp), %rax
	movq	%rax, %rdx
	call	_ZN3boxC2EPS_
	leaq	16+_ZTV10gameEngine(%rip), %rdx
	movq	16(%rbp), %rax
	movq	%rdx, (%rax)
.LBB9:
	.loc 6 15 0
	movq	16(%rbp), %rax
	movq	%rax, _ZN10gameEngine16_currentInstanceE(%rip)
	.loc 6 16 0
	movq	16(%rbp), %rax
	movzbl	-20(%rbp), %edx
	movb	%dl, 122(%rax)
	.loc 6 17 0
	movq	16(%rbp), %rax
	movb	$0, 76(%rax)
	.loc 6 18 0
	movl	$20, %edx
	movq	16(%rbp), %rcx
	call	_ZN10gameEngine23SetTargetTicksPerSecondEi
	.loc 6 20 0
	movq	16(%rbp), %rax
	movq	40(%rbp), %rdx
	movq	%rdx, 64(%rax)
	.loc 6 21 0
	movq	16(%rbp), %rax
	movq	32(%rbp), %rdx
	movq	%rdx, 80(%rax)
	.loc 6 22 0
	movq	16(%rbp), %rax
	movl	16(%rax), %eax
	movl	%eax, %ecx
	movq	16(%rbp), %rax
	movl	20(%rax), %eax
	movl	%eax, %edx
	movq	16(%rbp), %rax
	movw	%cx, 72(%rax)
	movq	16(%rbp), %rax
	movw	%dx, 74(%rax)
.LBB10:
	.loc 6 24 0
	movl	$0, -4(%rbp)
.L27:
	.loc 6 24 0 is_stmt 0 discriminator 3
	movq	16(%rbp), %rax
	movl	40(%rax), %eax
	cmpl	%eax, -4(%rbp)
	jge	.L26
	.loc 6 26 0 is_stmt 1 discriminator 2
	movl	-4(%rbp), %eax
	cltq
	leaq	0(,%rax,4), %rdx
	movq	40(%rbp), %rax
	addq	%rdx, %rax
	movw	$15, 2(%rax)
	.loc 6 27 0 discriminator 2
	movl	-4(%rbp), %eax
	cltq
	leaq	0(,%rax,4), %rdx
	movq	40(%rbp), %rax
	addq	%rdx, %rax
	movw	$32, (%rax)
	.loc 6 28 0 discriminator 2
	movl	-4(%rbp), %eax
	cltq
	leaq	0(,%rax,4), %rdx
	movq	40(%rbp), %rax
	addq	%rdx, %rax
	movb	$0, (%rax)
	.loc 6 24 0 discriminator 2
	addl	$1, -4(%rbp)
	jmp	.L27
.L26:
.LBE10:
	.loc 6 31 0
	movq	16(%rbp), %rax
	addq	$646, %rax
	movl	$256, %r8d
	movl	$0, %edx
	movq	%rax, %rcx
	call	memset
	.loc 6 32 0
	movq	16(%rbp), %rax
	addq	$134, %rax
	movl	$256, %r8d
	movl	$0, %edx
	movq	%rax, %rcx
	call	memset
	.loc 6 34 0
	movq	16(%rbp), %rax
	addq	$1158, %rax
	movl	$5, %r8d
	movl	$0, %edx
	movq	%rax, %rcx
	call	memset
	.loc 6 35 0
	movq	16(%rbp), %rax
	addq	$1163, %rax
	movl	$5, %r8d
	movl	$0, %edx
	movq	%rax, %rcx
	call	memset
.LBE9:
.LBE8:
	.loc 6 36 0
	nop
	addq	$64, %rsp
	popq	%rbp
	.cfi_restore 6
	.cfi_def_cfa 7, 8
	ret
	.cfi_endproc
.LFE6456:
	.seh_endproc
	.globl	_ZN10gameEngineC1EP3boxPvP10_CHAR_INFOb
	.def	_ZN10gameEngineC1EP3boxPvP10_CHAR_INFOb;	.scl	2;	.type	32;	.endef
	.set	_ZN10gameEngineC1EP3boxPvP10_CHAR_INFOb,_ZN10gameEngineC2EP3boxPvP10_CHAR_INFOb
	.align 2
	.globl	_ZN10gameEngineD2Ev
	.def	_ZN10gameEngineD2Ev;	.scl	2;	.type	32;	.endef
	.seh_proc	_ZN10gameEngineD2Ev
_ZN10gameEngineD2Ev:
.LFB6459:
	.loc 6 39 0
	.cfi_startproc
	.cfi_personality 0x9b,.LDFCM0
	.cfi_lsda 0x1c,.LLSDA6459
	pushq	%rbp
	.seh_pushreg	%rbp
	.cfi_def_cfa_offset 16
	.cfi_offset 6, -16
	movq	%rsp, %rbp
	.seh_setframe	%rbp, 0
	.cfi_def_cfa_register 6
	subq	$32, %rsp
	.seh_stackalloc	32
	.seh_endprologue
	movq	%rcx, 16(%rbp)
.LBB11:
	.loc 6 39 0
	leaq	16+_ZTV10gameEngine(%rip), %rdx
	movq	16(%rbp), %rax
	movq	%rdx, (%rax)
	.loc 6 41 0
	movq	16(%rbp), %rax
	movq	80(%rax), %rax
	cmpq	$-1, %rax
	je	.L29
	.loc 6 42 0
	movq	16(%rbp), %rax
	movq	80(%rax), %rax
	movq	%rax, %rcx
	movq	__imp_SetConsoleActiveScreenBuffer(%rip), %rax
	call	*%rax
.LVL3:
.L29:
	.loc 6 43 0
	movq	$0, _ZN10gameEngine16_currentInstanceE(%rip)
.LBE11:
	.loc 6 44 0
	nop
	addq	$32, %rsp
	popq	%rbp
	.cfi_restore 6
	.cfi_def_cfa 7, 8
	ret
	.cfi_endproc
.LFE6459:
	.def	__gxx_personality_seh0;	.scl	2;	.type	32;	.endef
	.seh_handler	__gxx_personality_seh0, @unwind, @except
	.seh_handlerdata
.LLSDA6459:
	.byte	0xff
	.byte	0xff
	.byte	0x1
	.uleb128 .LLSDACSE6459-.LLSDACSB6459
.LLSDACSB6459:
.LLSDACSE6459:
	.text
	.seh_endproc
	.globl	_ZN10gameEngineD1Ev
	.def	_ZN10gameEngineD1Ev;	.scl	2;	.type	32;	.endef
	.set	_ZN10gameEngineD1Ev,_ZN10gameEngineD2Ev
	.align 2
	.globl	_ZN10gameEngine8OnUpdateEf
	.def	_ZN10gameEngine8OnUpdateEf;	.scl	2;	.type	32;	.endef
	.seh_proc	_ZN10gameEngine8OnUpdateEf
_ZN10gameEngine8OnUpdateEf:
.LFB6461:
	.loc 6 47 0
	.cfi_startproc
	pushq	%rbp
	.seh_pushreg	%rbp
	.cfi_def_cfa_offset 16
	.cfi_offset 6, -16
	movq	%rsp, %rbp
	.seh_setframe	%rbp, 0
	.cfi_def_cfa_register 6
	.seh_endprologue
	movq	%rcx, 16(%rbp)
	movss	%xmm1, 24(%rbp)
	.loc 6 48 0
	movl	$0, %eax
	.loc 6 49 0
	popq	%rbp
	.cfi_restore 6
	.cfi_def_cfa 7, 8
	ret
	.cfi_endproc
.LFE6461:
	.seh_endproc
	.align 2
	.globl	_ZN10gameEngine7OnFrameEv
	.def	_ZN10gameEngine7OnFrameEv;	.scl	2;	.type	32;	.endef
	.seh_proc	_ZN10gameEngine7OnFrameEv
_ZN10gameEngine7OnFrameEv:
.LFB6462:
	.loc 6 52 0
	.cfi_startproc
	pushq	%rbp
	.seh_pushreg	%rbp
	.cfi_def_cfa_offset 16
	.cfi_offset 6, -16
	movq	%rsp, %rbp
	.seh_setframe	%rbp, 0
	.cfi_def_cfa_register 6
	.seh_endprologue
	movq	%rcx, 16(%rbp)
	.loc 6 53 0
	movl	$0, %eax
	.loc 6 54 0
	popq	%rbp
	.cfi_restore 6
	.cfi_def_cfa 7, 8
	ret
	.cfi_endproc
.LFE6462:
	.seh_endproc
	.align 2
	.globl	_ZN10gameEngine7OnCloseEv
	.def	_ZN10gameEngine7OnCloseEv;	.scl	2;	.type	32;	.endef
	.seh_proc	_ZN10gameEngine7OnCloseEv
_ZN10gameEngine7OnCloseEv:
.LFB6463:
	.loc 6 57 0
	.cfi_startproc
	pushq	%rbp
	.seh_pushreg	%rbp
	.cfi_def_cfa_offset 16
	.cfi_offset 6, -16
	movq	%rsp, %rbp
	.seh_setframe	%rbp, 0
	.cfi_def_cfa_register 6
	.seh_endprologue
	movq	%rcx, 16(%rbp)
	.loc 6 59 0
	nop
	popq	%rbp
	.cfi_restore 6
	.cfi_def_cfa 7, 8
	ret
	.cfi_endproc
.LFE6463:
	.seh_endproc
	.align 2
	.globl	_ZN10gameEngine8OnCreateEv
	.def	_ZN10gameEngine8OnCreateEv;	.scl	2;	.type	32;	.endef
	.seh_proc	_ZN10gameEngine8OnCreateEv
_ZN10gameEngine8OnCreateEv:
.LFB6464:
	.loc 6 62 0
	.cfi_startproc
	pushq	%rbp
	.seh_pushreg	%rbp
	.cfi_def_cfa_offset 16
	.cfi_offset 6, -16
	movq	%rsp, %rbp
	.seh_setframe	%rbp, 0
	.cfi_def_cfa_register 6
	.seh_endprologue
	movq	%rcx, 16(%rbp)
	.loc 6 63 0
	movl	$0, %eax
	.loc 6 64 0
	popq	%rbp
	.cfi_restore 6
	.cfi_def_cfa 7, 8
	ret
	.cfi_endproc
.LFE6464:
	.seh_endproc
	.align 2
	.globl	_ZN10gameEngine12CreateBufferEv
	.def	_ZN10gameEngine12CreateBufferEv;	.scl	2;	.type	32;	.endef
	.seh_proc	_ZN10gameEngine12CreateBufferEv
_ZN10gameEngine12CreateBufferEv:
.LFB6465:
	.loc 6 67 0
	.cfi_startproc
	pushq	%rbp
	.seh_pushreg	%rbp
	.cfi_def_cfa_offset 16
	.cfi_offset 6, -16
	movq	%rsp, %rbp
	.seh_setframe	%rbp, 0
	.cfi_def_cfa_register 6
	subq	$48, %rsp
	.seh_stackalloc	48
	.seh_endprologue
	.loc 6 68 0
	movq	$0, 32(%rsp)
	movl	$1, %r9d
	movl	$0, %r8d
	movl	$0, %edx
	movl	$-1073741824, %ecx
	movq	__imp_CreateConsoleScreenBuffer(%rip), %rax
	call	*%rax
.LVL4:
	.loc 6 69 0
	addq	$48, %rsp
	popq	%rbp
	.cfi_restore 6
	.cfi_def_cfa 7, 8
	ret
	.cfi_endproc
.LFE6465:
	.seh_endproc
	.align 2
	.globl	_ZN10gameEngine5StartEv
	.def	_ZN10gameEngine5StartEv;	.scl	2;	.type	32;	.endef
	.seh_proc	_ZN10gameEngine5StartEv
_ZN10gameEngine5StartEv:
.LFB6466:
	.loc 6 72 0
	.cfi_startproc
	pushq	%rbp
	.seh_pushreg	%rbp
	.cfi_def_cfa_offset 16
	.cfi_offset 6, -16
	movq	%rsp, %rbp
	.seh_setframe	%rbp, 0
	.cfi_def_cfa_register 6
	subq	$32, %rsp
	.seh_stackalloc	32
	.seh_endprologue
	movq	%rcx, 16(%rbp)
	.loc 6 73 0
	movq	16(%rbp), %rcx
	call	_ZN10gameEngine10GameThreadEv
	.loc 6 74 0
	nop
	addq	$32, %rsp
	popq	%rbp
	.cfi_restore 6
	.cfi_def_cfa 7, 8
	ret
	.cfi_endproc
.LFE6466:
	.seh_endproc
	.section .rdata,"dr"
	.align 2
.LC1:
	.ascii "B\0a\0d\0 \0H\0a\0n\0d\0l\0e\0\0\0"
	.align 8
.LC2:
	.ascii "S\0e\0t\0C\0o\0n\0s\0o\0l\0e\0S\0c\0r\0e\0e\0n\0B\0u\0f\0f\0e\0r\0S\0i\0z\0e\0\0\0"
	.align 8
.LC3:
	.ascii "S\0e\0t\0C\0o\0n\0s\0o\0l\0e\0A\0c\0t\0i\0v\0e\0S\0c\0r\0e\0e\0n\0B\0u\0f\0f\0e\0r\0\0\0"
	.align 8
.LC4:
	.ascii "S\0e\0t\0C\0u\0r\0r\0e\0n\0t\0C\0o\0n\0s\0o\0l\0e\0F\0o\0n\0t\0E\0x\0\0\0"
	.align 8
.LC5:
	.ascii "G\0e\0t\0C\0o\0n\0s\0o\0l\0e\0S\0c\0r\0e\0e\0n\0B\0u\0f\0f\0e\0r\0I\0n\0f\0o\0\0\0"
	.align 8
.LC6:
	.ascii "S\0c\0r\0e\0e\0n\0 \0H\0e\0i\0g\0h\0t\0 \0/\0 \0F\0o\0n\0t\0 \0H\0e\0i\0g\0h\0t\0 \0T\0o\0o\0 \0B\0i\0g\0\0\0"
	.align 8
.LC7:
	.ascii "S\0c\0r\0e\0e\0n\0 \0W\0i\0d\0t\0h\0 \0/\0 \0F\0o\0n\0t\0 \0W\0i\0d\0t\0h\0 \0T\0o\0o\0 \0B\0i\0g\0\0\0"
	.align 8
.LC8:
	.ascii "S\0e\0t\0C\0o\0n\0s\0o\0l\0e\0W\0i\0n\0d\0o\0w\0I\0n\0f\0o\0\0\0"
	.align 2
.LC9:
	.ascii "S\0e\0t\0C\0o\0n\0s\0o\0l\0e\0M\0o\0d\0e\0\0\0"
	.text
	.align 2
	.globl	_ZN10gameEngine16ConstructConsoleEiiiiPw
	.def	_ZN10gameEngine16ConstructConsoleEiiiiPw;	.scl	2;	.type	32;	.endef
	.seh_proc	_ZN10gameEngine16ConstructConsoleEiiiiPw
_ZN10gameEngine16ConstructConsoleEiiiiPw:
.LFB6467:
	.loc 6 77 0
	.cfi_startproc
	pushq	%rbp
	.seh_pushreg	%rbp
	.cfi_def_cfa_offset 16
	.cfi_offset 6, -16
	movq	%rsp, %rbp
	.seh_setframe	%rbp, 0
	.cfi_def_cfa_register 6
	subq	$160, %rsp
	.seh_stackalloc	160
	.seh_endprologue
	movq	%rcx, 16(%rbp)
	movl	%edx, 24(%rbp)
	movl	%r8d, 32(%rbp)
	movl	%r9d, 40(%rbp)
	.loc 6 78 0
	movq	16(%rbp), %rax
	movq	88(%rax), %rax
	cmpq	$-1, %rax
	jne	.L41
	.loc 6 79 0
	movl	$2, %r8d
	leaq	.LC1(%rip), %rdx
	movq	16(%rbp), %rcx
	call	_ZN10gameEngine5ErrorEPKwi
	jmp	.L51
.L41:
	.loc 6 81 0
	movq	16(%rbp), %rax
	movl	24(%rbp), %edx
	movl	%edx, 16(%rax)
	.loc 6 82 0
	movq	16(%rbp), %rax
	movl	32(%rbp), %edx
	movl	%edx, 20(%rax)
	.loc 6 84 0
	movq	16(%rbp), %rax
	movw	$0, 114(%rax)
	movq	16(%rbp), %rax
	movw	$0, 116(%rax)
	movq	16(%rbp), %rax
	movw	$1, 118(%rax)
	movq	16(%rbp), %rax
	movw	$1, 120(%rax)
	.loc 6 85 0
	movq	16(%rbp), %rax
	leaq	114(%rax), %rdx
	movq	16(%rbp), %rax
	movq	88(%rax), %rax
	movq	%rdx, %r8
	movl	$1, %edx
	movq	%rax, %rcx
	movq	__imp_SetConsoleWindowInfo(%rip), %rax
	call	*%rax
.LVL5:
	.loc 6 87 0
	movq	16(%rbp), %rax
	movl	16(%rax), %eax
	movw	%ax, -4(%rbp)
	movq	16(%rbp), %rax
	movl	20(%rax), %eax
	movw	%ax, -2(%rbp)
	.loc 6 89 0
	movq	16(%rbp), %rax
	movq	88(%rax), %rax
	movl	-4(%rbp), %edx
	movq	%rax, %rcx
	movq	__imp_SetConsoleScreenBufferSize(%rip), %rax
	call	*%rax
.LVL6:
	testl	%eax, %eax
	sete	%al
	testb	%al, %al
	je	.L43
	.loc 6 90 0
	movl	$3, %r8d
	leaq	.LC2(%rip), %rdx
	movq	16(%rbp), %rcx
	call	_ZN10gameEngine5ErrorEPKwi
	jmp	.L51
.L43:
	.loc 6 91 0
	movq	16(%rbp), %rax
	movq	88(%rax), %rax
	movq	%rax, %rcx
	movq	__imp_SetConsoleActiveScreenBuffer(%rip), %rax
	call	*%rax
.LVL7:
	testl	%eax, %eax
	sete	%al
	testb	%al, %al
	je	.L44
	.loc 6 92 0
	movl	$4, %r8d
	leaq	.LC3(%rip), %rdx
	movq	16(%rbp), %rcx
	call	_ZN10gameEngine5ErrorEPKwi
	jmp	.L51
.L44:
	.loc 6 95 0
	movl	$84, -96(%rbp)
	.loc 6 96 0
	movl	$0, -92(%rbp)
	.loc 6 97 0
	movl	40(%rbp), %eax
	movw	%ax, -88(%rbp)
	.loc 6 98 0
	movl	48(%rbp), %eax
	movw	%ax, -86(%rbp)
	.loc 6 99 0
	movl	$0, -84(%rbp)
	.loc 6 100 0
	movl	$400, -80(%rbp)
	.loc 6 103 0
	movq	56(%rbp), %rax
	leaq	-96(%rbp), %rdx
	leaq	20(%rdx), %rcx
	movq	%rax, %rdx
	call	wcscpy
	.loc 6 108 0
	movq	16(%rbp), %rax
	movq	88(%rax), %rax
	leaq	-96(%rbp), %rdx
	movq	%rdx, %r8
	movl	$0, %edx
	movq	%rax, %rcx
	movq	__imp_SetCurrentConsoleFontEx(%rip), %rax
	call	*%rax
.LVL8:
	testl	%eax, %eax
	sete	%al
	testb	%al, %al
	je	.L45
	.loc 6 109 0
	movl	$5, %r8d
	leaq	.LC4(%rip), %rdx
	movq	16(%rbp), %rcx
	call	_ZN10gameEngine5ErrorEPKwi
	jmp	.L51
.L45:
	.loc 6 112 0
	movq	16(%rbp), %rax
	movq	88(%rax), %rax
	leaq	-128(%rbp), %rdx
	movq	%rax, %rcx
	movq	__imp_GetConsoleScreenBufferInfo(%rip), %rax
	call	*%rax
.LVL9:
	testl	%eax, %eax
	sete	%al
	testb	%al, %al
	je	.L46
	.loc 6 113 0
	movl	$6, %r8d
	leaq	.LC5(%rip), %rdx
	movq	16(%rbp), %rcx
	call	_ZN10gameEngine5ErrorEPKwi
	jmp	.L51
.L46:
	.loc 6 114 0
	movq	16(%rbp), %rax
	movl	20(%rax), %edx
	movzwl	-108(%rbp), %eax
	cwtl
	cmpl	%eax, %edx
	jle	.L47
	.loc 6 115 0
	movl	$7, %r8d
	leaq	.LC6(%rip), %rdx
	movq	16(%rbp), %rcx
	call	_ZN10gameEngine5ErrorEPKwi
	jmp	.L51
.L47:
	.loc 6 116 0
	movq	16(%rbp), %rax
	movl	16(%rax), %edx
	movzwl	-110(%rbp), %eax
	cwtl
	cmpl	%eax, %edx
	jle	.L48
	.loc 6 117 0
	movl	$8, %r8d
	leaq	.LC7(%rip), %rdx
	movq	16(%rbp), %rcx
	call	_ZN10gameEngine5ErrorEPKwi
	jmp	.L51
.L48:
	.loc 6 119 0
	movq	16(%rbp), %rax
	movl	16(%rax), %eax
	subl	$1, %eax
	movl	%eax, %ecx
	movq	16(%rbp), %rax
	movl	20(%rax), %eax
	subl	$1, %eax
	movl	%eax, %edx
	movq	16(%rbp), %rax
	movw	$0, 114(%rax)
	movq	16(%rbp), %rax
	movw	$0, 116(%rax)
	movq	16(%rbp), %rax
	movw	%cx, 118(%rax)
	movq	16(%rbp), %rax
	movw	%dx, 120(%rax)
	.loc 6 120 0
	movq	16(%rbp), %rax
	leaq	114(%rax), %rdx
	movq	16(%rbp), %rax
	movq	88(%rax), %rax
	movq	%rdx, %r8
	movl	$1, %edx
	movq	%rax, %rcx
	movq	__imp_SetConsoleWindowInfo(%rip), %rax
	call	*%rax
.LVL10:
	testl	%eax, %eax
	sete	%al
	testb	%al, %al
	je	.L49
	.loc 6 121 0
	movl	$9, %r8d
	leaq	.LC8(%rip), %rdx
	movq	16(%rbp), %rcx
	call	_ZN10gameEngine5ErrorEPKwi
	jmp	.L51
.L49:
	.loc 6 123 0
	movq	16(%rbp), %rax
	movq	96(%rax), %rax
	movl	$152, %edx
	movq	%rax, %rcx
	movq	__imp_SetConsoleMode(%rip), %rax
	call	*%rax
.LVL11:
	testl	%eax, %eax
	sete	%al
	testb	%al, %al
	je	.L50
	.loc 6 124 0
	movl	$10, %r8d
	leaq	.LC9(%rip), %rdx
	movq	16(%rbp), %rcx
	call	_ZN10gameEngine5ErrorEPKwi
	jmp	.L51
.L50:
	.loc 6 126 0
	movl	$1, %edx
	leaq	_ZN10gameEngine12CloseHandlerEm(%rip), %rcx
	movq	__imp_SetConsoleCtrlHandler(%rip), %rax
	call	*%rax
.LVL12:
	.loc 6 128 0
	movl	$0, %eax
.L51:
	.loc 6 130 0 discriminator 1
	addq	$160, %rsp
	popq	%rbp
	.cfi_restore 6
	.cfi_def_cfa 7, 8
	ret
	.cfi_endproc
.LFE6467:
	.seh_endproc
	.align 2
	.globl	_ZN10gameEngine5CloseEv
	.def	_ZN10gameEngine5CloseEv;	.scl	2;	.type	32;	.endef
	.seh_proc	_ZN10gameEngine5CloseEv
_ZN10gameEngine5CloseEv:
.LFB6468:
	.loc 6 133 0
	.cfi_startproc
	pushq	%rbp
	.seh_pushreg	%rbp
	.cfi_def_cfa_offset 16
	.cfi_offset 6, -16
	movq	%rsp, %rbp
	.seh_setframe	%rbp, 0
	.cfi_def_cfa_register 6
	subq	$32, %rsp
	.seh_stackalloc	32
	.seh_endprologue
	movq	%rcx, 16(%rbp)
	.loc 6 134 0
	movq	16(%rbp), %rax
	movb	$1, 76(%rax)
	.loc 6 135 0
	movq	16(%rbp), %rax
	movq	(%rax), %rax
	addq	$16, %rax
	movq	(%rax), %rax
	movq	16(%rbp), %rcx
	call	*%rax
.LVL13:
	.loc 6 136 0
	movq	16(%rbp), %rax
	movq	80(%rax), %rax
	movq	%rax, %rcx
	movq	__imp_SetConsoleActiveScreenBuffer(%rip), %rax
	call	*%rax
.LVL14:
	.loc 6 137 0
	nop
	addq	$32, %rsp
	popq	%rbp
	.cfi_restore 6
	.cfi_def_cfa 7, 8
	ret
	.cfi_endproc
.LFE6468:
	.seh_endproc
	.align 2
	.globl	_ZN10gameEngine23SetTargetTicksPerSecondEi
	.def	_ZN10gameEngine23SetTargetTicksPerSecondEi;	.scl	2;	.type	32;	.endef
	.seh_proc	_ZN10gameEngine23SetTargetTicksPerSecondEi
_ZN10gameEngine23SetTargetTicksPerSecondEi:
.LFB6469:
	.loc 6 140 0
	.cfi_startproc
	pushq	%rbp
	.seh_pushreg	%rbp
	.cfi_def_cfa_offset 16
	.cfi_offset 6, -16
	movq	%rsp, %rbp
	.seh_setframe	%rbp, 0
	.cfi_def_cfa_register 6
	.seh_endprologue
	movq	%rcx, 16(%rbp)
	movl	%edx, 24(%rbp)
	.loc 6 141 0
	cmpl	$0, 24(%rbp)
	jle	.L54
	.loc 6 141 0 is_stmt 0 discriminator 1
	cmpl	$999, 24(%rbp)
	jg	.L54
	.loc 6 141 0 discriminator 3
	movl	24(%rbp), %eax
	jmp	.L55
.L54:
	.loc 6 141 0 discriminator 4
	movl	$20, %eax
.L55:
	.loc 6 141 0 discriminator 6
	movq	16(%rbp), %rdx
	movl	%eax, 104(%rdx)
	.loc 6 142 0 is_stmt 1 discriminator 6
	movq	16(%rbp), %rax
	movl	104(%rax), %ecx
	movl	$1000, %eax
	cltd
	idivl	%ecx
	cvtsi2ss	%eax, %xmm0
	movq	16(%rbp), %rax
	movss	%xmm0, 108(%rax)
	.loc 6 143 0 discriminator 6
	nop
	popq	%rbp
	.cfi_restore 6
	.cfi_def_cfa 7, 8
	ret
	.cfi_endproc
.LFE6469:
	.seh_endproc
	.align 2
	.globl	_ZN10gameEngine23GetTargetTicksPerSecondEv
	.def	_ZN10gameEngine23GetTargetTicksPerSecondEv;	.scl	2;	.type	32;	.endef
	.seh_proc	_ZN10gameEngine23GetTargetTicksPerSecondEv
_ZN10gameEngine23GetTargetTicksPerSecondEv:
.LFB6470:
	.loc 6 146 0
	.cfi_startproc
	pushq	%rbp
	.seh_pushreg	%rbp
	.cfi_def_cfa_offset 16
	.cfi_offset 6, -16
	movq	%rsp, %rbp
	.seh_setframe	%rbp, 0
	.cfi_def_cfa_register 6
	.seh_endprologue
	movq	%rcx, 16(%rbp)
	.loc 6 147 0
	movq	16(%rbp), %rax
	movl	104(%rax), %eax
	.loc 6 148 0
	popq	%rbp
	.cfi_restore 6
	.cfi_def_cfa 7, 8
	ret
	.cfi_endproc
.LFE6470:
	.seh_endproc
	.align 2
	.globl	_ZN10gameEngine12CloseHandlerEm
	.def	_ZN10gameEngine12CloseHandlerEm;	.scl	2;	.type	32;	.endef
	.seh_proc	_ZN10gameEngine12CloseHandlerEm
_ZN10gameEngine12CloseHandlerEm:
.LFB6471:
	.loc 6 151 0
	.cfi_startproc
	pushq	%rbp
	.seh_pushreg	%rbp
	.cfi_def_cfa_offset 16
	.cfi_offset 6, -16
	movq	%rsp, %rbp
	.seh_setframe	%rbp, 0
	.cfi_def_cfa_register 6
	subq	$32, %rsp
	.seh_stackalloc	32
	.seh_endprologue
	movl	%ecx, 16(%rbp)
	.loc 6 152 0
	movq	_ZN10gameEngine16_currentInstanceE(%rip), %rax
	testq	%rax, %rax
	je	.L59
	.loc 6 153 0
	movq	_ZN10gameEngine16_currentInstanceE(%rip), %rax
	movq	%rax, %rcx
	call	_ZN10gameEngine5CloseEv
	.loc 6 154 0
	movq	$0, _ZN10gameEngine16_currentInstanceE(%rip)
.L59:
	.loc 6 156 0
	movl	$1, %eax
	.loc 6 157 0
	addq	$32, %rsp
	popq	%rbp
	.cfi_restore 6
	.cfi_def_cfa 7, 8
	ret
	.cfi_endproc
.LFE6471:
	.seh_endproc
	.align 2
	.globl	_ZN10gameEngine3setERNSt7__cxx1112basic_stringIwSt11char_traitsIwESaIwEEEiii
	.def	_ZN10gameEngine3setERNSt7__cxx1112basic_stringIwSt11char_traitsIwESaIwEEEiii;	.scl	2;	.type	32;	.endef
	.seh_proc	_ZN10gameEngine3setERNSt7__cxx1112basic_stringIwSt11char_traitsIwESaIwEEEiii
_ZN10gameEngine3setERNSt7__cxx1112basic_stringIwSt11char_traitsIwESaIwEEEiii:
.LFB6472:
	.loc 6 159 0
	.cfi_startproc
	pushq	%rbp
	.seh_pushreg	%rbp
	.cfi_def_cfa_offset 16
	.cfi_offset 6, -16
	movq	%rsp, %rbp
	.seh_setframe	%rbp, 0
	.cfi_def_cfa_register 6
	subq	$64, %rsp
	.seh_stackalloc	64
	.seh_endprologue
	movq	%rcx, 16(%rbp)
	movq	%rdx, 24(%rbp)
	movl	%r8d, 32(%rbp)
	movl	%r9d, 40(%rbp)
.L63:
	.loc 6 160 0
	movq	16(%rbp), %rax
	movzbl	24(%rax), %eax
	testb	%al, %al
	je	.L62
	jmp	.L63
.L62:
	.loc 6 161 0
	movq	16(%rbp), %rax
	movb	$1, 24(%rax)
	.loc 6 162 0
	movq	24(%rbp), %rax
	movq	%rax, %rcx
	call	_ZNKSt7__cxx1112basic_stringIwSt11char_traitsIwESaIwEE6lengthEv
	movl	%eax, -12(%rbp)
	.loc 6 163 0
	movq	16(%rbp), %rax
	leaq	8(%rax), %rcx
	movl	48(%rbp), %edx
	movl	40(%rbp), %eax
	movl	%edx, %r8d
	movl	%eax, %edx
	call	_ZN7boxsize3getEii
	movl	%eax, -16(%rbp)
	.loc 6 164 0
	movq	16(%rbp), %rax
	addq	$8, %rax
	movq	%rax, %rcx
	call	_ZN7boxsize10charactersEv
	movl	%eax, -20(%rbp)
.LBB12:
	.loc 6 165 0
	movl	-16(%rbp), %eax
	movl	%eax, -4(%rbp)
	movl	$0, -8(%rbp)
.L65:
	.loc 6 165 0 is_stmt 0 discriminator 7
	movl	-8(%rbp), %eax
	cmpl	-12(%rbp), %eax
	jge	.L64
	.loc 6 165 0 discriminator 2
	movl	-8(%rbp), %eax
	cmpl	32(%rbp), %eax
	jge	.L64
	.loc 6 165 0 discriminator 3
	movl	-16(%rbp), %edx
	movl	32(%rbp), %eax
	addl	%edx, %eax
	cmpl	%eax, -4(%rbp)
	jge	.L64
	.loc 6 165 0 discriminator 4
	movl	-16(%rbp), %edx
	movl	-12(%rbp), %eax
	addl	%edx, %eax
	cmpl	%eax, -4(%rbp)
	jge	.L64
	.loc 6 165 0 discriminator 5
	movl	-4(%rbp), %eax
	cmpl	-20(%rbp), %eax
	jge	.L64
	.loc 6 166 0 is_stmt 1 discriminator 6
	movl	-8(%rbp), %eax
	movslq	%eax, %rdx
	movq	24(%rbp), %rax
	movq	%rax, %rcx
	call	_ZNSt7__cxx1112basic_stringIwSt11char_traitsIwESaIwEEixEy
	movzwl	(%rax), %edx
	movq	16(%rbp), %rax
	movq	48(%rax), %rcx
	movl	-4(%rbp), %eax
	cltq
	addq	%rcx, %rax
	movb	%dl, (%rax)
	.loc 6 165 0 discriminator 6
	addl	$1, -4(%rbp)
	addl	$1, -8(%rbp)
	jmp	.L65
.L64:
.LBE12:
	.loc 6 168 0
	movq	16(%rbp), %rax
	movb	$0, 24(%rax)
	.loc 6 169 0
	nop
	addq	$64, %rsp
	popq	%rbp
	.cfi_restore 6
	.cfi_def_cfa 7, 8
	ret
	.cfi_endproc
.LFE6472:
	.seh_endproc
	.section	.text$_ZNSt6chrono8durationIfSt5ratioILx1ELx1EEEC1IxS1_ILx1ELx1000000000EEvEERKNS0_IT_T0_EE,"x"
	.linkonce discard
	.align 2
	.globl	_ZNSt6chrono8durationIfSt5ratioILx1ELx1EEEC1IxS1_ILx1ELx1000000000EEvEERKNS0_IT_T0_EE
	.def	_ZNSt6chrono8durationIfSt5ratioILx1ELx1EEEC1IxS1_ILx1ELx1000000000EEvEERKNS0_IT_T0_EE;	.scl	2;	.type	32;	.endef
	.seh_proc	_ZNSt6chrono8durationIfSt5ratioILx1ELx1EEEC1IxS1_ILx1ELx1000000000EEvEERKNS0_IT_T0_EE
_ZNSt6chrono8durationIfSt5ratioILx1ELx1EEEC1IxS1_ILx1ELx1000000000EEvEERKNS0_IT_T0_EE:
.LFB6476:
	.loc 5 332 0
	.cfi_startproc
	pushq	%rbp
	.seh_pushreg	%rbp
	.cfi_def_cfa_offset 16
	.cfi_offset 6, -16
	movq	%rsp, %rbp
	.seh_setframe	%rbp, 0
	.cfi_def_cfa_register 6
	subq	$48, %rsp
	.seh_stackalloc	48
	.seh_endprologue
	movq	%rcx, 16(%rbp)
	movq	%rdx, 24(%rbp)
.LBB13:
	.loc 5 333 0
	movq	24(%rbp), %rax
	movq	%rax, %rcx
	call	_ZNSt6chrono13duration_castINS_8durationIfSt5ratioILx1ELx1EEEExS2_ILx1ELx1000000000EEEENSt9enable_ifIXsrNS_13__is_durationIT_EE5valueES8_E4typeERKNS1_IT0_T1_EE
	movss	%xmm0, -4(%rbp)
	leaq	-4(%rbp), %rax
	movq	%rax, %rcx
	call	_ZNKSt6chrono8durationIfSt5ratioILx1ELx1EEE5countEv
	movd	%xmm0, %edx
	movq	16(%rbp), %rax
	movl	%edx, (%rax)
.LBE13:
	nop
	addq	$48, %rsp
	popq	%rbp
	.cfi_restore 6
	.cfi_def_cfa 7, 8
	ret
	.cfi_endproc
.LFE6476:
	.seh_endproc
	.section	.text$_ZNSt6chronomiINS_3_V212system_clockENS_8durationIxSt5ratioILx1ELx1000000000EEEES6_EENSt11common_typeIJT0_T1_EE4typeERKNS_10time_pointIT_S8_EERKNSC_ISD_S9_EE,"x"
	.linkonce discard
	.globl	_ZNSt6chronomiINS_3_V212system_clockENS_8durationIxSt5ratioILx1ELx1000000000EEEES6_EENSt11common_typeIJT0_T1_EE4typeERKNS_10time_pointIT_S8_EERKNSC_ISD_S9_EE
	.def	_ZNSt6chronomiINS_3_V212system_clockENS_8durationIxSt5ratioILx1ELx1000000000EEEES6_EENSt11common_typeIJT0_T1_EE4typeERKNS_10time_pointIT_S8_EERKNSC_ISD_S9_EE;	.scl	2;	.type	32;	.endef
	.seh_proc	_ZNSt6chronomiINS_3_V212system_clockENS_8durationIxSt5ratioILx1ELx1000000000EEEES6_EENSt11common_typeIJT0_T1_EE4typeERKNS_10time_pointIT_S8_EERKNSC_ISD_S9_EE
_ZNSt6chronomiINS_3_V212system_clockENS_8durationIxSt5ratioILx1ELx1000000000EEEES6_EENSt11common_typeIJT0_T1_EE4typeERKNS_10time_pointIT_S8_EERKNSC_ISD_S9_EE:
.LFB6477:
	.loc 5 745 0
	.cfi_startproc
	pushq	%rbp
	.seh_pushreg	%rbp
	.cfi_def_cfa_offset 16
	.cfi_offset 6, -16
	movq	%rsp, %rbp
	.seh_setframe	%rbp, 0
	.cfi_def_cfa_register 6
	subq	$48, %rsp
	.seh_stackalloc	48
	.seh_endprologue
	movq	%rcx, 16(%rbp)
	movq	%rdx, 24(%rbp)
	.loc 5 747 0
	movq	24(%rbp), %rax
	movq	%rax, %rcx
	call	_ZNKSt6chrono10time_pointINS_3_V212system_clockENS_8durationIxSt5ratioILx1ELx1000000000EEEEE16time_since_epochEv
	movq	%rax, -16(%rbp)
	movq	16(%rbp), %rcx
	call	_ZNKSt6chrono10time_pointINS_3_V212system_clockENS_8durationIxSt5ratioILx1ELx1000000000EEEEE16time_since_epochEv
	movq	%rax, -8(%rbp)
	leaq	-16(%rbp), %rdx
	leaq	-8(%rbp), %rax
	movq	%rax, %rcx
	call	_ZNSt6chronomiIxSt5ratioILx1ELx1000000000EExS2_EENSt11common_typeIJNS_8durationIT_T0_EENS4_IT1_T2_EEEE4typeERKS7_RKSA_
	addq	$48, %rsp
	popq	%rbp
	.cfi_restore 6
	.cfi_def_cfa 7, 8
	ret
	.cfi_endproc
.LFE6477:
	.seh_endproc
	.section	.text$_ZNSt6chronomiIxSt5ratioILx1ELx1000000000EExS2_EENSt11common_typeIJNS_8durationIT_T0_EENS4_IT1_T2_EEEE4typeERKS7_RKSA_,"x"
	.linkonce discard
	.globl	_ZNSt6chronomiIxSt5ratioILx1ELx1000000000EExS2_EENSt11common_typeIJNS_8durationIT_T0_EENS4_IT1_T2_EEEE4typeERKS7_RKSA_
	.def	_ZNSt6chronomiIxSt5ratioILx1ELx1000000000EExS2_EENSt11common_typeIJNS_8durationIT_T0_EENS4_IT1_T2_EEEE4typeERKS7_RKSA_;	.scl	2;	.type	32;	.endef
	.seh_proc	_ZNSt6chronomiIxSt5ratioILx1ELx1000000000EExS2_EENSt11common_typeIJNS_8durationIT_T0_EENS4_IT1_T2_EEEE4typeERKS7_RKSA_
_ZNSt6chronomiIxSt5ratioILx1ELx1000000000EExS2_EENSt11common_typeIJNS_8durationIT_T0_EENS4_IT1_T2_EEEE4typeERKS7_RKSA_:
.LFB6478:
	.loc 5 457 0
	.cfi_startproc
	pushq	%rbp
	.seh_pushreg	%rbp
	.cfi_def_cfa_offset 16
	.cfi_offset 6, -16
	pushq	%rbx
	.seh_pushreg	%rbx
	.cfi_def_cfa_offset 24
	.cfi_offset 3, -24
	subq	$72, %rsp
	.seh_stackalloc	72
	.cfi_def_cfa_offset 96
	leaq	128(%rsp), %rbp
	.seh_setframe	%rbp, 128
	.cfi_def_cfa 6, -32
	.seh_endprologue
	movq	%rcx, -32(%rbp)
	movq	%rdx, -24(%rbp)
	.loc 5 463 0
	movq	-32(%rbp), %rax
	movq	(%rax), %rax
	movq	%rax, -80(%rbp)
	leaq	-80(%rbp), %rax
	movq	%rax, %rcx
	call	_ZNKSt6chrono8durationIxSt5ratioILx1ELx1000000000EEE5countEv
	movq	%rax, %rbx
	movq	-24(%rbp), %rax
	movq	(%rax), %rax
	movq	%rax, -72(%rbp)
	leaq	-72(%rbp), %rax
	movq	%rax, %rcx
	call	_ZNKSt6chrono8durationIxSt5ratioILx1ELx1000000000EEE5countEv
	subq	%rax, %rbx
	movq	%rbx, %rax
	movq	%rax, -88(%rbp)
	leaq	-88(%rbp), %rdx
	leaq	-96(%rbp), %rax
	movq	%rax, %rcx
	call	_ZNSt6chrono8durationIxSt5ratioILx1ELx1000000000EEEC1IxvEERKT_
	movq	-96(%rbp), %rax
	.loc 5 464 0
	addq	$72, %rsp
	popq	%rbx
	.cfi_restore 3
	popq	%rbp
	.cfi_restore 6
	.cfi_def_cfa 7, -56
	ret
	.cfi_endproc
.LFE6478:
	.seh_endproc
	.section	.text$_ZNKSt6chrono10time_pointINS_3_V212system_clockENS_8durationIxSt5ratioILx1ELx1000000000EEEEE16time_since_epochEv,"x"
	.linkonce discard
	.align 2
	.globl	_ZNKSt6chrono10time_pointINS_3_V212system_clockENS_8durationIxSt5ratioILx1ELx1000000000EEEEE16time_since_epochEv
	.def	_ZNKSt6chrono10time_pointINS_3_V212system_clockENS_8durationIxSt5ratioILx1ELx1000000000EEEEE16time_since_epochEv;	.scl	2;	.type	32;	.endef
	.seh_proc	_ZNKSt6chrono10time_pointINS_3_V212system_clockENS_8durationIxSt5ratioILx1ELx1000000000EEEEE16time_since_epochEv
_ZNKSt6chrono10time_pointINS_3_V212system_clockENS_8durationIxSt5ratioILx1ELx1000000000EEEEE16time_since_epochEv:
.LFB6479:
	.loc 5 632 0
	.cfi_startproc
	pushq	%rbp
	.seh_pushreg	%rbp
	.cfi_def_cfa_offset 16
	.cfi_offset 6, -16
	movq	%rsp, %rbp
	.seh_setframe	%rbp, 0
	.cfi_def_cfa_register 6
	.seh_endprologue
	movq	%rcx, 16(%rbp)
	.loc 5 633 0
	movq	16(%rbp), %rax
	movq	(%rax), %rax
	popq	%rbp
	.cfi_restore 6
	.cfi_def_cfa 7, 8
	ret
	.cfi_endproc
.LFE6479:
	.seh_endproc
	.text
	.align 2
	.globl	_ZN10gameEngine10GameThreadEv
	.def	_ZN10gameEngine10GameThreadEv;	.scl	2;	.type	32;	.endef
	.seh_proc	_ZN10gameEngine10GameThreadEv
_ZN10gameEngine10GameThreadEv:
.LFB6473:
	.loc 6 173 0
	.cfi_startproc
	pushq	%rbp
	.seh_pushreg	%rbp
	.cfi_def_cfa_offset 16
	.cfi_offset 6, -16
	movq	%rsp, %rbp
	.seh_setframe	%rbp, 0
	.cfi_def_cfa_register 6
	subq	$80, %rsp
	.seh_stackalloc	80
	.seh_endprologue
	movq	%rcx, 16(%rbp)
	.loc 6 174 0
	call	_ZNSt6chrono3_V212system_clock3nowEv
	movq	%rax, -24(%rbp)
	.loc 6 175 0
	call	_ZNSt6chrono3_V212system_clock3nowEv
	movq	%rax, -32(%rbp)
	.loc 6 177 0
	movss	.LC10(%rip), %xmm0
	movss	%xmm0, -4(%rbp)
	.loc 6 179 0
	movq	16(%rbp), %rax
	movq	(%rax), %rax
	addq	$24, %rax
	movq	(%rax), %rax
	movq	16(%rbp), %rcx
	call	*%rax
.LVL15:
.L76:
	.loc 6 181 0
	movq	16(%rbp), %rax
	movzbl	76(%rax), %eax
	testb	%al, %al
	jne	.L74
.LBB14:
	.loc 6 182 0
	movq	16(%rbp), %rax
	movss	108(%rax), %xmm0
	cvttss2siq	%xmm0, %rax
	movl	%eax, %ecx
	movq	__imp_Sleep(%rip), %rax
	call	*%rax
.LVL16:
	.loc 6 184 0
	call	_ZNSt6chrono3_V212system_clock3nowEv
	movq	%rax, -32(%rbp)
	.loc 6 185 0
	leaq	-24(%rbp), %rdx
	leaq	-32(%rbp), %rax
	movq	%rax, %rcx
	call	_ZNSt6chronomiINS_3_V212system_clockENS_8durationIxSt5ratioILx1ELx1000000000EEEES6_EENSt11common_typeIJT0_T1_EE4typeERKNS_10time_pointIT_S8_EERKNSC_ISD_S9_EE
	movq	%rax, -16(%rbp)
	leaq	-16(%rbp), %rdx
	leaq	-36(%rbp), %rax
	movq	%rax, %rcx
	call	_ZNSt6chrono8durationIfSt5ratioILx1ELx1EEEC1IxS1_ILx1ELx1000000000EEvEERKNS0_IT_T0_EE
	.loc 6 186 0
	movq	-32(%rbp), %rax
	movq	%rax, -24(%rbp)
	.loc 6 187 0
	leaq	-36(%rbp), %rax
	movq	%rax, %rcx
	call	_ZNKSt6chrono8durationIfSt5ratioILx1ELx1EEE5countEv
	movd	%xmm0, %eax
	movl	%eax, -4(%rbp)
	.loc 6 189 0
	movq	16(%rbp), %rcx
	call	_ZN10gameEngine12_HandleInputEv
	.loc 6 191 0
	movq	16(%rbp), %rax
	movq	(%rax), %rax
	movq	(%rax), %rax
	movss	-4(%rbp), %xmm0
	movaps	%xmm0, %xmm1
	movq	16(%rbp), %rcx
	call	*%rax
.LVL17:
	.loc 6 193 0
	movq	16(%rbp), %rax
	movzbl	122(%rax), %eax
	xorl	$1, %eax
	testb	%al, %al
	je	.L76
	.loc 6 194 0
	movq	16(%rbp), %rcx
	call	_ZN10gameEngine11BeginRasterEv
.LBE14:
	.loc 6 181 0
	jmp	.L76
.L74:
	.loc 6 198 0
	movq	16(%rbp), %rcx
	call	_ZN10gameEngine5CloseEv
	.loc 6 199 0
	nop
	addq	$80, %rsp
	popq	%rbp
	.cfi_restore 6
	.cfi_def_cfa 7, 8
	ret
	.cfi_endproc
.LFE6473:
	.seh_endproc
	.align 2
	.globl	_ZN10gameEngine11BeginRasterEv
	.def	_ZN10gameEngine11BeginRasterEv;	.scl	2;	.type	32;	.endef
	.seh_proc	_ZN10gameEngine11BeginRasterEv
_ZN10gameEngine11BeginRasterEv:
.LFB6480:
	.loc 6 202 0
	.cfi_startproc
	pushq	%rbp
	.seh_pushreg	%rbp
	.cfi_def_cfa_offset 16
	.cfi_offset 6, -16
	movq	%rsp, %rbp
	.seh_setframe	%rbp, 0
	.cfi_def_cfa_register 6
	subq	$32, %rsp
	.seh_stackalloc	32
	.seh_endprologue
	movq	%rcx, 16(%rbp)
	.loc 6 203 0
	movq	16(%rbp), %rax
	movzbl	76(%rax), %eax
	xorl	$1, %eax
	testb	%al, %al
	je	.L78
	.loc 6 203 0 is_stmt 0 discriminator 1
	movq	16(%rbp), %rax
	movq	(%rax), %rax
	addq	$8, %rax
	movq	(%rax), %rax
	movq	16(%rbp), %rcx
	call	*%rax
.LVL18:
	testb	%al, %al
	je	.L78
	.loc 6 203 0 discriminator 3
	movl	$1, %eax
	jmp	.L79
.L78:
	.loc 6 203 0 discriminator 4
	movl	$0, %eax
.L79:
	.loc 6 203 0 discriminator 6
	testb	%al, %al
	je	.L81
	.loc 6 204 0 is_stmt 1
	movq	16(%rbp), %rcx
	call	_ZN10gameEngine10_TranslateEv
	.loc 6 205 0
	movq	16(%rbp), %rcx
	call	_ZN10gameEngine11_WriteFrameEv
	.loc 6 206 0
	movq	16(%rbp), %rax
	addq	$8, %rax
	movq	%rax, %rcx
	call	_ZN3box5clearEv
.L81:
	.loc 6 208 0
	nop
	addq	$32, %rsp
	popq	%rbp
	.cfi_restore 6
	.cfi_def_cfa 7, 8
	ret
	.cfi_endproc
.LFE6480:
	.seh_endproc
	.align 2
	.globl	_ZN10gameEngine11_WriteFrameEv
	.def	_ZN10gameEngine11_WriteFrameEv;	.scl	2;	.type	32;	.endef
	.seh_proc	_ZN10gameEngine11_WriteFrameEv
_ZN10gameEngine11_WriteFrameEv:
.LFB6481:
	.loc 6 212 0
	.cfi_startproc
	pushq	%rbp
	.seh_pushreg	%rbp
	.cfi_def_cfa_offset 16
	.cfi_offset 6, -16
	movq	%rsp, %rbp
	.seh_setframe	%rbp, 0
	.cfi_def_cfa_register 6
	subq	$48, %rsp
	.seh_stackalloc	48
	.seh_endprologue
	movq	%rcx, 16(%rbp)
	.loc 6 213 0
	movq	16(%rbp), %rdx
	leaq	114(%rdx), %r9
	movw	$0, %ax
	movzwl	%ax, %eax
	movq	16(%rbp), %rdx
	movq	64(%rdx), %rdx
	movq	16(%rbp), %rcx
	movq	88(%rcx), %rcx
	movq	16(%rbp), %r8
	movl	72(%r8), %r8d
	movq	%r9, 32(%rsp)
	movl	%eax, %r9d
	movq	__imp_WriteConsoleOutputA(%rip), %rax
	call	*%rax
.LVL19:
	.loc 6 214 0
	nop
	addq	$48, %rsp
	popq	%rbp
	.cfi_restore 6
	.cfi_def_cfa 7, 8
	ret
	.cfi_endproc
.LFE6481:
	.seh_endproc
	.align 2
	.globl	_ZN10gameEngine10_TranslateEv
	.def	_ZN10gameEngine10_TranslateEv;	.scl	2;	.type	32;	.endef
	.seh_proc	_ZN10gameEngine10_TranslateEv
_ZN10gameEngine10_TranslateEv:
.LFB6482:
	.loc 6 217 0
	.cfi_startproc
	pushq	%rbp
	.seh_pushreg	%rbp
	.cfi_def_cfa_offset 16
	.cfi_offset 6, -16
	movq	%rsp, %rbp
	.seh_setframe	%rbp, 0
	.cfi_def_cfa_register 6
	subq	$32, %rsp
	.seh_stackalloc	32
	.seh_endprologue
	movq	%rcx, 16(%rbp)
.LBB15:
	.loc 6 219 0
	movl	$0, -4(%rbp)
.L87:
	.loc 6 219 0 is_stmt 0 discriminator 1
	movq	16(%rbp), %rax
	movl	40(%rax), %eax
	cmpl	%eax, -4(%rbp)
	jge	.L88
.LBB16:
	.loc 6 220 0 is_stmt 1
	movq	16(%rbp), %rax
	movq	48(%rax), %rdx
	movl	-4(%rbp), %eax
	cltq
	addq	%rdx, %rax
	movzbl	(%rax), %eax
	cbtw
	movw	%ax, -18(%rbp)
	.loc 6 221 0
	leaq	-18(%rbp), %rax
	movq	%rax, -16(%rbp)
	.loc 6 222 0
	movq	-16(%rbp), %rax
	addq	$1, %rax
	movb	$0, (%rax)
	.loc 6 223 0
	movzwl	-18(%rbp), %eax
	testw	%ax, %ax
	je	.L85
	.loc 6 224 0
	movq	16(%rbp), %rax
	movq	64(%rax), %rax
	movl	-4(%rbp), %edx
	movslq	%edx, %rdx
	salq	$2, %rdx
	addq	%rax, %rdx
	movzwl	-18(%rbp), %eax
	movw	%ax, (%rdx)
	jmp	.L86
.L85:
	.loc 6 226 0
	movq	16(%rbp), %rax
	movq	64(%rax), %rax
	movl	-4(%rbp), %edx
	movslq	%edx, %rdx
	salq	$2, %rdx
	addq	%rdx, %rax
	movw	$32, (%rax)
.L86:
.LBE16:
	.loc 6 219 0 discriminator 2
	addl	$1, -4(%rbp)
	jmp	.L87
.L88:
.LBE15:
	.loc 6 232 0
	nop
	addq	$32, %rsp
	popq	%rbp
	.cfi_restore 6
	.cfi_def_cfa 7, 8
	ret
	.cfi_endproc
.LFE6482:
	.seh_endproc
	.align 2
	.globl	_ZN10gameEngine6getKeyEi
	.def	_ZN10gameEngine6getKeyEi;	.scl	2;	.type	32;	.endef
	.seh_proc	_ZN10gameEngine6getKeyEi
_ZN10gameEngine6getKeyEi:
.LFB6483:
	.loc 6 234 0
	.cfi_startproc
	pushq	%rbp
	.seh_pushreg	%rbp
	.cfi_def_cfa_offset 16
	.cfi_offset 6, -16
	movq	%rsp, %rbp
	.seh_setframe	%rbp, 0
	.cfi_def_cfa_register 6
	.seh_endprologue
	movq	%rcx, 16(%rbp)
	movl	%edx, 24(%rbp)
	.loc 6 235 0
	movl	24(%rbp), %eax
	movslq	%eax, %rdx
	movq	%rdx, %rax
	addq	%rax, %rax
	addq	%rdx, %rax
	leaq	1168(%rax), %rdx
	movq	16(%rbp), %rax
	addq	%rdx, %rax
	.loc 6 236 0
	popq	%rbp
	.cfi_restore 6
	.cfi_def_cfa 7, 8
	ret
	.cfi_endproc
.LFE6483:
	.seh_endproc
	.align 2
	.globl	_ZN10gameEngine6getKeyEiR8keyState
	.def	_ZN10gameEngine6getKeyEiR8keyState;	.scl	2;	.type	32;	.endef
	.seh_proc	_ZN10gameEngine6getKeyEiR8keyState
_ZN10gameEngine6getKeyEiR8keyState:
.LFB6484:
	.loc 6 239 0
	.cfi_startproc
	pushq	%rbp
	.seh_pushreg	%rbp
	.cfi_def_cfa_offset 16
	.cfi_offset 6, -16
	movq	%rsp, %rbp
	.seh_setframe	%rbp, 0
	.cfi_def_cfa_register 6
	.seh_endprologue
	movq	%rcx, 16(%rbp)
	movl	%edx, 24(%rbp)
	movq	%r8, 32(%rbp)
	.loc 6 240 0
	movq	32(%rbp), %rdx
	movq	16(%rbp), %r8
	movl	24(%rbp), %eax
	movslq	%eax, %rcx
	movq	%rcx, %rax
	addq	%rax, %rax
	addq	%rcx, %rax
	addq	%r8, %rax
	addq	$1168, %rax
	movzwl	(%rax), %ecx
	movw	%cx, (%rdx)
	movzbl	2(%rax), %eax
	movb	%al, 2(%rdx)
	.loc 6 241 0
	nop
	popq	%rbp
	.cfi_restore 6
	.cfi_def_cfa 7, 8
	ret
	.cfi_endproc
.LFE6484:
	.seh_endproc
	.align 2
	.globl	_ZN10gameEngine12_HandleInputEv
	.def	_ZN10gameEngine12_HandleInputEv;	.scl	2;	.type	32;	.endef
	.seh_proc	_ZN10gameEngine12_HandleInputEv
_ZN10gameEngine12_HandleInputEv:
.LFB6485:
	.loc 6 244 0
	.cfi_startproc
	pushq	%rbp
	.seh_pushreg	%rbp
	.cfi_def_cfa_offset 16
	.cfi_offset 6, -16
	subq	$704, %rsp
	.seh_stackalloc	704
	.cfi_def_cfa_offset 720
	leaq	128(%rsp), %rbp
	.seh_setframe	%rbp, 128
	.cfi_def_cfa 6, 592
	.seh_endprologue
	movq	%rcx, 592(%rbp)
.LBB17:
	.loc 6 246 0
	movl	$0, 572(%rbp)
.L97:
	.loc 6 246 0 is_stmt 0 discriminator 1
	cmpl	$255, 572(%rbp)
	jg	.L93
	.loc 6 248 0 is_stmt 1
	movl	572(%rbp), %eax
	movl	%eax, %ecx
	movq	__imp_GetAsyncKeyState(%rip), %rax
	call	*%rax
.LVL20:
	movl	%eax, %ecx
	movq	592(%rbp), %rax
	movl	572(%rbp), %edx
	movslq	%edx, %rdx
	addq	$320, %rdx
	movw	%cx, 6(%rax,%rdx,2)
	.loc 6 250 0
	movq	592(%rbp), %rcx
	movl	572(%rbp), %eax
	movslq	%eax, %rdx
	movq	%rdx, %rax
	addq	%rax, %rax
	addq	%rdx, %rax
	addq	%rcx, %rax
	addq	$1168, %rax
	movb	$0, (%rax)
	.loc 6 251 0
	movq	592(%rbp), %rcx
	movl	572(%rbp), %eax
	movslq	%eax, %rdx
	movq	%rdx, %rax
	addq	%rax, %rax
	addq	%rdx, %rax
	addq	%rcx, %rax
	addq	$1169, %rax
	movb	$0, (%rax)
	.loc 6 253 0
	movq	592(%rbp), %rax
	movl	572(%rbp), %edx
	movslq	%edx, %rdx
	addq	$320, %rdx
	movzwl	6(%rax,%rdx,2), %edx
	movq	592(%rbp), %rax
	movl	572(%rbp), %ecx
	movslq	%ecx, %rcx
	addq	$64, %rcx
	movzwl	6(%rax,%rcx,2), %eax
	cmpw	%ax, %dx
	je	.L94
	.loc 6 255 0
	movq	592(%rbp), %rax
	movl	572(%rbp), %edx
	movslq	%edx, %rdx
	addq	$320, %rdx
	movzwl	6(%rax,%rdx,2), %eax
	testw	%ax, %ax
	jns	.L95
	.loc 6 257 0
	movq	592(%rbp), %rcx
	movl	572(%rbp), %eax
	movslq	%eax, %rdx
	movq	%rdx, %rax
	addq	%rax, %rax
	addq	%rdx, %rax
	addq	%rcx, %rax
	addq	$1170, %rax
	movzbl	(%rax), %eax
	xorl	$1, %eax
	movl	%eax, %r8d
	movq	592(%rbp), %rcx
	movl	572(%rbp), %eax
	movslq	%eax, %rdx
	movq	%rdx, %rax
	addq	%rax, %rax
	addq	%rdx, %rax
	addq	%rcx, %rax
	addq	$1168, %rax
	movb	%r8b, (%rax)
	.loc 6 258 0
	movq	592(%rbp), %rcx
	movl	572(%rbp), %eax
	movslq	%eax, %rdx
	movq	%rdx, %rax
	addq	%rax, %rax
	addq	%rdx, %rax
	addq	%rcx, %rax
	addq	$1170, %rax
	movb	$1, (%rax)
	jmp	.L94
.L95:
	.loc 6 262 0
	movq	592(%rbp), %rcx
	movl	572(%rbp), %eax
	movslq	%eax, %rdx
	movq	%rdx, %rax
	addq	%rax, %rax
	addq	%rdx, %rax
	addq	%rcx, %rax
	addq	$1169, %rax
	movb	$1, (%rax)
	.loc 6 263 0
	movq	592(%rbp), %rcx
	movl	572(%rbp), %eax
	movslq	%eax, %rdx
	movq	%rdx, %rax
	addq	%rax, %rax
	addq	%rdx, %rax
	addq	%rcx, %rax
	addq	$1170, %rax
	movb	$0, (%rax)
.L94:
	.loc 6 267 0 discriminator 2
	movq	592(%rbp), %rax
	movl	572(%rbp), %edx
	movslq	%edx, %rdx
	addq	$320, %rdx
	movzwl	6(%rax,%rdx,2), %edx
	movq	592(%rbp), %rax
	movl	572(%rbp), %ecx
	movslq	%ecx, %rcx
	addq	$64, %rcx
	movw	%dx, 6(%rax,%rcx,2)
	.loc 6 246 0 discriminator 2
	addl	$1, 572(%rbp)
	jmp	.L97
.L93:
.LBE17:
	.loc 6 272 0
	movl	$0, -84(%rbp)
	.loc 6 273 0
	movq	592(%rbp), %rax
	movq	96(%rax), %rax
	leaq	-84(%rbp), %rdx
	movq	%rax, %rcx
	movq	__imp_GetNumberOfConsoleInputEvents(%rip), %rax
	call	*%rax
.LVL21:
	.loc 6 274 0
	movl	-84(%rbp), %eax
	testl	%eax, %eax
	je	.L98
	.loc 6 275 0
	movl	-84(%rbp), %ecx
	movq	592(%rbp), %rax
	movq	96(%rax), %rax
	leaq	-84(%rbp), %r8
	leaq	-80(%rbp), %rdx
	movq	%r8, %r9
	movl	%ecx, %r8d
	movq	%rax, %rcx
	movq	__imp_ReadConsoleInputA(%rip), %rax
	call	*%rax
.LVL22:
.L98:
.LBB18:
	.loc 6 279 0
	movl	$0, 568(%rbp)
.L110:
	.loc 6 279 0 is_stmt 0 discriminator 1
	movl	-84(%rbp), %eax
	cmpl	%eax, 568(%rbp)
	jnb	.L99
.LBB19:
.LBB20:
	.loc 6 281 0 is_stmt 1
	movl	568(%rbp), %edx
	movq	%rdx, %rax
	salq	$2, %rax
	addq	%rdx, %rax
	salq	$2, %rax
	leaq	576(%rbp), %rcx
	addq	%rcx, %rax
	subq	$656, %rax
	movzwl	(%rax), %eax
	movzwl	%ax, %eax
	cmpl	$2, %eax
	je	.L101
	cmpl	$16, %eax
	je	.L102
.LBB21:
	.loc 6 315 0
	jmp	.L103
.L102:
	.loc 6 285 0
	movl	568(%rbp), %edx
	movq	%rdx, %rax
	salq	$2, %rax
	addq	%rdx, %rax
	salq	$2, %rax
	leaq	576(%rbp), %rcx
	addq	%rcx, %rax
	subq	$652, %rax
	movl	(%rax), %eax
	testl	%eax, %eax
	setne	%dl
	movq	592(%rbp), %rax
	movb	%dl, 132(%rax)
	.loc 6 287 0
	jmp	.L103
.L101:
.LBB22:
.LBB23:
	.loc 6 291 0
	movl	568(%rbp), %edx
	movq	%rdx, %rax
	salq	$2, %rax
	addq	%rdx, %rax
	salq	$2, %rax
	leaq	576(%rbp), %rcx
	addq	%rcx, %rax
	subq	$640, %rax
	movl	(%rax), %eax
	testl	%eax, %eax
	je	.L105
	cmpl	$1, %eax
	je	.L106
.LBB24:
	.loc 6 309 0
	jmp	.L107
.L106:
	.loc 6 295 0
	movl	568(%rbp), %edx
	movq	%rdx, %rax
	salq	$2, %rax
	addq	%rdx, %rax
	salq	$2, %rax
	leaq	576(%rbp), %rcx
	addq	%rcx, %rax
	subq	$652, %rax
	movzwl	(%rax), %eax
	movswl	%ax, %edx
	movq	592(%rbp), %rax
	movl	%edx, 124(%rax)
	.loc 6 296 0
	movl	568(%rbp), %edx
	movq	%rdx, %rax
	salq	$2, %rax
	addq	%rdx, %rax
	salq	$2, %rax
	leaq	576(%rbp), %rcx
	addq	%rcx, %rax
	subq	$650, %rax
	movzwl	(%rax), %eax
	movswl	%ax, %edx
	movq	592(%rbp), %rax
	movl	%edx, 128(%rax)
	.loc 6 298 0
	jmp	.L107
.L105:
.LBB25:
.LBB26:
	.loc 6 302 0
	movl	$0, 564(%rbp)
.L109:
	.loc 6 302 0 is_stmt 0 discriminator 3
	cmpl	$4, 564(%rbp)
	jg	.L116
	.loc 6 303 0 is_stmt 1 discriminator 2
	movl	568(%rbp), %edx
	movq	%rdx, %rax
	salq	$2, %rax
	addq	%rdx, %rax
	salq	$2, %rax
	leaq	576(%rbp), %rcx
	addq	%rcx, %rax
	subq	$648, %rax
	movl	(%rax), %edx
	movl	564(%rbp), %eax
	movl	$1, %r8d
	movl	%eax, %ecx
	sall	%cl, %r8d
	movl	%r8d, %eax
	andl	%edx, %eax
	testl	%eax, %eax
	setne	%cl
	movq	592(%rbp), %rdx
	movl	564(%rbp), %eax
	cltq
	movb	%cl, 1163(%rdx,%rax)
	.loc 6 302 0 discriminator 2
	addl	$1, 564(%rbp)
	jmp	.L109
.L116:
.LBE26:
.LBE25:
	.loc 6 306 0
	nop
.L107:
.LBE24:
.LBE23:
.LBE22:
	.loc 6 312 0 discriminator 1
	nop
.L103:
.LBE21:
.LBE20:
.LBE19:
	.loc 6 279 0 discriminator 2
	addl	$1, 568(%rbp)
	jmp	.L110
.L99:
.LBE18:
.LBB27:
	.loc 6 320 0
	movl	$0, 560(%rbp)
.L115:
	.loc 6 320 0 is_stmt 0 discriminator 1
	cmpl	$4, 560(%rbp)
	jg	.L117
	.loc 6 322 0 is_stmt 1
	movq	592(%rbp), %rcx
	movl	560(%rbp), %eax
	movslq	%eax, %rdx
	movq	%rdx, %rax
	addq	%rax, %rax
	addq	%rdx, %rax
	addq	%rcx, %rax
	addq	$1936, %rax
	movb	$0, (%rax)
	.loc 6 323 0
	movq	592(%rbp), %rcx
	movl	560(%rbp), %eax
	movslq	%eax, %rdx
	movq	%rdx, %rax
	addq	%rax, %rax
	addq	%rdx, %rax
	addq	%rcx, %rax
	addq	$1937, %rax
	movb	$0, (%rax)
	.loc 6 325 0
	movq	592(%rbp), %rdx
	movl	560(%rbp), %eax
	cltq
	movzbl	1163(%rdx,%rax), %ecx
	movq	592(%rbp), %rdx
	movl	560(%rbp), %eax
	cltq
	movzbl	1158(%rdx,%rax), %eax
	cmpb	%al, %cl
	je	.L112
	.loc 6 327 0
	movq	592(%rbp), %rdx
	movl	560(%rbp), %eax
	cltq
	movzbl	1163(%rdx,%rax), %eax
	testb	%al, %al
	je	.L113
	.loc 6 329 0
	movq	592(%rbp), %rcx
	movl	560(%rbp), %eax
	movslq	%eax, %rdx
	movq	%rdx, %rax
	addq	%rax, %rax
	addq	%rdx, %rax
	addq	%rcx, %rax
	addq	$1936, %rax
	movb	$1, (%rax)
	.loc 6 330 0
	movq	592(%rbp), %rcx
	movl	560(%rbp), %eax
	movslq	%eax, %rdx
	movq	%rdx, %rax
	addq	%rax, %rax
	addq	%rdx, %rax
	addq	%rcx, %rax
	addq	$1938, %rax
	movb	$1, (%rax)
	jmp	.L112
.L113:
	.loc 6 334 0
	movq	592(%rbp), %rcx
	movl	560(%rbp), %eax
	movslq	%eax, %rdx
	movq	%rdx, %rax
	addq	%rax, %rax
	addq	%rdx, %rax
	addq	%rcx, %rax
	addq	$1937, %rax
	movb	$1, (%rax)
	.loc 6 335 0
	movq	592(%rbp), %rcx
	movl	560(%rbp), %eax
	movslq	%eax, %rdx
	movq	%rdx, %rax
	addq	%rax, %rax
	addq	%rdx, %rax
	addq	%rcx, %rax
	addq	$1938, %rax
	movb	$0, (%rax)
.L112:
	.loc 6 339 0 discriminator 2
	movq	592(%rbp), %rdx
	movl	560(%rbp), %eax
	cltq
	movzbl	1163(%rdx,%rax), %ecx
	movq	592(%rbp), %rdx
	movl	560(%rbp), %eax
	cltq
	movb	%cl, 1158(%rdx,%rax)
	.loc 6 320 0 discriminator 2
	addl	$1, 560(%rbp)
	jmp	.L115
.L117:
.LBE27:
	.loc 6 341 0
	nop
	addq	$704, %rsp
	popq	%rbp
	.cfi_restore 6
	.cfi_def_cfa 7, -696
	ret
	.cfi_endproc
.LFE6485:
	.seh_endproc
	.section	.text$_ZNSt6chrono13duration_castINS_8durationIfSt5ratioILx1ELx1EEEExS2_ILx1ELx1000000000EEEENSt9enable_ifIXsrNS_13__is_durationIT_EE5valueES8_E4typeERKNS1_IT0_T1_EE,"x"
	.linkonce discard
	.globl	_ZNSt6chrono13duration_castINS_8durationIfSt5ratioILx1ELx1EEEExS2_ILx1ELx1000000000EEEENSt9enable_ifIXsrNS_13__is_durationIT_EE5valueES8_E4typeERKNS1_IT0_T1_EE
	.def	_ZNSt6chrono13duration_castINS_8durationIfSt5ratioILx1ELx1EEEExS2_ILx1ELx1000000000EEEENSt9enable_ifIXsrNS_13__is_durationIT_EE5valueES8_E4typeERKNS1_IT0_T1_EE;	.scl	2;	.type	32;	.endef
	.seh_proc	_ZNSt6chrono13duration_castINS_8durationIfSt5ratioILx1ELx1EEEExS2_ILx1ELx1000000000EEEENSt9enable_ifIXsrNS_13__is_durationIT_EE5valueES8_E4typeERKNS1_IT0_T1_EE
_ZNSt6chrono13duration_castINS_8durationIfSt5ratioILx1ELx1EEEExS2_ILx1ELx1000000000EEEENSt9enable_ifIXsrNS_13__is_durationIT_EE5valueES8_E4typeERKNS1_IT0_T1_EE:
.LFB6751:
	.loc 5 194 0
	.cfi_startproc
	pushq	%rbp
	.seh_pushreg	%rbp
	.cfi_def_cfa_offset 16
	.cfi_offset 6, -16
	movq	%rsp, %rbp
	.seh_setframe	%rbp, 0
	.cfi_def_cfa_register 6
	subq	$32, %rsp
	.seh_stackalloc	32
	.seh_endprologue
	movq	%rcx, 16(%rbp)
	.loc 5 203 0
	movq	16(%rbp), %rcx
	call	_ZNSt6chrono20__duration_cast_implINS_8durationIfSt5ratioILx1ELx1EEEES2_ILx1ELx1000000000EEfLb1ELb0EE6__castIxS5_EES4_RKNS1_IT_T0_EE
	.loc 5 204 0
	addq	$32, %rsp
	popq	%rbp
	.cfi_restore 6
	.cfi_def_cfa 7, 8
	ret
	.cfi_endproc
.LFE6751:
	.seh_endproc
	.section	.text$_ZNKSt6chrono8durationIfSt5ratioILx1ELx1EEE5countEv,"x"
	.linkonce discard
	.align 2
	.globl	_ZNKSt6chrono8durationIfSt5ratioILx1ELx1EEE5countEv
	.def	_ZNKSt6chrono8durationIfSt5ratioILx1ELx1EEE5countEv;	.scl	2;	.type	32;	.endef
	.seh_proc	_ZNKSt6chrono8durationIfSt5ratioILx1ELx1EEE5countEv
_ZNKSt6chrono8durationIfSt5ratioILx1ELx1EEE5countEv:
.LFB6752:
	.loc 5 340 0
	.cfi_startproc
	pushq	%rbp
	.seh_pushreg	%rbp
	.cfi_def_cfa_offset 16
	.cfi_offset 6, -16
	movq	%rsp, %rbp
	.seh_setframe	%rbp, 0
	.cfi_def_cfa_register 6
	.seh_endprologue
	movq	%rcx, 16(%rbp)
	.loc 5 341 0
	movq	16(%rbp), %rax
	movss	(%rax), %xmm0
	popq	%rbp
	.cfi_restore 6
	.cfi_def_cfa 7, 8
	ret
	.cfi_endproc
.LFE6752:
	.seh_endproc
	.section	.text$_ZNSt6chrono20__duration_cast_implINS_8durationIfSt5ratioILx1ELx1EEEES2_ILx1ELx1000000000EEfLb1ELb0EE6__castIxS5_EES4_RKNS1_IT_T0_EE,"x"
	.linkonce discard
	.globl	_ZNSt6chrono20__duration_cast_implINS_8durationIfSt5ratioILx1ELx1EEEES2_ILx1ELx1000000000EEfLb1ELb0EE6__castIxS5_EES4_RKNS1_IT_T0_EE
	.def	_ZNSt6chrono20__duration_cast_implINS_8durationIfSt5ratioILx1ELx1EEEES2_ILx1ELx1000000000EEfLb1ELb0EE6__castIxS5_EES4_RKNS1_IT_T0_EE;	.scl	2;	.type	32;	.endef
	.seh_proc	_ZNSt6chrono20__duration_cast_implINS_8durationIfSt5ratioILx1ELx1EEEES2_ILx1ELx1000000000EEfLb1ELb0EE6__castIxS5_EES4_RKNS1_IT_T0_EE
_ZNSt6chrono20__duration_cast_implINS_8durationIfSt5ratioILx1ELx1EEEES2_ILx1ELx1000000000EEfLb1ELb0EE6__castIxS5_EES4_RKNS1_IT_T0_EE:
.LFB6867:
	.loc 5 159 0
	.cfi_startproc
	pushq	%rbp
	.seh_pushreg	%rbp
	.cfi_def_cfa_offset 16
	.cfi_offset 6, -16
	movq	%rsp, %rbp
	.seh_setframe	%rbp, 0
	.cfi_def_cfa_register 6
	subq	$48, %rsp
	.seh_stackalloc	48
	.seh_endprologue
	movq	%rcx, 16(%rbp)
	.loc 5 163 0
	movq	16(%rbp), %rcx
	call	_ZNKSt6chrono8durationIxSt5ratioILx1ELx1000000000EEE5countEv
	cvtsi2ssq	%rax, %xmm0
	movss	.LC11(%rip), %xmm1
	divss	%xmm1, %xmm0
	movss	%xmm0, -4(%rbp)
	leaq	-4(%rbp), %rdx
	leaq	-8(%rbp), %rax
	movq	%rax, %rcx
	call	_ZNSt6chrono8durationIfSt5ratioILx1ELx1EEEC1IfvEERKT_
	movss	-8(%rbp), %xmm0
	.loc 5 164 0
	addq	$48, %rsp
	popq	%rbp
	.cfi_restore 6
	.cfi_def_cfa 7, 8
	ret
	.cfi_endproc
.LFE6867:
	.seh_endproc
	.section	.text$_ZNSt6chrono8durationIfSt5ratioILx1ELx1EEEC1IfvEERKT_,"x"
	.linkonce discard
	.align 2
	.globl	_ZNSt6chrono8durationIfSt5ratioILx1ELx1EEEC1IfvEERKT_
	.def	_ZNSt6chrono8durationIfSt5ratioILx1ELx1EEEC1IfvEERKT_;	.scl	2;	.type	32;	.endef
	.seh_proc	_ZNSt6chrono8durationIfSt5ratioILx1ELx1EEEC1IfvEERKT_
_ZNSt6chrono8durationIfSt5ratioILx1ELx1EEEC1IfvEERKT_:
.LFB6905:
	.loc 5 325 0
	.cfi_startproc
	pushq	%rbp
	.seh_pushreg	%rbp
	.cfi_def_cfa_offset 16
	.cfi_offset 6, -16
	movq	%rsp, %rbp
	.seh_setframe	%rbp, 0
	.cfi_def_cfa_register 6
	.seh_endprologue
	movq	%rcx, 16(%rbp)
	movq	%rdx, 24(%rbp)
.LBB28:
	.loc 5 326 0
	movq	24(%rbp), %rax
	movss	(%rax), %xmm0
	movq	16(%rbp), %rax
	movss	%xmm0, (%rax)
.LBE28:
	nop
	popq	%rbp
	.cfi_restore 6
	.cfi_def_cfa 7, 8
	ret
	.cfi_endproc
.LFE6905:
	.seh_endproc
	.globl	_ZTV10gameEngine
	.section	.rdata$_ZTV10gameEngine,"dr"
	.linkonce same_size
	.align 8
_ZTV10gameEngine:
	.quad	0
	.quad	_ZTI10gameEngine
	.quad	_ZN10gameEngine8OnUpdateEf
	.quad	_ZN10gameEngine7OnFrameEv
	.quad	_ZN10gameEngine7OnCloseEv
	.quad	_ZN10gameEngine8OnCreateEv
	.globl	_ZTI10gameEngine
	.section	.rdata$_ZTI10gameEngine,"dr"
	.linkonce same_size
	.align 8
_ZTI10gameEngine:
	.quad	_ZTVN10__cxxabiv121__vmi_class_type_infoE+16
	.quad	_ZTS10gameEngine
	.long	0
	.long	1
	.quad	_ZTI3box
	.quad	2048
	.globl	_ZTS10gameEngine
	.section	.rdata$_ZTS10gameEngine,"dr"
	.linkonce same_size
	.align 8
_ZTS10gameEngine:
	.ascii "10gameEngine\0"
	.text
	.def	__tcf_0;	.scl	3;	.type	32;	.endef
	.seh_proc	__tcf_0
__tcf_0:
.LFB7009:
	.file 7 "c:/users/ian/downloads/pocketcpp-0.7/pocketcpp/mingw/include/c++/7.2.0/iostream"
	.loc 7 74 0
	.cfi_startproc
	pushq	%rbp
	.seh_pushreg	%rbp
	.cfi_def_cfa_offset 16
	.cfi_offset 6, -16
	movq	%rsp, %rbp
	.seh_setframe	%rbp, 0
	.cfi_def_cfa_register 6
	subq	$32, %rsp
	.seh_stackalloc	32
	.seh_endprologue
	.loc 7 74 0
	leaq	_ZStL8__ioinit(%rip), %rcx
	call	_ZNSt8ios_base4InitD1Ev
	nop
	addq	$32, %rsp
	popq	%rbp
	.cfi_restore 6
	.cfi_def_cfa 7, 8
	ret
	.cfi_endproc
.LFE7009:
	.seh_endproc
	.def	_Z41__static_initialization_and_destruction_0ii;	.scl	3;	.type	32;	.endef
	.seh_proc	_Z41__static_initialization_and_destruction_0ii
_Z41__static_initialization_and_destruction_0ii:
.LFB7008:
	.loc 6 341 0
	.cfi_startproc
	pushq	%rbp
	.seh_pushreg	%rbp
	.cfi_def_cfa_offset 16
	.cfi_offset 6, -16
	movq	%rsp, %rbp
	.seh_setframe	%rbp, 0
	.cfi_def_cfa_register 6
	subq	$32, %rsp
	.seh_stackalloc	32
	.seh_endprologue
	movl	%ecx, 16(%rbp)
	movl	%edx, 24(%rbp)
	.loc 6 341 0
	cmpl	$1, 16(%rbp)
	jne	.L128
	.loc 6 341 0 is_stmt 0 discriminator 1
	cmpl	$65535, 24(%rbp)
	jne	.L128
	.loc 7 74 0 is_stmt 1
	leaq	_ZStL8__ioinit(%rip), %rcx
	call	_ZNSt8ios_base4InitC1Ev
	leaq	__tcf_0(%rip), %rcx
	call	atexit
.L128:
	.loc 6 341 0
	nop
	addq	$32, %rsp
	popq	%rbp
	.cfi_restore 6
	.cfi_def_cfa 7, 8
	ret
	.cfi_endproc
.LFE7008:
	.seh_endproc
	.globl	_ZTI3box
	.section	.rdata$_ZTI3box,"dr"
	.linkonce same_size
	.align 8
_ZTI3box:
	.quad	_ZTVN10__cxxabiv120__si_class_type_infoE+16
	.quad	_ZTS3box
	.quad	_ZTI7boxsize
	.globl	_ZTS3box
	.section	.rdata$_ZTS3box,"dr"
	.linkonce same_size
_ZTS3box:
	.ascii "3box\0"
	.globl	_ZTI7boxsize
	.section	.rdata$_ZTI7boxsize,"dr"
	.linkonce same_size
	.align 8
_ZTI7boxsize:
	.quad	_ZTVN10__cxxabiv117__class_type_infoE+16
	.quad	_ZTS7boxsize
	.globl	_ZTS7boxsize
	.section	.rdata$_ZTS7boxsize,"dr"
	.linkonce same_size
	.align 8
_ZTS7boxsize:
	.ascii "7boxsize\0"
	.text
	.def	_GLOBAL__sub_I__ZN10gameEngine16_currentInstanceE;	.scl	3;	.type	32;	.endef
	.seh_proc	_GLOBAL__sub_I__ZN10gameEngine16_currentInstanceE
_GLOBAL__sub_I__ZN10gameEngine16_currentInstanceE:
.LFB7010:
	.loc 6 341 0
	.cfi_startproc
	pushq	%rbp
	.seh_pushreg	%rbp
	.cfi_def_cfa_offset 16
	.cfi_offset 6, -16
	movq	%rsp, %rbp
	.seh_setframe	%rbp, 0
	.cfi_def_cfa_register 6
	subq	$32, %rsp
	.seh_stackalloc	32
	.seh_endprologue
	.loc 6 341 0
	movl	$65535, %edx
	movl	$1, %ecx
	call	_Z41__static_initialization_and_destruction_0ii
	nop
	addq	$32, %rsp
	popq	%rbp
	.cfi_restore 6
	.cfi_def_cfa 7, 8
	ret
	.cfi_endproc
.LFE7010:
	.seh_endproc
	.section	.ctors,"w"
	.align 8
	.quad	_GLOBAL__sub_I__ZN10gameEngine16_currentInstanceE
	.section .rdata,"dr"
	.align 4
.LC10:
	.long	1112014848
	.align 4
.LC11:
	.long	1315859240
	.text
.Letext0:
	.file 8 "<built-in>"
	.file 9 "c:/users/ian/downloads/pocketcpp-0.7/pocketcpp/mingw/include/c++/7.2.0/x86_64-w64-mingw32/bits/c++config.h"
	.file 10 "c:/users/ian/downloads/pocketcpp-0.7/pocketcpp/mingw/include/c++/7.2.0/bits/basic_string.h"
	.file 11 "c:/users/ian/downloads/pocketcpp-0.7/pocketcpp/mingw/include/c++/7.2.0/bits/stringfwd.h"
	.file 12 "c:/users/ian/downloads/pocketcpp-0.7/pocketcpp/mingw/include/c++/7.2.0/cmath"
	.file 13 "c:/users/ian/downloads/pocketcpp-0.7/pocketcpp/mingw/include/c++/7.2.0/type_traits"
	.file 14 "c:/users/ian/downloads/pocketcpp-0.7/pocketcpp/mingw/include/c++/7.2.0/bits/stl_pair.h"
	.file 15 "c:/users/ian/downloads/pocketcpp-0.7/pocketcpp/mingw/include/c++/7.2.0/debug/debug.h"
	.file 16 "c:/users/ian/downloads/pocketcpp-0.7/pocketcpp/mingw/include/c++/7.2.0/cwchar"
	.file 17 "c:/users/ian/downloads/pocketcpp-0.7/pocketcpp/mingw/include/c++/7.2.0/bits/char_traits.h"
	.file 18 "c:/users/ian/downloads/pocketcpp-0.7/pocketcpp/mingw/include/c++/7.2.0/cstdint"
	.file 19 "c:/users/ian/downloads/pocketcpp-0.7/pocketcpp/mingw/include/c++/7.2.0/bits/exception_ptr.h"
	.file 20 "c:/users/ian/downloads/pocketcpp-0.7/pocketcpp/mingw/include/c++/7.2.0/new"
	.file 21 "c:/users/ian/downloads/pocketcpp-0.7/pocketcpp/mingw/include/c++/7.2.0/bits/allocator.h"
	.file 22 "c:/users/ian/downloads/pocketcpp-0.7/pocketcpp/mingw/include/c++/7.2.0/clocale"
	.file 23 "c:/users/ian/downloads/pocketcpp-0.7/pocketcpp/mingw/include/c++/7.2.0/cstdlib"
	.file 24 "c:/users/ian/downloads/pocketcpp-0.7/pocketcpp/mingw/include/c++/7.2.0/cstdio"
	.file 25 "c:/users/ian/downloads/pocketcpp-0.7/pocketcpp/mingw/include/c++/7.2.0/bits/alloc_traits.h"
	.file 26 "c:/users/ian/downloads/pocketcpp-0.7/pocketcpp/mingw/include/c++/7.2.0/initializer_list"
	.file 27 "c:/users/ian/downloads/pocketcpp-0.7/pocketcpp/mingw/include/c++/7.2.0/system_error"
	.file 28 "c:/users/ian/downloads/pocketcpp-0.7/pocketcpp/mingw/include/c++/7.2.0/bits/ios_base.h"
	.file 29 "c:/users/ian/downloads/pocketcpp-0.7/pocketcpp/mingw/include/c++/7.2.0/cwctype"
	.file 30 "c:/users/ian/downloads/pocketcpp-0.7/pocketcpp/mingw/include/c++/7.2.0/iosfwd"
	.file 31 "c:/users/ian/downloads/pocketcpp-0.7/pocketcpp/mingw/include/c++/7.2.0/ctime"
	.file 32 "c:/users/ian/downloads/pocketcpp-0.7/pocketcpp/mingw/include/c++/7.2.0/ratio"
	.file 33 "c:/users/ian/downloads/pocketcpp-0.7/pocketcpp/mingw/include/c++/7.2.0/bits/stl_iterator_base_types.h"
	.file 34 "c:/users/ian/downloads/pocketcpp-0.7/pocketcpp/mingw/include/c++/7.2.0/bits/predefined_ops.h"
	.file 35 "c:/users/ian/downloads/pocketcpp-0.7/pocketcpp/mingw/include/c++/7.2.0/ext/new_allocator.h"
	.file 36 "c:/users/ian/downloads/pocketcpp-0.7/pocketcpp/mingw/include/c++/7.2.0/ext/numeric_traits.h"
	.file 37 "c:/users/ian/downloads/pocketcpp-0.7/pocketcpp/mingw/include/c++/7.2.0/ext/alloc_traits.h"
	.file 38 "c:/users/ian/downloads/pocketcpp-0.7/pocketcpp/mingw/include/c++/7.2.0/bits/stl_iterator.h"
	.file 39 "c:/users/ian/downloads/pocketcpp-0.7/pocketcpp/mingw/x86_64-w64-mingw32/include/crtdefs.h"
	.file 40 "c:/users/ian/downloads/pocketcpp-0.7/pocketcpp/mingw/x86_64-w64-mingw32/include/locale.h"
	.file 41 "c:/users/ian/downloads/pocketcpp-0.7/pocketcpp/mingw/x86_64-w64-mingw32/include/math.h"
	.file 42 "c:/users/ian/downloads/pocketcpp-0.7/pocketcpp/mingw/x86_64-w64-mingw32/include/stdlib.h"
	.file 43 "c:/users/ian/downloads/pocketcpp-0.7/pocketcpp/mingw/x86_64-w64-mingw32/include/malloc.h"
	.file 44 "c:/users/ian/downloads/pocketcpp-0.7/pocketcpp/mingw/x86_64-w64-mingw32/include/swprintf.inl"
	.file 45 "c:/users/ian/downloads/pocketcpp-0.7/pocketcpp/mingw/x86_64-w64-mingw32/include/stdint.h"
	.file 46 "c:/users/ian/downloads/pocketcpp-0.7/pocketcpp/mingw/x86_64-w64-mingw32/include/stdio.h"
	.file 47 "c:/users/ian/downloads/pocketcpp-0.7/pocketcpp/mingw/x86_64-w64-mingw32/include/ctype.h"
	.file 48 "c:/users/ian/downloads/pocketcpp-0.7/pocketcpp/mingw/include/c++/7.2.0/x86_64-w64-mingw32/bits/gthr-default.h"
	.file 49 "c:/users/ian/downloads/pocketcpp-0.7/pocketcpp/mingw/include/c++/7.2.0/x86_64-w64-mingw32/bits/atomic_word.h"
	.file 50 "c:/users/ian/downloads/pocketcpp-0.7/pocketcpp/mingw/x86_64-w64-mingw32/include/excpt.h"
	.file 51 "c:/users/ian/downloads/pocketcpp-0.7/pocketcpp/mingw/x86_64-w64-mingw32/include/minwindef.h"
	.file 52 "c:/users/ian/downloads/pocketcpp-0.7/pocketcpp/mingw/x86_64-w64-mingw32/include/basetsd.h"
	.file 53 "c:/users/ian/downloads/pocketcpp-0.7/pocketcpp/mingw/x86_64-w64-mingw32/include/winnt.h"
	.file 54 "c:/users/ian/downloads/pocketcpp-0.7/pocketcpp/mingw/x86_64-w64-mingw32/include/guiddef.h"
	.file 55 "c:/users/ian/downloads/pocketcpp-0.7/pocketcpp/mingw/x86_64-w64-mingw32/include/wincon.h"
	.file 56 "c:/users/ian/downloads/pocketcpp-0.7/pocketcpp/mingw/x86_64-w64-mingw32/include/rpcdce.h"
	.file 57 "c:/users/ian/downloads/pocketcpp-0.7/pocketcpp/mingw/include/c++/7.2.0/stdlib.h"
	.file 58 "c:/users/ian/downloads/pocketcpp-0.7/pocketcpp/mingw/x86_64-w64-mingw32/include/wtypesbase.h"
	.file 59 "c:/users/ian/downloads/pocketcpp-0.7/pocketcpp/mingw/x86_64-w64-mingw32/include/unknwnbase.h"
	.file 60 "c:/users/ian/downloads/pocketcpp-0.7/pocketcpp/mingw/x86_64-w64-mingw32/include/objidlbase.h"
	.file 61 "c:/users/ian/downloads/pocketcpp-0.7/pocketcpp/mingw/x86_64-w64-mingw32/include/cguid.h"
	.file 62 "c:/users/ian/downloads/pocketcpp-0.7/pocketcpp/mingw/x86_64-w64-mingw32/include/wtypes.h"
	.file 63 "c:/users/ian/downloads/pocketcpp-0.7/pocketcpp/mingw/x86_64-w64-mingw32/include/objidl.h"
	.file 64 "c:/users/ian/downloads/pocketcpp-0.7/pocketcpp/mingw/x86_64-w64-mingw32/include/oleidl.h"
	.file 65 "c:/users/ian/downloads/pocketcpp-0.7/pocketcpp/mingw/x86_64-w64-mingw32/include/servprov.h"
	.file 66 "c:/users/ian/downloads/pocketcpp-0.7/pocketcpp/mingw/x86_64-w64-mingw32/include/oaidl.h"
	.file 67 "c:/users/ian/downloads/pocketcpp-0.7/pocketcpp/mingw/x86_64-w64-mingw32/include/msxml.h"
	.file 68 "c:/users/ian/downloads/pocketcpp-0.7/pocketcpp/mingw/x86_64-w64-mingw32/include/urlmon.h"
	.file 69 "c:/users/ian/downloads/pocketcpp-0.7/pocketcpp/mingw/x86_64-w64-mingw32/include/propidl.h"
	.file 70 "c:/users/ian/downloads/pocketcpp-0.7/pocketcpp/mingw/x86_64-w64-mingw32/include/oleauto.h"
	.file 71 "c:/users/ian/downloads/pocketcpp-0.7/pocketcpp/mingw/x86_64-w64-mingw32/include/winioctl.h"
	.file 72 "c:/users/ian/downloads/pocketcpp-0.7/pocketcpp/mingw/x86_64-w64-mingw32/include/winsmcrd.h"
	.file 73 "c:/users/ian/downloads/pocketcpp-0.7/pocketcpp/mingw/x86_64-w64-mingw32/include/winscard.h"
	.file 74 "c:/users/ian/downloads/pocketcpp-0.7/pocketcpp/mingw/x86_64-w64-mingw32/include/commdlg.h"
	.file 75 "c:/users/ian/downloads/pocketcpp-0.7/pocketcpp/mingw/x86_64-w64-mingw32/include/wctype.h"
	.file 76 "c:/users/ian/downloads/pocketcpp-0.7/pocketcpp/mingw/x86_64-w64-mingw32/include/time.h"
	.file 77 "c:/users/ian/downloads/pocketcpp-0.7/pocketcpp/mingw/x86_64-w64-mingw32/include/winuser.h"
	.file 78 "c:/users/ian/downloads/pocketcpp-0.7/pocketcpp/mingw/x86_64-w64-mingw32/include/errhandlingapi.h"
	.file 79 "c:/users/ian/downloads/pocketcpp-0.7/pocketcpp/mingw/x86_64-w64-mingw32/include/winbase.h"
	.file 80 "c:/users/ian/downloads/pocketcpp-0.7/pocketcpp/mingw/x86_64-w64-mingw32/include/synchapi.h"
	.data
	.align 8
.LDFCM0:
	.quad	__gxx_personality_seh0
	.ident	"GCC: (GNU) 7.2.0"
	.def	__mingw_vwprintf;	.scl	2;	.type	32;	.endef
	.def	exit;	.scl	2;	.type	32;	.endef
	.def	memset;	.scl	2;	.type	32;	.endef
	.def	wcscpy;	.scl	2;	.type	32;	.endef
	.def	_ZNKSt7__cxx1112basic_stringIwSt11char_traitsIwESaIwEE6lengthEv;	.scl	2;	.type	32;	.endef
	.def	_ZNSt7__cxx1112basic_stringIwSt11char_traitsIwESaIwEEixEy;	.scl	2;	.type	32;	.endef
	.def	_ZNSt6chrono3_V212system_clock3nowEv;	.scl	2;	.type	32;	.endef
	.def	_ZNSt8ios_base4InitD1Ev;	.scl	2;	.type	32;	.endef
	.def	_ZNSt8ios_base4InitC1Ev;	.scl	2;	.type	32;	.endef
	.def	atexit;	.scl	2;	.type	32;	.endef
