	.file	"lodepng.cpp"
	.text
.Ltext0:
	.cfi_sections	.debug_frame
	.section .rdata,"dr"
_ZStL19piecewise_construct:
	.space 1
	.section	.text$_ZN12LodePNGStateD2Ev,"x"
	.linkonce discard
	.align 2
	.globl	_ZN12LodePNGStateD2Ev
	.def	_ZN12LodePNGStateD2Ev;	.scl	2;	.type	32;	.endef
	.seh_proc	_ZN12LodePNGStateD2Ev
_ZN12LodePNGStateD2Ev:
.LFB1344:
	.file 1 "lodepng.h"
	.loc 1 734 0
	.cfi_startproc
	pushq	%rbp
	.seh_pushreg	%rbp
	.cfi_def_cfa_offset 16
	.cfi_offset 6, -16
	movq	%rsp, %rbp
	.seh_setframe	%rbp, 0
	.cfi_def_cfa_register 6
	.seh_endprologue
	movq	%rcx, 16(%rbp)
.LBB2:
	.loc 1 734 0
	leaq	16+_ZTV12LodePNGState(%rip), %rdx
	movq	16(%rbp), %rax
	movq	%rdx, (%rax)
.LBE2:
	nop
	popq	%rbp
	.cfi_restore 6
	.cfi_def_cfa 7, 8
	ret
	.cfi_endproc
.LFE1344:
	.seh_endproc
	.section	.text$_ZN12LodePNGStateD1Ev,"x"
	.linkonce discard
	.align 2
	.globl	_ZN12LodePNGStateD1Ev
	.def	_ZN12LodePNGStateD1Ev;	.scl	2;	.type	32;	.endef
	.seh_proc	_ZN12LodePNGStateD1Ev
_ZN12LodePNGStateD1Ev:
.LFB1345:
	.loc 1 734 0
	.cfi_startproc
	pushq	%rbp
	.seh_pushreg	%rbp
	.cfi_def_cfa_offset 16
	.cfi_offset 6, -16
	movq	%rsp, %rbp
	.seh_setframe	%rbp, 0
	.cfi_def_cfa_register 6
	.seh_endprologue
	movq	%rcx, 16(%rbp)
.LBB3:
	.loc 1 734 0
	leaq	16+_ZTV12LodePNGState(%rip), %rdx
	movq	16(%rbp), %rax
	movq	%rdx, (%rax)
.LBE3:
	nop
	popq	%rbp
	.cfi_restore 6
	.cfi_def_cfa 7, 8
	ret
	.cfi_endproc
.LFE1345:
	.seh_endproc
	.section	.text$_ZN12LodePNGStateD0Ev,"x"
	.linkonce discard
	.align 2
	.globl	_ZN12LodePNGStateD0Ev
	.def	_ZN12LodePNGStateD0Ev;	.scl	2;	.type	32;	.endef
	.seh_proc	_ZN12LodePNGStateD0Ev
_ZN12LodePNGStateD0Ev:
.LFB1346:
	.loc 1 734 0
	.cfi_startproc
	pushq	%rbp
	.seh_pushreg	%rbp
	.cfi_def_cfa_offset 16
	.cfi_offset 6, -16
	movq	%rsp, %rbp
	.seh_setframe	%rbp, 0
	.cfi_def_cfa_register 6
	subq	$32, %rsp
	.seh_stackalloc	32
	.seh_endprologue
	movq	%rcx, 16(%rbp)
	.loc 1 734 0
	movq	16(%rbp), %rcx
	call	_ZN12LodePNGStateD1Ev
	movl	$512, %edx
	movq	16(%rbp), %rcx
	call	_ZdlPvy
	nop
	addq	$32, %rsp
	popq	%rbp
	.cfi_restore 6
	.cfi_def_cfa 7, 8
	ret
	.cfi_endproc
.LFE1346:
	.seh_endproc
	.globl	LODEPNG_VERSION_STRING
	.section .rdata,"dr"
.LC0:
	.ascii "20190210\0"
	.data
	.align 8
LODEPNG_VERSION_STRING:
	.quad	.LC0
	.text
	.def	_ZL14lodepng_mallocy;	.scl	3;	.type	32;	.endef
	.seh_proc	_ZL14lodepng_mallocy
_ZL14lodepng_mallocy:
.LFB1347:
	.file 2 "lodepng.cpp"
	.loc 2 64 0
	.cfi_startproc
	pushq	%rbp
	.seh_pushreg	%rbp
	.cfi_def_cfa_offset 16
	.cfi_offset 6, -16
	movq	%rsp, %rbp
	.seh_setframe	%rbp, 0
	.cfi_def_cfa_register 6
	subq	$32, %rsp
	.seh_stackalloc	32
	.seh_endprologue
	movq	%rcx, 16(%rbp)
	.loc 2 68 0
	movq	16(%rbp), %rcx
	call	malloc
	.loc 2 69 0
	addq	$32, %rsp
	popq	%rbp
	.cfi_restore 6
	.cfi_def_cfa 7, 8
	ret
	.cfi_endproc
.LFE1347:
	.seh_endproc
	.def	_ZL15lodepng_reallocPvy;	.scl	3;	.type	32;	.endef
	.seh_proc	_ZL15lodepng_reallocPvy
_ZL15lodepng_reallocPvy:
.LFB1348:
	.loc 2 71 0
	.cfi_startproc
	pushq	%rbp
	.seh_pushreg	%rbp
	.cfi_def_cfa_offset 16
	.cfi_offset 6, -16
	movq	%rsp, %rbp
	.seh_setframe	%rbp, 0
	.cfi_def_cfa_register 6
	subq	$32, %rsp
	.seh_stackalloc	32
	.seh_endprologue
	movq	%rcx, 16(%rbp)
	movq	%rdx, 24(%rbp)
	.loc 2 75 0
	movq	24(%rbp), %rax
	movq	%rax, %rdx
	movq	16(%rbp), %rcx
	call	realloc
	.loc 2 76 0
	addq	$32, %rsp
	popq	%rbp
	.cfi_restore 6
	.cfi_def_cfa 7, 8
	ret
	.cfi_endproc
.LFE1348:
	.seh_endproc
	.def	_ZL12lodepng_freePv;	.scl	3;	.type	32;	.endef
	.seh_proc	_ZL12lodepng_freePv
_ZL12lodepng_freePv:
.LFB1349:
	.loc 2 78 0
	.cfi_startproc
	pushq	%rbp
	.seh_pushreg	%rbp
	.cfi_def_cfa_offset 16
	.cfi_offset 6, -16
	movq	%rsp, %rbp
	.seh_setframe	%rbp, 0
	.cfi_def_cfa_register 6
	subq	$32, %rsp
	.seh_stackalloc	32
	.seh_endprologue
	movq	%rcx, 16(%rbp)
	.loc 2 79 0
	movq	16(%rbp), %rcx
	call	free
	.loc 2 80 0
	nop
	addq	$32, %rsp
	popq	%rbp
	.cfi_restore 6
	.cfi_def_cfa 7, 8
	ret
	.cfi_endproc
.LFE1349:
	.seh_endproc
	.def	_ZL16uivector_cleanupPv;	.scl	3;	.type	32;	.endef
	.seh_proc	_ZL16uivector_cleanupPv
_ZL16uivector_cleanupPv:
.LFB1350:
	.loc 2 146 0
	.cfi_startproc
	pushq	%rbp
	.seh_pushreg	%rbp
	.cfi_def_cfa_offset 16
	.cfi_offset 6, -16
	movq	%rsp, %rbp
	.seh_setframe	%rbp, 0
	.cfi_def_cfa_register 6
	subq	$32, %rsp
	.seh_stackalloc	32
	.seh_endprologue
	movq	%rcx, 16(%rbp)
	.loc 2 147 0
	movq	16(%rbp), %rax
	movq	$0, 16(%rax)
	movq	16(%rbp), %rax
	movq	16(%rax), %rdx
	movq	16(%rbp), %rax
	movq	%rdx, 8(%rax)
	.loc 2 148 0
	movq	16(%rbp), %rax
	movq	(%rax), %rax
	movq	%rax, %rcx
	call	_ZL12lodepng_freePv
	.loc 2 149 0
	movq	16(%rbp), %rax
	movq	$0, (%rax)
	.loc 2 150 0
	nop
	addq	$32, %rsp
	popq	%rbp
	.cfi_restore 6
	.cfi_def_cfa 7, 8
	ret
	.cfi_endproc
.LFE1350:
	.seh_endproc
	.def	_ZL16uivector_reserveP8uivectory;	.scl	3;	.type	32;	.endef
	.seh_proc	_ZL16uivector_reserveP8uivectory
_ZL16uivector_reserveP8uivectory:
.LFB1351:
	.loc 2 153 0
	.cfi_startproc
	pushq	%rbp
	.seh_pushreg	%rbp
	.cfi_def_cfa_offset 16
	.cfi_offset 6, -16
	movq	%rsp, %rbp
	.seh_setframe	%rbp, 0
	.cfi_def_cfa_register 6
	subq	$48, %rsp
	.seh_stackalloc	48
	.seh_endprologue
	movq	%rcx, 16(%rbp)
	movq	%rdx, 24(%rbp)
.LBB4:
	.loc 2 154 0
	movq	16(%rbp), %rax
	movq	16(%rax), %rax
	cmpq	%rax, 24(%rbp)
	jbe	.L11
.LBB5:
	.loc 2 155 0
	movq	16(%rbp), %rax
	movq	16(%rax), %rax
	addq	%rax, %rax
	cmpq	%rax, 24(%rbp)
	ja	.L12
	.loc 2 155 0 is_stmt 0 discriminator 1
	movq	24(%rbp), %rdx
	movq	%rdx, %rax
	addq	%rax, %rax
	addq	%rdx, %rax
	shrq	%rax
	jmp	.L13
.L12:
	.loc 2 155 0 discriminator 2
	movq	24(%rbp), %rax
.L13:
	.loc 2 155 0 discriminator 4
	movq	%rax, -8(%rbp)
	.loc 2 156 0 is_stmt 1 discriminator 4
	movq	16(%rbp), %rax
	movq	(%rax), %rax
	movq	-8(%rbp), %rdx
	movq	%rax, %rcx
	call	_ZL15lodepng_reallocPvy
	movq	%rax, -16(%rbp)
	.loc 2 157 0 discriminator 4
	cmpq	$0, -16(%rbp)
	je	.L14
	.loc 2 158 0
	movq	16(%rbp), %rax
	movq	-8(%rbp), %rdx
	movq	%rdx, 16(%rax)
	.loc 2 159 0
	movq	16(%rbp), %rax
	movq	-16(%rbp), %rdx
	movq	%rdx, (%rax)
	jmp	.L11
.L14:
	.loc 2 161 0
	movl	$0, %eax
	jmp	.L16
.L11:
.LBE5:
.LBE4:
	.loc 2 163 0
	movl	$1, %eax
.L16:
	.loc 2 164 0
	addq	$48, %rsp
	popq	%rbp
	.cfi_restore 6
	.cfi_def_cfa 7, 8
	ret
	.cfi_endproc
.LFE1351:
	.seh_endproc
	.def	_ZL15uivector_resizeP8uivectory;	.scl	3;	.type	32;	.endef
	.seh_proc	_ZL15uivector_resizeP8uivectory
_ZL15uivector_resizeP8uivectory:
.LFB1352:
	.loc 2 167 0
	.cfi_startproc
	pushq	%rbp
	.seh_pushreg	%rbp
	.cfi_def_cfa_offset 16
	.cfi_offset 6, -16
	movq	%rsp, %rbp
	.seh_setframe	%rbp, 0
	.cfi_def_cfa_register 6
	subq	$32, %rsp
	.seh_stackalloc	32
	.seh_endprologue
	movq	%rcx, 16(%rbp)
	movq	%rdx, 24(%rbp)
	.loc 2 168 0
	movq	24(%rbp), %rax
	salq	$2, %rax
	movq	%rax, %rdx
	movq	16(%rbp), %rcx
	call	_ZL16uivector_reserveP8uivectory
	testl	%eax, %eax
	sete	%al
	testb	%al, %al
	je	.L18
	.loc 2 168 0 is_stmt 0 discriminator 1
	movl	$0, %eax
	jmp	.L19
.L18:
	.loc 2 169 0 is_stmt 1
	movq	16(%rbp), %rax
	movq	24(%rbp), %rdx
	movq	%rdx, 8(%rax)
	.loc 2 170 0
	movl	$1, %eax
.L19:
	.loc 2 171 0
	addq	$32, %rsp
	popq	%rbp
	.cfi_restore 6
	.cfi_def_cfa 7, 8
	ret
	.cfi_endproc
.LFE1352:
	.seh_endproc
	.def	_ZL16uivector_resizevP8uivectoryj;	.scl	3;	.type	32;	.endef
	.seh_proc	_ZL16uivector_resizevP8uivectoryj
_ZL16uivector_resizevP8uivectoryj:
.LFB1353:
	.loc 2 174 0
	.cfi_startproc
	pushq	%rbp
	.seh_pushreg	%rbp
	.cfi_def_cfa_offset 16
	.cfi_offset 6, -16
	movq	%rsp, %rbp
	.seh_setframe	%rbp, 0
	.cfi_def_cfa_register 6
	subq	$48, %rsp
	.seh_stackalloc	48
	.seh_endprologue
	movq	%rcx, 16(%rbp)
	movq	%rdx, 24(%rbp)
	movl	%r8d, 32(%rbp)
	.loc 2 175 0
	movq	16(%rbp), %rax
	movq	8(%rax), %rax
	movq	%rax, -16(%rbp)
	.loc 2 176 0
	movq	24(%rbp), %rax
	movq	%rax, %rdx
	movq	16(%rbp), %rcx
	call	_ZL15uivector_resizeP8uivectory
	testl	%eax, %eax
	sete	%al
	testb	%al, %al
	je	.L21
	.loc 2 176 0 is_stmt 0 discriminator 1
	movl	$0, %eax
	jmp	.L22
.L21:
	.loc 2 177 0 is_stmt 1
	movq	-16(%rbp), %rax
	movq	%rax, -8(%rbp)
.L24:
	.loc 2 177 0 is_stmt 0 discriminator 3
	movq	-8(%rbp), %rax
	cmpq	24(%rbp), %rax
	jnb	.L23
	.loc 2 177 0 discriminator 2
	movq	16(%rbp), %rax
	movq	(%rax), %rax
	movq	-8(%rbp), %rdx
	salq	$2, %rdx
	addq	%rax, %rdx
	movl	32(%rbp), %eax
	movl	%eax, (%rdx)
	addq	$1, -8(%rbp)
	jmp	.L24
.L23:
	.loc 2 178 0 is_stmt 1
	movl	$1, %eax
.L22:
	.loc 2 179 0
	addq	$48, %rsp
	popq	%rbp
	.cfi_restore 6
	.cfi_def_cfa 7, 8
	ret
	.cfi_endproc
.LFE1353:
	.seh_endproc
	.def	_ZL13uivector_initP8uivector;	.scl	3;	.type	32;	.endef
	.seh_proc	_ZL13uivector_initP8uivector
_ZL13uivector_initP8uivector:
.LFB1354:
	.loc 2 181 0
	.cfi_startproc
	pushq	%rbp
	.seh_pushreg	%rbp
	.cfi_def_cfa_offset 16
	.cfi_offset 6, -16
	movq	%rsp, %rbp
	.seh_setframe	%rbp, 0
	.cfi_def_cfa_register 6
	.seh_endprologue
	movq	%rcx, 16(%rbp)
	.loc 2 182 0
	movq	16(%rbp), %rax
	movq	$0, (%rax)
	.loc 2 183 0
	movq	16(%rbp), %rax
	movq	$0, 16(%rax)
	movq	16(%rbp), %rax
	movq	16(%rax), %rdx
	movq	16(%rbp), %rax
	movq	%rdx, 8(%rax)
	.loc 2 184 0
	nop
	popq	%rbp
	.cfi_restore 6
	.cfi_def_cfa 7, 8
	ret
	.cfi_endproc
.LFE1354:
	.seh_endproc
	.def	_ZL18uivector_push_backP8uivectorj;	.scl	3;	.type	32;	.endef
	.seh_proc	_ZL18uivector_push_backP8uivectorj
_ZL18uivector_push_backP8uivectorj:
.LFB1355:
	.loc 2 188 0
	.cfi_startproc
	pushq	%rbp
	.seh_pushreg	%rbp
	.cfi_def_cfa_offset 16
	.cfi_offset 6, -16
	movq	%rsp, %rbp
	.seh_setframe	%rbp, 0
	.cfi_def_cfa_register 6
	subq	$32, %rsp
	.seh_stackalloc	32
	.seh_endprologue
	movq	%rcx, 16(%rbp)
	movl	%edx, 24(%rbp)
	.loc 2 189 0
	movq	16(%rbp), %rax
	movq	8(%rax), %rax
	addq	$1, %rax
	movq	%rax, %rdx
	movq	16(%rbp), %rcx
	call	_ZL15uivector_resizeP8uivectory
	testl	%eax, %eax
	sete	%al
	testb	%al, %al
	je	.L27
	.loc 2 189 0 is_stmt 0 discriminator 1
	movl	$0, %eax
	jmp	.L28
.L27:
	.loc 2 190 0 is_stmt 1
	movq	16(%rbp), %rax
	movq	(%rax), %rdx
	movq	16(%rbp), %rax
	movq	8(%rax), %rax
	salq	$2, %rax
	subq	$4, %rax
	addq	%rax, %rdx
	movl	24(%rbp), %eax
	movl	%eax, (%rdx)
	.loc 2 191 0
	movl	$1, %eax
.L28:
	.loc 2 192 0
	addq	$32, %rsp
	popq	%rbp
	.cfi_restore 6
	.cfi_def_cfa 7, 8
	ret
	.cfi_endproc
.LFE1355:
	.seh_endproc
	.def	_ZL16ucvector_reserveP8ucvectory;	.scl	3;	.type	32;	.endef
	.seh_proc	_ZL16ucvector_reserveP8ucvectory
_ZL16ucvector_reserveP8ucvectory:
.LFB1356:
	.loc 2 206 0
	.cfi_startproc
	pushq	%rbp
	.seh_pushreg	%rbp
	.cfi_def_cfa_offset 16
	.cfi_offset 6, -16
	movq	%rsp, %rbp
	.seh_setframe	%rbp, 0
	.cfi_def_cfa_register 6
	subq	$48, %rsp
	.seh_stackalloc	48
	.seh_endprologue
	movq	%rcx, 16(%rbp)
	movq	%rdx, 24(%rbp)
.LBB6:
	.loc 2 207 0
	movq	16(%rbp), %rax
	movq	16(%rax), %rax
	cmpq	%rax, 24(%rbp)
	jbe	.L30
.LBB7:
	.loc 2 208 0
	movq	16(%rbp), %rax
	movq	16(%rax), %rax
	addq	%rax, %rax
	cmpq	%rax, 24(%rbp)
	ja	.L31
	.loc 2 208 0 is_stmt 0 discriminator 1
	movq	24(%rbp), %rdx
	movq	%rdx, %rax
	addq	%rax, %rax
	addq	%rdx, %rax
	shrq	%rax
	jmp	.L32
.L31:
	.loc 2 208 0 discriminator 2
	movq	24(%rbp), %rax
.L32:
	.loc 2 208 0 discriminator 4
	movq	%rax, -8(%rbp)
	.loc 2 209 0 is_stmt 1 discriminator 4
	movq	16(%rbp), %rax
	movq	(%rax), %rax
	movq	-8(%rbp), %rdx
	movq	%rax, %rcx
	call	_ZL15lodepng_reallocPvy
	movq	%rax, -16(%rbp)
	.loc 2 210 0 discriminator 4
	cmpq	$0, -16(%rbp)
	je	.L33
	.loc 2 211 0
	movq	16(%rbp), %rax
	movq	-8(%rbp), %rdx
	movq	%rdx, 16(%rax)
	.loc 2 212 0
	movq	16(%rbp), %rax
	movq	-16(%rbp), %rdx
	movq	%rdx, (%rax)
	jmp	.L30
.L33:
	.loc 2 214 0
	movl	$0, %eax
	jmp	.L35
.L30:
.LBE7:
.LBE6:
	.loc 2 216 0
	movl	$1, %eax
.L35:
	.loc 2 217 0
	addq	$48, %rsp
	popq	%rbp
	.cfi_restore 6
	.cfi_def_cfa 7, 8
	ret
	.cfi_endproc
.LFE1356:
	.seh_endproc
	.def	_ZL15ucvector_resizeP8ucvectory;	.scl	3;	.type	32;	.endef
	.seh_proc	_ZL15ucvector_resizeP8ucvectory
_ZL15ucvector_resizeP8ucvectory:
.LFB1357:
	.loc 2 220 0
	.cfi_startproc
	pushq	%rbp
	.seh_pushreg	%rbp
	.cfi_def_cfa_offset 16
	.cfi_offset 6, -16
	movq	%rsp, %rbp
	.seh_setframe	%rbp, 0
	.cfi_def_cfa_register 6
	subq	$32, %rsp
	.seh_stackalloc	32
	.seh_endprologue
	movq	%rcx, 16(%rbp)
	movq	%rdx, 24(%rbp)
	.loc 2 221 0
	movq	24(%rbp), %rax
	movq	%rax, %rdx
	movq	16(%rbp), %rcx
	call	_ZL16ucvector_reserveP8ucvectory
	testl	%eax, %eax
	sete	%al
	testb	%al, %al
	je	.L37
	.loc 2 221 0 is_stmt 0 discriminator 1
	movl	$0, %eax
	jmp	.L38
.L37:
	.loc 2 222 0 is_stmt 1
	movq	16(%rbp), %rax
	movq	24(%rbp), %rdx
	movq	%rdx, 8(%rax)
	.loc 2 223 0
	movl	$1, %eax
.L38:
	.loc 2 224 0
	addq	$32, %rsp
	popq	%rbp
	.cfi_restore 6
	.cfi_def_cfa 7, 8
	ret
	.cfi_endproc
.LFE1357:
	.seh_endproc
	.def	_ZL16ucvector_cleanupPv;	.scl	3;	.type	32;	.endef
	.seh_proc	_ZL16ucvector_cleanupPv
_ZL16ucvector_cleanupPv:
.LFB1358:
	.loc 2 228 0
	.cfi_startproc
	pushq	%rbp
	.seh_pushreg	%rbp
	.cfi_def_cfa_offset 16
	.cfi_offset 6, -16
	movq	%rsp, %rbp
	.seh_setframe	%rbp, 0
	.cfi_def_cfa_register 6
	subq	$32, %rsp
	.seh_stackalloc	32
	.seh_endprologue
	movq	%rcx, 16(%rbp)
	.loc 2 229 0
	movq	16(%rbp), %rax
	movq	$0, 16(%rax)
	movq	16(%rbp), %rax
	movq	16(%rax), %rdx
	movq	16(%rbp), %rax
	movq	%rdx, 8(%rax)
	.loc 2 230 0
	movq	16(%rbp), %rax
	movq	(%rax), %rax
	movq	%rax, %rcx
	call	_ZL12lodepng_freePv
	.loc 2 231 0
	movq	16(%rbp), %rax
	movq	$0, (%rax)
	.loc 2 232 0
	nop
	addq	$32, %rsp
	popq	%rbp
	.cfi_restore 6
	.cfi_def_cfa 7, 8
	ret
	.cfi_endproc
.LFE1358:
	.seh_endproc
	.def	_ZL13ucvector_initP8ucvector;	.scl	3;	.type	32;	.endef
	.seh_proc	_ZL13ucvector_initP8ucvector
_ZL13ucvector_initP8ucvector:
.LFB1359:
	.loc 2 234 0
	.cfi_startproc
	pushq	%rbp
	.seh_pushreg	%rbp
	.cfi_def_cfa_offset 16
	.cfi_offset 6, -16
	movq	%rsp, %rbp
	.seh_setframe	%rbp, 0
	.cfi_def_cfa_register 6
	.seh_endprologue
	movq	%rcx, 16(%rbp)
	.loc 2 235 0
	movq	16(%rbp), %rax
	movq	$0, (%rax)
	.loc 2 236 0
	movq	16(%rbp), %rax
	movq	$0, 16(%rax)
	movq	16(%rbp), %rax
	movq	16(%rax), %rdx
	movq	16(%rbp), %rax
	movq	%rdx, 8(%rax)
	.loc 2 237 0
	nop
	popq	%rbp
	.cfi_restore 6
	.cfi_def_cfa 7, 8
	ret
	.cfi_endproc
.LFE1359:
	.seh_endproc
	.def	_ZL20ucvector_init_bufferP8ucvectorPhy;	.scl	3;	.type	32;	.endef
	.seh_proc	_ZL20ucvector_init_bufferP8ucvectorPhy
_ZL20ucvector_init_bufferP8ucvectorPhy:
.LFB1360:
	.loc 2 243 0
	.cfi_startproc
	pushq	%rbp
	.seh_pushreg	%rbp
	.cfi_def_cfa_offset 16
	.cfi_offset 6, -16
	movq	%rsp, %rbp
	.seh_setframe	%rbp, 0
	.cfi_def_cfa_register 6
	.seh_endprologue
	movq	%rcx, 16(%rbp)
	movq	%rdx, 24(%rbp)
	movq	%r8, 32(%rbp)
	.loc 2 244 0
	movq	16(%rbp), %rax
	movq	24(%rbp), %rdx
	movq	%rdx, (%rax)
	.loc 2 245 0
	movq	16(%rbp), %rax
	movq	32(%rbp), %rdx
	movq	%rdx, 8(%rax)
	movq	16(%rbp), %rax
	movq	8(%rax), %rdx
	movq	16(%rbp), %rax
	movq	%rdx, 16(%rax)
	.loc 2 246 0
	nop
	popq	%rbp
	.cfi_restore 6
	.cfi_def_cfa 7, 8
	ret
	.cfi_endproc
.LFE1360:
	.seh_endproc
	.def	_ZL18ucvector_push_backP8ucvectorh;	.scl	3;	.type	32;	.endef
	.seh_proc	_ZL18ucvector_push_backP8ucvectorh
_ZL18ucvector_push_backP8ucvectorh:
.LFB1361:
	.loc 2 251 0
	.cfi_startproc
	pushq	%rbp
	.seh_pushreg	%rbp
	.cfi_def_cfa_offset 16
	.cfi_offset 6, -16
	movq	%rsp, %rbp
	.seh_setframe	%rbp, 0
	.cfi_def_cfa_register 6
	subq	$32, %rsp
	.seh_stackalloc	32
	.seh_endprologue
	movq	%rcx, 16(%rbp)
	movl	%edx, %eax
	movb	%al, 24(%rbp)
	.loc 2 252 0
	movq	16(%rbp), %rax
	movq	8(%rax), %rax
	addq	$1, %rax
	movq	%rax, %rdx
	movq	16(%rbp), %rcx
	call	_ZL15ucvector_resizeP8ucvectory
	testl	%eax, %eax
	sete	%al
	testb	%al, %al
	je	.L43
	.loc 2 252 0 is_stmt 0 discriminator 1
	movl	$0, %eax
	jmp	.L44
.L43:
	.loc 2 253 0 is_stmt 1
	movq	16(%rbp), %rax
	movq	(%rax), %rdx
	movq	16(%rbp), %rax
	movq	8(%rax), %rax
	subq	$1, %rax
	addq	%rax, %rdx
	movzbl	24(%rbp), %eax
	movb	%al, (%rdx)
	.loc 2 254 0
	movl	$1, %eax
.L44:
	.loc 2 255 0
	addq	$32, %rsp
	popq	%rbp
	.cfi_restore 6
	.cfi_def_cfa 7, 8
	ret
	.cfi_endproc
.LFE1361:
	.seh_endproc
	.def	_ZL14string_cleanupPPc;	.scl	3;	.type	32;	.endef
	.seh_proc	_ZL14string_cleanupPPc
_ZL14string_cleanupPPc:
.LFB1362:
	.loc 2 265 0
	.cfi_startproc
	pushq	%rbp
	.seh_pushreg	%rbp
	.cfi_def_cfa_offset 16
	.cfi_offset 6, -16
	movq	%rsp, %rbp
	.seh_setframe	%rbp, 0
	.cfi_def_cfa_register 6
	subq	$32, %rsp
	.seh_stackalloc	32
	.seh_endprologue
	movq	%rcx, 16(%rbp)
	.loc 2 266 0
	movq	16(%rbp), %rax
	movq	(%rax), %rax
	movq	%rax, %rcx
	call	_ZL12lodepng_freePv
	.loc 2 267 0
	movq	16(%rbp), %rax
	movq	$0, (%rax)
	.loc 2 268 0
	nop
	addq	$32, %rsp
	popq	%rbp
	.cfi_restore 6
	.cfi_def_cfa 7, 8
	ret
	.cfi_endproc
.LFE1362:
	.seh_endproc
	.def	_ZL12alloc_stringPKc;	.scl	3;	.type	32;	.endef
	.seh_proc	_ZL12alloc_stringPKc
_ZL12alloc_stringPKc:
.LFB1363:
	.loc 2 271 0
	.cfi_startproc
	pushq	%rbp
	.seh_pushreg	%rbp
	.cfi_def_cfa_offset 16
	.cfi_offset 6, -16
	movq	%rsp, %rbp
	.seh_setframe	%rbp, 0
	.cfi_def_cfa_register 6
	subq	$64, %rsp
	.seh_stackalloc	64
	.seh_endprologue
	movq	%rcx, 16(%rbp)
	.loc 2 272 0
	movq	16(%rbp), %rcx
	call	strlen
	movq	%rax, -16(%rbp)
	.loc 2 273 0
	movq	-16(%rbp), %rax
	addq	$1, %rax
	movq	%rax, %rcx
	call	_ZL14lodepng_mallocy
	movq	%rax, -24(%rbp)
.LBB8:
	.loc 2 274 0
	cmpq	$0, -24(%rbp)
	je	.L47
.LBB9:
	.loc 2 276 0
	movq	$0, -8(%rbp)
.L49:
	.loc 2 276 0 is_stmt 0 discriminator 3
	movq	-8(%rbp), %rax
	cmpq	-16(%rbp), %rax
	je	.L48
	.loc 2 277 0 is_stmt 1 discriminator 2
	movq	16(%rbp), %rdx
	movq	-8(%rbp), %rax
	addq	%rdx, %rax
	movq	-24(%rbp), %rcx
	movq	-8(%rbp), %rdx
	addq	%rcx, %rdx
	movzbl	(%rax), %eax
	movb	%al, (%rdx)
	.loc 2 276 0 discriminator 2
	addq	$1, -8(%rbp)
	jmp	.L49
.L48:
	.loc 2 279 0
	movq	-24(%rbp), %rdx
	movq	-8(%rbp), %rax
	addq	%rdx, %rax
	movb	$0, (%rax)
.L47:
.LBE9:
.LBE8:
	.loc 2 281 0
	movq	-24(%rbp), %rax
	.loc 2 282 0
	addq	$64, %rsp
	popq	%rbp
	.cfi_restore 6
	.cfi_def_cfa 7, 8
	ret
	.cfi_endproc
.LFE1363:
	.seh_endproc
	.globl	_Z20lodepng_read32bitIntPKh
	.def	_Z20lodepng_read32bitIntPKh;	.scl	2;	.type	32;	.endef
	.seh_proc	_Z20lodepng_read32bitIntPKh
_Z20lodepng_read32bitIntPKh:
.LFB1364:
	.loc 2 288 0
	.cfi_startproc
	pushq	%rbp
	.seh_pushreg	%rbp
	.cfi_def_cfa_offset 16
	.cfi_offset 6, -16
	movq	%rsp, %rbp
	.seh_setframe	%rbp, 0
	.cfi_def_cfa_register 6
	.seh_endprologue
	movq	%rcx, 16(%rbp)
	.loc 2 289 0
	movq	16(%rbp), %rax
	movzbl	(%rax), %eax
	movzbl	%al, %eax
	sall	$24, %eax
	movl	%eax, %edx
	movq	16(%rbp), %rax
	addq	$1, %rax
	movzbl	(%rax), %eax
	movzbl	%al, %eax
	sall	$16, %eax
	orl	%eax, %edx
	movq	16(%rbp), %rax
	addq	$2, %rax
	movzbl	(%rax), %eax
	movzbl	%al, %eax
	sall	$8, %eax
	orl	%eax, %edx
	movq	16(%rbp), %rax
	addq	$3, %rax
	movzbl	(%rax), %eax
	movzbl	%al, %eax
	orl	%edx, %eax
	.loc 2 290 0
	popq	%rbp
	.cfi_restore 6
	.cfi_def_cfa 7, 8
	ret
	.cfi_endproc
.LFE1364:
	.seh_endproc
	.def	_ZL19lodepng_set32bitIntPhj;	.scl	3;	.type	32;	.endef
	.seh_proc	_ZL19lodepng_set32bitIntPhj
_ZL19lodepng_set32bitIntPhj:
.LFB1365:
	.loc 2 294 0
	.cfi_startproc
	pushq	%rbp
	.seh_pushreg	%rbp
	.cfi_def_cfa_offset 16
	.cfi_offset 6, -16
	movq	%rsp, %rbp
	.seh_setframe	%rbp, 0
	.cfi_def_cfa_register 6
	.seh_endprologue
	movq	%rcx, 16(%rbp)
	movl	%edx, 24(%rbp)
	.loc 2 295 0
	movl	24(%rbp), %eax
	shrl	$24, %eax
	movl	%eax, %edx
	movq	16(%rbp), %rax
	movb	%dl, (%rax)
	.loc 2 296 0
	movl	24(%rbp), %eax
	shrl	$16, %eax
	movl	%eax, %edx
	movq	16(%rbp), %rax
	addq	$1, %rax
	movb	%dl, (%rax)
	.loc 2 297 0
	movl	24(%rbp), %eax
	shrl	$8, %eax
	movl	%eax, %edx
	movq	16(%rbp), %rax
	addq	$2, %rax
	movb	%dl, (%rax)
	.loc 2 298 0
	movl	24(%rbp), %edx
	movq	16(%rbp), %rax
	addq	$3, %rax
	movb	%dl, (%rax)
	.loc 2 299 0
	nop
	popq	%rbp
	.cfi_restore 6
	.cfi_def_cfa 7, 8
	ret
	.cfi_endproc
.LFE1365:
	.seh_endproc
	.def	_ZL19lodepng_add32bitIntP8ucvectorj;	.scl	3;	.type	32;	.endef
	.seh_proc	_ZL19lodepng_add32bitIntP8ucvectorj
_ZL19lodepng_add32bitIntP8ucvectorj:
.LFB1366:
	.loc 2 303 0
	.cfi_startproc
	pushq	%rbp
	.seh_pushreg	%rbp
	.cfi_def_cfa_offset 16
	.cfi_offset 6, -16
	movq	%rsp, %rbp
	.seh_setframe	%rbp, 0
	.cfi_def_cfa_register 6
	subq	$32, %rsp
	.seh_stackalloc	32
	.seh_endprologue
	movq	%rcx, 16(%rbp)
	movl	%edx, 24(%rbp)
	.loc 2 304 0
	movq	16(%rbp), %rax
	movq	8(%rax), %rax
	addq	$4, %rax
	movq	%rax, %rdx
	movq	16(%rbp), %rcx
	call	_ZL15ucvector_resizeP8ucvectory
	.loc 2 305 0
	movq	16(%rbp), %rax
	movq	(%rax), %rdx
	movq	16(%rbp), %rax
	movq	8(%rax), %rax
	subq	$4, %rax
	leaq	(%rdx,%rax), %rcx
	movl	24(%rbp), %eax
	movl	%eax, %edx
	call	_ZL19lodepng_set32bitIntPhj
	.loc 2 306 0
	nop
	addq	$32, %rsp
	popq	%rbp
	.cfi_restore 6
	.cfi_def_cfa 7, 8
	ret
	.cfi_endproc
.LFE1366:
	.seh_endproc
	.section .rdata,"dr"
.LC1:
	.ascii "rb\0"
	.text
	.def	_ZL16lodepng_filesizePKc;	.scl	3;	.type	32;	.endef
	.seh_proc	_ZL16lodepng_filesizePKc
_ZL16lodepng_filesizePKc:
.LFB1367:
	.loc 2 316 0
	.cfi_startproc
	pushq	%rbp
	.seh_pushreg	%rbp
	.cfi_def_cfa_offset 16
	.cfi_offset 6, -16
	movq	%rsp, %rbp
	.seh_setframe	%rbp, 0
	.cfi_def_cfa_register 6
	subq	$48, %rsp
	.seh_stackalloc	48
	.seh_endprologue
	movq	%rcx, 16(%rbp)
	.loc 2 319 0
	leaq	.LC1(%rip), %rdx
	movq	16(%rbp), %rcx
	call	fopen
	movq	%rax, -16(%rbp)
	.loc 2 320 0
	cmpq	$0, -16(%rbp)
	jne	.L56
	.loc 2 320 0 is_stmt 0 discriminator 1
	movl	$-1, %eax
	jmp	.L57
.L56:
	.loc 2 322 0 is_stmt 1
	movq	-16(%rbp), %rax
	movl	$2, %r8d
	movl	$0, %edx
	movq	%rax, %rcx
	call	fseek
	testl	%eax, %eax
	setne	%al
	testb	%al, %al
	je	.L58
	.loc 2 323 0
	movq	-16(%rbp), %rax
	movq	%rax, %rcx
	call	fclose
	.loc 2 324 0
	movl	$-1, %eax
	jmp	.L57
.L58:
	.loc 2 327 0
	movq	-16(%rbp), %rax
	movq	%rax, %rcx
	call	ftell
	movl	%eax, -4(%rbp)
	.loc 2 329 0
	cmpl	$2147483647, -4(%rbp)
	jne	.L59
	.loc 2 329 0 is_stmt 0 discriminator 1
	movl	$-1, -4(%rbp)
.L59:
	.loc 2 331 0 is_stmt 1
	movq	-16(%rbp), %rax
	movq	%rax, %rcx
	call	fclose
	.loc 2 332 0
	movl	-4(%rbp), %eax
.L57:
	.loc 2 333 0
	addq	$48, %rsp
	popq	%rbp
	.cfi_restore 6
	.cfi_def_cfa 7, 8
	ret
	.cfi_endproc
.LFE1367:
	.seh_endproc
	.def	_ZL19lodepng_buffer_filePhyPKc;	.scl	3;	.type	32;	.endef
	.seh_proc	_ZL19lodepng_buffer_filePhyPKc
_ZL19lodepng_buffer_filePhyPKc:
.LFB1368:
	.loc 2 336 0
	.cfi_startproc
	pushq	%rbp
	.seh_pushreg	%rbp
	.cfi_def_cfa_offset 16
	.cfi_offset 6, -16
	movq	%rsp, %rbp
	.seh_setframe	%rbp, 0
	.cfi_def_cfa_register 6
	subq	$48, %rsp
	.seh_stackalloc	48
	.seh_endprologue
	movq	%rcx, 16(%rbp)
	movq	%rdx, 24(%rbp)
	movq	%r8, 32(%rbp)
	.loc 2 339 0
	movq	32(%rbp), %rax
	leaq	.LC1(%rip), %rdx
	movq	%rax, %rcx
	call	fopen
	movq	%rax, -8(%rbp)
	.loc 2 340 0
	cmpq	$0, -8(%rbp)
	jne	.L61
	.loc 2 340 0 is_stmt 0 discriminator 1
	movl	$78, %eax
	jmp	.L62
.L61:
	.loc 2 342 0 is_stmt 1
	movq	-8(%rbp), %rdx
	movq	24(%rbp), %rax
	movq	%rdx, %r9
	movq	%rax, %r8
	movl	$1, %edx
	movq	16(%rbp), %rcx
	call	fread
	movq	%rax, -16(%rbp)
	.loc 2 343 0
	movq	-8(%rbp), %rax
	movq	%rax, %rcx
	call	fclose
	.loc 2 345 0
	movq	-16(%rbp), %rax
	cmpq	24(%rbp), %rax
	je	.L63
	.loc 2 345 0 is_stmt 0 discriminator 1
	movl	$78, %eax
	jmp	.L62
.L63:
	.loc 2 346 0 is_stmt 1
	movl	$0, %eax
.L62:
	.loc 2 347 0
	addq	$48, %rsp
	popq	%rbp
	.cfi_restore 6
	.cfi_def_cfa 7, 8
	ret
	.cfi_endproc
.LFE1368:
	.seh_endproc
	.globl	_Z17lodepng_load_filePPhPyPKc
	.def	_Z17lodepng_load_filePPhPyPKc;	.scl	2;	.type	32;	.endef
	.seh_proc	_Z17lodepng_load_filePPhPyPKc
_Z17lodepng_load_filePPhPyPKc:
.LFB1369:
	.loc 2 349 0
	.cfi_startproc
	pushq	%rbp
	.seh_pushreg	%rbp
	.cfi_def_cfa_offset 16
	.cfi_offset 6, -16
	movq	%rsp, %rbp
	.seh_setframe	%rbp, 0
	.cfi_def_cfa_register 6
	subq	$48, %rsp
	.seh_stackalloc	48
	.seh_endprologue
	movq	%rcx, 16(%rbp)
	movq	%rdx, 24(%rbp)
	movq	%r8, 32(%rbp)
	.loc 2 350 0
	movq	32(%rbp), %rax
	movq	%rax, %rcx
	call	_ZL16lodepng_filesizePKc
	movl	%eax, -4(%rbp)
	.loc 2 351 0
	cmpl	$0, -4(%rbp)
	jns	.L65
	.loc 2 351 0 is_stmt 0 discriminator 1
	movl	$78, %eax
	jmp	.L66
.L65:
	.loc 2 352 0 is_stmt 1
	movl	-4(%rbp), %eax
	movslq	%eax, %rdx
	movq	24(%rbp), %rax
	movq	%rdx, (%rax)
	.loc 2 354 0
	movl	-4(%rbp), %eax
	cltq
	movq	%rax, %rcx
	call	_ZL14lodepng_mallocy
	movq	%rax, %rdx
	movq	16(%rbp), %rax
	movq	%rdx, (%rax)
	.loc 2 355 0
	movq	16(%rbp), %rax
	movq	(%rax), %rax
	testq	%rax, %rax
	jne	.L67
	.loc 2 355 0 is_stmt 0 discriminator 1
	cmpl	$0, -4(%rbp)
	jle	.L67
	.loc 2 355 0 discriminator 2
	movl	$83, %eax
	jmp	.L66
.L67:
	.loc 2 357 0 is_stmt 1
	movl	-4(%rbp), %eax
	movslq	%eax, %rdx
	movq	16(%rbp), %rax
	movq	(%rax), %rax
	movq	32(%rbp), %rcx
	movq	%rcx, %r8
	movq	%rax, %rcx
	call	_ZL19lodepng_buffer_filePhyPKc
.L66:
	.loc 2 358 0
	addq	$48, %rsp
	popq	%rbp
	.cfi_restore 6
	.cfi_def_cfa 7, 8
	ret
	.cfi_endproc
.LFE1369:
	.seh_endproc
	.section .rdata,"dr"
.LC2:
	.ascii "wb\0"
	.text
	.globl	_Z17lodepng_save_filePKhyPKc
	.def	_Z17lodepng_save_filePKhyPKc;	.scl	2;	.type	32;	.endef
	.seh_proc	_Z17lodepng_save_filePKhyPKc
_Z17lodepng_save_filePKhyPKc:
.LFB1370:
	.loc 2 361 0
	.cfi_startproc
	pushq	%rbp
	.seh_pushreg	%rbp
	.cfi_def_cfa_offset 16
	.cfi_offset 6, -16
	movq	%rsp, %rbp
	.seh_setframe	%rbp, 0
	.cfi_def_cfa_register 6
	subq	$48, %rsp
	.seh_stackalloc	48
	.seh_endprologue
	movq	%rcx, 16(%rbp)
	movq	%rdx, 24(%rbp)
	movq	%r8, 32(%rbp)
	.loc 2 363 0
	movq	32(%rbp), %rax
	leaq	.LC2(%rip), %rdx
	movq	%rax, %rcx
	call	fopen
	movq	%rax, -8(%rbp)
	.loc 2 364 0
	cmpq	$0, -8(%rbp)
	jne	.L69
	.loc 2 364 0 is_stmt 0 discriminator 1
	movl	$79, %eax
	jmp	.L70
.L69:
	.loc 2 365 0 is_stmt 1
	movq	-8(%rbp), %rdx
	movq	24(%rbp), %rax
	movq	%rdx, %r9
	movq	%rax, %r8
	movl	$1, %edx
	movq	16(%rbp), %rcx
	call	fwrite
	.loc 2 366 0
	movq	-8(%rbp), %rax
	movq	%rax, %rcx
	call	fclose
	.loc 2 367 0
	movl	$0, %eax
.L70:
	.loc 2 368 0
	addq	$48, %rsp
	popq	%rbp
	.cfi_restore 6
	.cfi_def_cfa 7, 8
	ret
	.cfi_endproc
.LFE1370:
	.seh_endproc
	.def	_ZL15addBitsToStreamPyP8ucvectorjy;	.scl	3;	.type	32;	.endef
	.seh_proc	_ZL15addBitsToStreamPyP8ucvectorjy
_ZL15addBitsToStreamPyP8ucvectorjy:
.LFB1371:
	.loc 2 389 0
	.cfi_startproc
	pushq	%rbp
	.seh_pushreg	%rbp
	.cfi_def_cfa_offset 16
	.cfi_offset 6, -16
	movq	%rsp, %rbp
	.seh_setframe	%rbp, 0
	.cfi_def_cfa_register 6
	subq	$48, %rsp
	.seh_stackalloc	48
	.seh_endprologue
	movq	%rcx, 16(%rbp)
	movq	%rdx, 24(%rbp)
	movl	%r8d, 32(%rbp)
	movq	%r9, 40(%rbp)
	.loc 2 391 0
	movq	$0, -8(%rbp)
.L74:
	.loc 2 391 0 is_stmt 0 discriminator 6
	movq	-8(%rbp), %rax
	cmpq	40(%rbp), %rax
	je	.L75
	.loc 2 391 0 discriminator 2
	movq	16(%rbp), %rax
	movq	(%rax), %rax
	andl	$7, %eax
	testq	%rax, %rax
	jne	.L73
	.loc 2 391 0 discriminator 3
	movq	24(%rbp), %rax
	movl	$0, %edx
	movq	%rax, %rcx
	call	_ZL18ucvector_push_backP8ucvectorh
.L73:
	.loc 2 391 0 discriminator 5
	movq	24(%rbp), %rax
	movq	(%rax), %rdx
	movq	24(%rbp), %rax
	movq	8(%rax), %rax
	subq	$1, %rax
	addq	%rdx, %rax
	movzbl	(%rax), %eax
	movl	%eax, %r8d
	movq	-8(%rbp), %rax
	movl	%eax, %edx
	movl	32(%rbp), %eax
	movl	%edx, %ecx
	shrl	%cl, %eax
	movzbl	%al, %eax
	andl	$1, %eax
	movl	%eax, %edx
	movq	16(%rbp), %rax
	movq	(%rax), %rax
	andl	$7, %eax
	movl	%eax, %ecx
	sall	%cl, %edx
	movl	%edx, %eax
	movl	%r8d, %ecx
	orl	%eax, %ecx
	movq	24(%rbp), %rax
	movq	(%rax), %rdx
	movq	24(%rbp), %rax
	movq	8(%rax), %rax
	subq	$1, %rax
	addq	%rdx, %rax
	movl	%ecx, %edx
	movb	%dl, (%rax)
	movq	16(%rbp), %rax
	movq	(%rax), %rax
	leaq	1(%rax), %rdx
	movq	16(%rbp), %rax
	movq	%rdx, (%rax)
	addq	$1, -8(%rbp)
	jmp	.L74
.L75:
	.loc 2 392 0 is_stmt 1
	nop
	addq	$48, %rsp
	popq	%rbp
	.cfi_restore 6
	.cfi_def_cfa 7, 8
	ret
	.cfi_endproc
.LFE1371:
	.seh_endproc
	.def	_ZL23addBitsToStreamReversedPyP8ucvectorjy;	.scl	3;	.type	32;	.endef
	.seh_proc	_ZL23addBitsToStreamReversedPyP8ucvectorjy
_ZL23addBitsToStreamReversedPyP8ucvectorjy:
.LFB1372:
	.loc 2 394 0
	.cfi_startproc
	pushq	%rbp
	.seh_pushreg	%rbp
	.cfi_def_cfa_offset 16
	.cfi_offset 6, -16
	movq	%rsp, %rbp
	.seh_setframe	%rbp, 0
	.cfi_def_cfa_register 6
	subq	$48, %rsp
	.seh_stackalloc	48
	.seh_endprologue
	movq	%rcx, 16(%rbp)
	movq	%rdx, 24(%rbp)
	movl	%r8d, 32(%rbp)
	movq	%r9, 40(%rbp)
	.loc 2 396 0
	movq	$0, -8(%rbp)
.L79:
	.loc 2 396 0 is_stmt 0 discriminator 6
	movq	-8(%rbp), %rax
	cmpq	40(%rbp), %rax
	je	.L80
	.loc 2 396 0 discriminator 2
	movq	16(%rbp), %rax
	movq	(%rax), %rax
	andl	$7, %eax
	testq	%rax, %rax
	jne	.L78
	.loc 2 396 0 discriminator 3
	movq	24(%rbp), %rax
	movl	$0, %edx
	movq	%rax, %rcx
	call	_ZL18ucvector_push_backP8ucvectorh
.L78:
	.loc 2 396 0 discriminator 5
	movq	24(%rbp), %rax
	movq	(%rax), %rdx
	movq	24(%rbp), %rax
	movq	8(%rax), %rax
	subq	$1, %rax
	addq	%rdx, %rax
	movzbl	(%rax), %eax
	movl	%eax, %r8d
	movq	40(%rbp), %rax
	movl	%eax, %edx
	movq	-8(%rbp), %rax
	subl	%eax, %edx
	movl	%edx, %eax
	subl	$1, %eax
	movl	32(%rbp), %edx
	movl	%eax, %ecx
	shrl	%cl, %edx
	movl	%edx, %eax
	movzbl	%al, %eax
	andl	$1, %eax
	movl	%eax, %edx
	movq	16(%rbp), %rax
	movq	(%rax), %rax
	andl	$7, %eax
	movl	%eax, %ecx
	sall	%cl, %edx
	movl	%edx, %eax
	movl	%r8d, %ecx
	orl	%eax, %ecx
	movq	24(%rbp), %rax
	movq	(%rax), %rdx
	movq	24(%rbp), %rax
	movq	8(%rax), %rax
	subq	$1, %rax
	addq	%rdx, %rax
	movl	%ecx, %edx
	movb	%dl, (%rax)
	movq	16(%rbp), %rax
	movq	(%rax), %rax
	leaq	1(%rax), %rdx
	movq	16(%rbp), %rax
	movq	%rdx, (%rax)
	addq	$1, -8(%rbp)
	jmp	.L79
.L80:
	.loc 2 397 0 is_stmt 1
	nop
	addq	$48, %rsp
	popq	%rbp
	.cfi_restore 6
	.cfi_def_cfa 7, 8
	ret
	.cfi_endproc
.LFE1372:
	.seh_endproc
	.def	_ZL17readBitFromStreamPyPKh;	.scl	3;	.type	32;	.endef
	.seh_proc	_ZL17readBitFromStreamPyPKh
_ZL17readBitFromStreamPyPKh:
.LFB1373:
	.loc 2 404 0
	.cfi_startproc
	pushq	%rbp
	.seh_pushreg	%rbp
	.cfi_def_cfa_offset 16
	.cfi_offset 6, -16
	movq	%rsp, %rbp
	.seh_setframe	%rbp, 0
	.cfi_def_cfa_register 6
	subq	$16, %rsp
	.seh_stackalloc	16
	.seh_endprologue
	movq	%rcx, 16(%rbp)
	movq	%rdx, 24(%rbp)
	.loc 2 405 0
	movq	16(%rbp), %rax
	movq	(%rax), %rax
	shrq	$3, %rax
	movq	%rax, %rdx
	movq	24(%rbp), %rax
	addq	%rdx, %rax
	movzbl	(%rax), %eax
	movzbl	%al, %edx
	movq	16(%rbp), %rax
	movq	(%rax), %rax
	andl	$7, %eax
	movl	%eax, %ecx
	sarl	%cl, %edx
	movl	%edx, %eax
	andl	$1, %eax
	movb	%al, -1(%rbp)
	.loc 2 406 0
	movq	16(%rbp), %rax
	movq	(%rax), %rax
	leaq	1(%rax), %rdx
	movq	16(%rbp), %rax
	movq	%rdx, (%rax)
	.loc 2 407 0
	movzbl	-1(%rbp), %eax
	.loc 2 408 0
	addq	$16, %rsp
	popq	%rbp
	.cfi_restore 6
	.cfi_def_cfa 7, 8
	ret
	.cfi_endproc
.LFE1373:
	.seh_endproc
	.def	_ZL18readBitsFromStreamPyPKhy;	.scl	3;	.type	32;	.endef
	.seh_proc	_ZL18readBitsFromStreamPyPKhy
_ZL18readBitsFromStreamPyPKhy:
.LFB1374:
	.loc 2 410 0
	.cfi_startproc
	pushq	%rbp
	.seh_pushreg	%rbp
	.cfi_def_cfa_offset 16
	.cfi_offset 6, -16
	movq	%rsp, %rbp
	.seh_setframe	%rbp, 0
	.cfi_def_cfa_register 6
	subq	$16, %rsp
	.seh_stackalloc	16
	.seh_endprologue
	movq	%rcx, 16(%rbp)
	movq	%rdx, 24(%rbp)
	movq	%r8, 32(%rbp)
	.loc 2 411 0
	movl	$0, -4(%rbp)
	.loc 2 412 0
	movl	$0, -8(%rbp)
.L85:
	.loc 2 412 0 is_stmt 0 discriminator 3
	movl	-8(%rbp), %eax
	cmpq	%rax, 32(%rbp)
	je	.L84
	.loc 2 413 0 is_stmt 1 discriminator 2
	movq	16(%rbp), %rax
	movq	(%rax), %rax
	shrq	$3, %rax
	movq	%rax, %rdx
	movq	24(%rbp), %rax
	addq	%rdx, %rax
	movzbl	(%rax), %eax
	movzbl	%al, %edx
	movq	16(%rbp), %rax
	movq	(%rax), %rax
	andl	$7, %eax
	movl	%eax, %ecx
	sarl	%cl, %edx
	movl	%edx, %eax
	andl	$1, %eax
	movl	%eax, %edx
	movl	-8(%rbp), %eax
	movl	%eax, %ecx
	sall	%cl, %edx
	movl	%edx, %eax
	addl	%eax, -4(%rbp)
	.loc 2 414 0 discriminator 2
	movq	16(%rbp), %rax
	movq	(%rax), %rax
	leaq	1(%rax), %rdx
	movq	16(%rbp), %rax
	movq	%rdx, (%rax)
	.loc 2 412 0 discriminator 2
	addl	$1, -8(%rbp)
	jmp	.L85
.L84:
	.loc 2 416 0
	movl	-4(%rbp), %eax
	.loc 2 417 0
	addq	$16, %rsp
	popq	%rbp
	.cfi_restore 6
	.cfi_def_cfa 7, 8
	ret
	.cfi_endproc
.LFE1374:
	.seh_endproc
	.section .rdata,"dr"
	.align 32
_ZL10LENGTHBASE:
	.long	3
	.long	4
	.long	5
	.long	6
	.long	7
	.long	8
	.long	9
	.long	10
	.long	11
	.long	13
	.long	15
	.long	17
	.long	19
	.long	23
	.long	27
	.long	31
	.long	35
	.long	43
	.long	51
	.long	59
	.long	67
	.long	83
	.long	99
	.long	115
	.long	131
	.long	163
	.long	195
	.long	227
	.long	258
	.align 32
_ZL11LENGTHEXTRA:
	.long	0
	.long	0
	.long	0
	.long	0
	.long	0
	.long	0
	.long	0
	.long	0
	.long	1
	.long	1
	.long	1
	.long	1
	.long	2
	.long	2
	.long	2
	.long	2
	.long	3
	.long	3
	.long	3
	.long	3
	.long	4
	.long	4
	.long	4
	.long	4
	.long	5
	.long	5
	.long	5
	.long	5
	.long	0
	.align 32
_ZL12DISTANCEBASE:
	.long	1
	.long	2
	.long	3
	.long	4
	.long	5
	.long	7
	.long	9
	.long	13
	.long	17
	.long	25
	.long	33
	.long	49
	.long	65
	.long	97
	.long	129
	.long	193
	.long	257
	.long	385
	.long	513
	.long	769
	.long	1025
	.long	1537
	.long	2049
	.long	3073
	.long	4097
	.long	6145
	.long	8193
	.long	12289
	.long	16385
	.long	24577
	.align 32
_ZL13DISTANCEEXTRA:
	.long	0
	.long	0
	.long	0
	.long	0
	.long	1
	.long	1
	.long	2
	.long	2
	.long	3
	.long	3
	.long	4
	.long	4
	.long	5
	.long	5
	.long	6
	.long	6
	.long	7
	.long	7
	.long	8
	.long	8
	.long	9
	.long	9
	.long	10
	.long	10
	.long	11
	.long	11
	.long	12
	.long	12
	.long	13
	.long	13
	.align 32
_ZL10CLCL_ORDER:
	.long	16
	.long	17
	.long	18
	.long	0
	.long	8
	.long	7
	.long	9
	.long	6
	.long	10
	.long	5
	.long	11
	.long	4
	.long	12
	.long	3
	.long	13
	.long	2
	.long	14
	.long	1
	.long	15
	.text
	.def	_ZL16HuffmanTree_initP11HuffmanTree;	.scl	3;	.type	32;	.endef
	.seh_proc	_ZL16HuffmanTree_initP11HuffmanTree
_ZL16HuffmanTree_initP11HuffmanTree:
.LFB1375:
	.loc 2 482 0
	.cfi_startproc
	pushq	%rbp
	.seh_pushreg	%rbp
	.cfi_def_cfa_offset 16
	.cfi_offset 6, -16
	movq	%rsp, %rbp
	.seh_setframe	%rbp, 0
	.cfi_def_cfa_register 6
	.seh_endprologue
	movq	%rcx, 16(%rbp)
	.loc 2 483 0
	movq	16(%rbp), %rax
	movq	$0, (%rax)
	.loc 2 484 0
	movq	16(%rbp), %rax
	movq	$0, 8(%rax)
	.loc 2 485 0
	movq	16(%rbp), %rax
	movq	$0, 16(%rax)
	.loc 2 486 0
	nop
	popq	%rbp
	.cfi_restore 6
	.cfi_def_cfa 7, 8
	ret
	.cfi_endproc
.LFE1375:
	.seh_endproc
	.def	_ZL19HuffmanTree_cleanupP11HuffmanTree;	.scl	3;	.type	32;	.endef
	.seh_proc	_ZL19HuffmanTree_cleanupP11HuffmanTree
_ZL19HuffmanTree_cleanupP11HuffmanTree:
.LFB1376:
	.loc 2 488 0
	.cfi_startproc
	pushq	%rbp
	.seh_pushreg	%rbp
	.cfi_def_cfa_offset 16
	.cfi_offset 6, -16
	movq	%rsp, %rbp
	.seh_setframe	%rbp, 0
	.cfi_def_cfa_register 6
	subq	$32, %rsp
	.seh_stackalloc	32
	.seh_endprologue
	movq	%rcx, 16(%rbp)
	.loc 2 489 0
	movq	16(%rbp), %rax
	movq	(%rax), %rax
	movq	%rax, %rcx
	call	_ZL12lodepng_freePv
	.loc 2 490 0
	movq	16(%rbp), %rax
	movq	8(%rax), %rax
	movq	%rax, %rcx
	call	_ZL12lodepng_freePv
	.loc 2 491 0
	movq	16(%rbp), %rax
	movq	16(%rax), %rax
	movq	%rax, %rcx
	call	_ZL12lodepng_freePv
	.loc 2 492 0
	nop
	addq	$32, %rsp
	popq	%rbp
	.cfi_restore 6
	.cfi_def_cfa 7, 8
	ret
	.cfi_endproc
.LFE1376:
	.seh_endproc
	.def	_ZL22HuffmanTree_make2DTreeP11HuffmanTree;	.scl	3;	.type	32;	.endef
	.seh_proc	_ZL22HuffmanTree_make2DTreeP11HuffmanTree
_ZL22HuffmanTree_make2DTreeP11HuffmanTree:
.LFB1377:
	.loc 2 495 0
	.cfi_startproc
	pushq	%rbp
	.seh_pushreg	%rbp
	.cfi_def_cfa_offset 16
	.cfi_offset 6, -16
	movq	%rsp, %rbp
	.seh_setframe	%rbp, 0
	.cfi_def_cfa_register 6
	subq	$64, %rsp
	.seh_stackalloc	64
	.seh_endprologue
	movq	%rcx, 16(%rbp)
	.loc 2 496 0
	movl	$0, -4(%rbp)
	.loc 2 497 0
	movl	$0, -8(%rbp)
	.loc 2 500 0
	movq	16(%rbp), %rax
	movl	28(%rax), %eax
	addl	%eax, %eax
	movl	%eax, %eax
	salq	$2, %rax
	movq	%rax, %rcx
	call	_ZL14lodepng_mallocy
	movq	%rax, %rdx
	movq	16(%rbp), %rax
	movq	%rdx, (%rax)
	.loc 2 501 0
	movq	16(%rbp), %rax
	movq	(%rax), %rax
	testq	%rax, %rax
	jne	.L90
	.loc 2 501 0 is_stmt 0 discriminator 1
	movl	$83, %eax
	jmp	.L91
.L90:
	.loc 2 513 0 is_stmt 1
	movl	$0, -12(%rbp)
.L93:
	.loc 2 513 0 is_stmt 0 discriminator 3
	movq	16(%rbp), %rax
	movl	28(%rax), %eax
	addl	%eax, %eax
	cmpl	%eax, -12(%rbp)
	jnb	.L92
	.loc 2 514 0 is_stmt 1 discriminator 2
	movq	16(%rbp), %rax
	movq	(%rax), %rax
	movl	-12(%rbp), %edx
	salq	$2, %rdx
	addq	%rdx, %rax
	movl	$32767, (%rax)
	.loc 2 513 0 discriminator 2
	addl	$1, -12(%rbp)
	jmp	.L93
.L92:
.LBB10:
	.loc 2 517 0
	movl	$0, -12(%rbp)
.L103:
	.loc 2 517 0 is_stmt 0 discriminator 1
	movq	16(%rbp), %rax
	movl	28(%rax), %eax
	cmpl	%eax, -12(%rbp)
	jnb	.L94
.LBB11:
.LBB12:
	.loc 2 518 0 is_stmt 1
	movl	$0, -16(%rbp)
.L102:
	.loc 2 518 0 is_stmt 0 discriminator 1
	movq	16(%rbp), %rax
	movq	16(%rax), %rax
	movl	-12(%rbp), %edx
	salq	$2, %rdx
	addq	%rdx, %rax
	movl	(%rax), %eax
	cmpl	%eax, -16(%rbp)
	je	.L95
.LBB13:
	.loc 2 519 0 is_stmt 1
	movq	16(%rbp), %rax
	movq	8(%rax), %rax
	movl	-12(%rbp), %edx
	salq	$2, %rdx
	addq	%rdx, %rax
	movl	(%rax), %edx
	movq	16(%rbp), %rax
	movq	16(%rax), %rax
	movl	-12(%rbp), %ecx
	salq	$2, %rcx
	addq	%rcx, %rax
	movl	(%rax), %eax
	subl	-16(%rbp), %eax
	subl	$1, %eax
	movl	%eax, %ecx
	shrl	%cl, %edx
	movl	%edx, %eax
	andl	$1, %eax
	movb	%al, -17(%rbp)
	.loc 2 521 0
	movl	-8(%rbp), %eax
	testl	%eax, %eax
	js	.L96
	.loc 2 521 0 is_stmt 0 discriminator 2
	movl	-8(%rbp), %eax
	leal	2(%rax), %edx
	movq	16(%rbp), %rax
	movl	28(%rax), %eax
	cmpl	%eax, %edx
	jbe	.L97
.L96:
	.loc 2 521 0 discriminator 3
	movl	$55, %eax
	jmp	.L91
.L97:
	.loc 2 522 0 is_stmt 1
	movq	16(%rbp), %rax
	movq	(%rax), %rax
	movl	-8(%rbp), %edx
	leal	(%rdx,%rdx), %ecx
	movzbl	-17(%rbp), %edx
	addl	%ecx, %edx
	movl	%edx, %edx
	salq	$2, %rdx
	addq	%rdx, %rax
	movl	(%rax), %eax
	cmpl	$32767, %eax
	jne	.L98
	.loc 2 523 0
	movl	-16(%rbp), %eax
	leal	1(%rax), %ecx
	movq	16(%rbp), %rax
	movq	16(%rax), %rax
	movl	-12(%rbp), %edx
	salq	$2, %rdx
	addq	%rdx, %rax
	movl	(%rax), %eax
	cmpl	%eax, %ecx
	jne	.L99
	.loc 2 524 0
	movq	16(%rbp), %rax
	movq	(%rax), %rax
	movl	-8(%rbp), %edx
	leal	(%rdx,%rdx), %ecx
	movzbl	-17(%rbp), %edx
	addl	%ecx, %edx
	movl	%edx, %edx
	salq	$2, %rdx
	addq	%rax, %rdx
	movl	-12(%rbp), %eax
	movl	%eax, (%rdx)
	.loc 2 525 0
	movl	$0, -8(%rbp)
	jmp	.L101
.L99:
	.loc 2 530 0
	addl	$1, -4(%rbp)
	.loc 2 532 0
	movq	16(%rbp), %rax
	movl	28(%rax), %ecx
	movq	16(%rbp), %rax
	movq	(%rax), %rax
	movl	-8(%rbp), %edx
	leal	(%rdx,%rdx), %r8d
	movzbl	-17(%rbp), %edx
	addl	%r8d, %edx
	movl	%edx, %edx
	salq	$2, %rdx
	addq	%rdx, %rax
	movl	-4(%rbp), %edx
	addl	%ecx, %edx
	movl	%edx, (%rax)
	.loc 2 533 0
	movl	-4(%rbp), %eax
	movl	%eax, -8(%rbp)
	jmp	.L101
.L98:
	.loc 2 536 0
	movq	16(%rbp), %rax
	movq	(%rax), %rax
	movl	-8(%rbp), %edx
	leal	(%rdx,%rdx), %ecx
	movzbl	-17(%rbp), %edx
	addl	%ecx, %edx
	movl	%edx, %edx
	salq	$2, %rdx
	addq	%rdx, %rax
	movl	(%rax), %edx
	movq	16(%rbp), %rax
	movl	28(%rax), %eax
	subl	%eax, %edx
	movl	%edx, %eax
	movl	%eax, -8(%rbp)
.L101:
.LBE13:
	.loc 2 518 0 discriminator 2
	addl	$1, -16(%rbp)
	jmp	.L102
.L95:
.LBE12:
.LBE11:
	.loc 2 517 0 discriminator 2
	addl	$1, -12(%rbp)
	jmp	.L103
.L94:
.LBE10:
	.loc 2 540 0
	movl	$0, -12(%rbp)
.L106:
	.loc 2 540 0 is_stmt 0 discriminator 1
	movq	16(%rbp), %rax
	movl	28(%rax), %eax
	addl	%eax, %eax
	cmpl	%eax, -12(%rbp)
	jnb	.L104
	.loc 2 541 0 is_stmt 1
	movq	16(%rbp), %rax
	movq	(%rax), %rax
	movl	-12(%rbp), %edx
	salq	$2, %rdx
	addq	%rdx, %rax
	movl	(%rax), %eax
	cmpl	$32767, %eax
	jne	.L105
	.loc 2 541 0 is_stmt 0 discriminator 1
	movq	16(%rbp), %rax
	movq	(%rax), %rax
	movl	-12(%rbp), %edx
	salq	$2, %rdx
	addq	%rdx, %rax
	movl	$0, (%rax)
.L105:
	.loc 2 540 0 is_stmt 1 discriminator 2
	addl	$1, -12(%rbp)
	jmp	.L106
.L104:
	.loc 2 544 0
	movl	$0, %eax
.L91:
	.loc 2 545 0
	addq	$64, %rsp
	popq	%rbp
	.cfi_restore 6
	.cfi_def_cfa 7, 8
	ret
	.cfi_endproc
.LFE1377:
	.seh_endproc
	.def	_ZL28HuffmanTree_makeFromLengths2P11HuffmanTree;	.scl	3;	.type	32;	.endef
	.seh_proc	_ZL28HuffmanTree_makeFromLengths2P11HuffmanTree
_ZL28HuffmanTree_makeFromLengths2P11HuffmanTree:
.LFB1378:
	.loc 2 552 0
	.cfi_startproc
	pushq	%rbp
	.seh_pushreg	%rbp
	.cfi_def_cfa_offset 16
	.cfi_offset 6, -16
	movq	%rsp, %rbp
	.seh_setframe	%rbp, 0
	.cfi_def_cfa_register 6
	subq	$112, %rsp
	.seh_stackalloc	112
	.seh_endprologue
	movq	%rcx, 16(%rbp)
	.loc 2 555 0
	movl	$0, -4(%rbp)
	.loc 2 558 0
	leaq	-48(%rbp), %rax
	movq	%rax, %rcx
	call	_ZL13uivector_initP8uivector
	.loc 2 559 0
	leaq	-80(%rbp), %rax
	movq	%rax, %rcx
	call	_ZL13uivector_initP8uivector
	.loc 2 561 0
	movq	16(%rbp), %rax
	movl	28(%rax), %eax
	movl	%eax, %eax
	salq	$2, %rax
	movq	%rax, %rcx
	call	_ZL14lodepng_mallocy
	movq	%rax, %rdx
	movq	16(%rbp), %rax
	movq	%rdx, 8(%rax)
	.loc 2 562 0
	movq	16(%rbp), %rax
	movq	8(%rax), %rax
	testq	%rax, %rax
	jne	.L108
	.loc 2 562 0 is_stmt 0 discriminator 1
	movl	$83, -4(%rbp)
.L108:
	.loc 2 564 0 is_stmt 1
	movq	16(%rbp), %rax
	movl	24(%rax), %eax
	addl	$1, %eax
	movl	%eax, %edx
	leaq	-48(%rbp), %rax
	movl	$0, %r8d
	movq	%rax, %rcx
	call	_ZL16uivector_resizevP8uivectoryj
	.loc 2 565 0
	testl	%eax, %eax
	je	.L109
	.loc 2 565 0 is_stmt 0 discriminator 2
	movq	16(%rbp), %rax
	movl	24(%rax), %eax
	addl	$1, %eax
	movl	%eax, %edx
	leaq	-80(%rbp), %rax
	movl	$0, %r8d
	movq	%rax, %rcx
	call	_ZL16uivector_resizevP8uivectoryj
	testl	%eax, %eax
	jne	.L110
.L109:
	.loc 2 565 0 discriminator 3
	movl	$1, %eax
	jmp	.L111
.L110:
	.loc 2 565 0 discriminator 4
	movl	$0, %eax
.L111:
	.loc 2 564 0 is_stmt 1 discriminator 6
	testb	%al, %al
	je	.L112
	.loc 2 566 0
	movl	$83, -4(%rbp)
.L112:
	.loc 2 568 0
	cmpl	$0, -4(%rbp)
	jne	.L113
	.loc 2 570 0
	movl	$0, -8(%rbp)
.L115:
	.loc 2 570 0 is_stmt 0 discriminator 3
	movq	16(%rbp), %rax
	movl	28(%rax), %eax
	cmpl	%eax, -8(%rbp)
	je	.L114
	.loc 2 570 0 discriminator 2
	movq	-48(%rbp), %rdx
	movq	16(%rbp), %rax
	movq	16(%rax), %rax
	movl	-8(%rbp), %ecx
	salq	$2, %rcx
	addq	%rcx, %rax
	movl	(%rax), %eax
	movl	%eax, %eax
	salq	$2, %rax
	addq	%rdx, %rax
	movl	(%rax), %edx
	addl	$1, %edx
	movl	%edx, (%rax)
	addl	$1, -8(%rbp)
	jmp	.L115
.L114:
	.loc 2 572 0 is_stmt 1
	movl	$1, -8(%rbp)
.L117:
	.loc 2 572 0 is_stmt 0 discriminator 3
	movq	16(%rbp), %rax
	movl	24(%rax), %eax
	cmpl	%eax, -8(%rbp)
	ja	.L116
	.loc 2 573 0 is_stmt 1 discriminator 2
	movq	-80(%rbp), %rax
	movl	-8(%rbp), %edx
	subl	$1, %edx
	movl	%edx, %edx
	salq	$2, %rdx
	addq	%rdx, %rax
	movl	(%rax), %edx
	movq	-48(%rbp), %rax
	movl	-8(%rbp), %ecx
	subl	$1, %ecx
	movl	%ecx, %ecx
	salq	$2, %rcx
	addq	%rcx, %rax
	movl	(%rax), %eax
	leal	(%rdx,%rax), %ecx
	movq	-80(%rbp), %rax
	movl	-8(%rbp), %edx
	salq	$2, %rdx
	addq	%rdx, %rax
	leal	(%rcx,%rcx), %edx
	movl	%edx, (%rax)
	.loc 2 572 0 discriminator 2
	addl	$1, -8(%rbp)
	jmp	.L117
.L116:
	.loc 2 576 0
	movl	$0, -12(%rbp)
.L119:
	.loc 2 576 0 is_stmt 0 discriminator 1
	movq	16(%rbp), %rax
	movl	28(%rax), %eax
	cmpl	%eax, -12(%rbp)
	je	.L113
	.loc 2 577 0 is_stmt 1
	movq	16(%rbp), %rax
	movq	16(%rax), %rax
	movl	-12(%rbp), %edx
	salq	$2, %rdx
	addq	%rdx, %rax
	movl	(%rax), %eax
	testl	%eax, %eax
	je	.L118
	.loc 2 577 0 is_stmt 0 discriminator 1
	movq	-80(%rbp), %rdx
	movq	16(%rbp), %rax
	movq	16(%rax), %rax
	movl	-12(%rbp), %ecx
	salq	$2, %rcx
	addq	%rcx, %rax
	movl	(%rax), %eax
	movl	%eax, %eax
	salq	$2, %rax
	addq	%rax, %rdx
	movl	(%rdx), %eax
	leal	1(%rax), %ecx
	movl	%ecx, (%rdx)
	movq	16(%rbp), %rdx
	movq	8(%rdx), %rdx
	movl	-12(%rbp), %ecx
	salq	$2, %rcx
	addq	%rcx, %rdx
	movl	%eax, (%rdx)
.L118:
	.loc 2 576 0 is_stmt 1 discriminator 2
	addl	$1, -12(%rbp)
	jmp	.L119
.L113:
	.loc 2 581 0
	leaq	-48(%rbp), %rax
	movq	%rax, %rcx
	call	_ZL16uivector_cleanupPv
	.loc 2 582 0
	leaq	-80(%rbp), %rax
	movq	%rax, %rcx
	call	_ZL16uivector_cleanupPv
	.loc 2 584 0
	cmpl	$0, -4(%rbp)
	jne	.L120
	.loc 2 584 0 is_stmt 0 discriminator 1
	movq	16(%rbp), %rcx
	call	_ZL22HuffmanTree_make2DTreeP11HuffmanTree
	jmp	.L122
.L120:
	.loc 2 585 0 is_stmt 1
	movl	-4(%rbp), %eax
.L122:
	.loc 2 586 0 discriminator 1
	addq	$112, %rsp
	popq	%rbp
	.cfi_restore 6
	.cfi_def_cfa 7, 8
	ret
	.cfi_endproc
.LFE1378:
	.seh_endproc
	.def	_ZL27HuffmanTree_makeFromLengthsP11HuffmanTreePKjyj;	.scl	3;	.type	32;	.endef
	.seh_proc	_ZL27HuffmanTree_makeFromLengthsP11HuffmanTreePKjyj
_ZL27HuffmanTree_makeFromLengthsP11HuffmanTreePKjyj:
.LFB1379:
	.loc 2 594 0
	.cfi_startproc
	pushq	%rbp
	.seh_pushreg	%rbp
	.cfi_def_cfa_offset 16
	.cfi_offset 6, -16
	movq	%rsp, %rbp
	.seh_setframe	%rbp, 0
	.cfi_def_cfa_register 6
	subq	$48, %rsp
	.seh_stackalloc	48
	.seh_endprologue
	movq	%rcx, 16(%rbp)
	movq	%rdx, 24(%rbp)
	movq	%r8, 32(%rbp)
	movl	%r9d, 40(%rbp)
	.loc 2 596 0
	movq	32(%rbp), %rax
	salq	$2, %rax
	movq	%rax, %rcx
	call	_ZL14lodepng_mallocy
	movq	%rax, %rdx
	movq	16(%rbp), %rax
	movq	%rdx, 16(%rax)
	.loc 2 597 0
	movq	16(%rbp), %rax
	movq	16(%rax), %rax
	testq	%rax, %rax
	jne	.L124
	.loc 2 597 0 is_stmt 0 discriminator 1
	movl	$83, %eax
	jmp	.L125
.L124:
	.loc 2 598 0 is_stmt 1
	movl	$0, -4(%rbp)
.L127:
	.loc 2 598 0 is_stmt 0 discriminator 3
	movl	-4(%rbp), %eax
	cmpq	%rax, 32(%rbp)
	je	.L126
	.loc 2 598 0 discriminator 2
	movl	-4(%rbp), %eax
	leaq	0(,%rax,4), %rdx
	movq	24(%rbp), %rax
	leaq	(%rdx,%rax), %rcx
	movq	16(%rbp), %rax
	movq	16(%rax), %rax
	movl	-4(%rbp), %edx
	salq	$2, %rdx
	addq	%rax, %rdx
	movl	(%rcx), %eax
	movl	%eax, (%rdx)
	addl	$1, -4(%rbp)
	jmp	.L127
.L126:
	.loc 2 599 0 is_stmt 1
	movq	32(%rbp), %rax
	movl	%eax, %edx
	movq	16(%rbp), %rax
	movl	%edx, 28(%rax)
	.loc 2 600 0
	movq	16(%rbp), %rax
	movl	40(%rbp), %edx
	movl	%edx, 24(%rax)
	.loc 2 601 0
	movq	16(%rbp), %rcx
	call	_ZL28HuffmanTree_makeFromLengths2P11HuffmanTree
.L125:
	.loc 2 602 0
	addq	$48, %rsp
	popq	%rbp
	.cfi_restore 6
	.cfi_def_cfa 7, 8
	ret
	.cfi_endproc
.LFE1379:
	.seh_endproc
	.def	_ZL14bpmnode_createP8BPMListsijP7BPMNode;	.scl	3;	.type	32;	.endef
	.seh_proc	_ZL14bpmnode_createP8BPMListsijP7BPMNode
_ZL14bpmnode_createP8BPMListsijP7BPMNode:
.LFB1380:
	.loc 2 632 0
	.cfi_startproc
	pushq	%rbp
	.seh_pushreg	%rbp
	.cfi_def_cfa_offset 16
	.cfi_offset 6, -16
	movq	%rsp, %rbp
	.seh_setframe	%rbp, 0
	.cfi_def_cfa_register 6
	subq	$32, %rsp
	.seh_stackalloc	32
	.seh_endprologue
	movq	%rcx, 16(%rbp)
	movl	%edx, 24(%rbp)
	movl	%r8d, 32(%rbp)
	movq	%r9, 40(%rbp)
.LBB14:
	.loc 2 637 0
	movq	16(%rbp), %rax
	movl	20(%rax), %edx
	movq	16(%rbp), %rax
	movl	16(%rax), %eax
	cmpl	%eax, %edx
	jb	.L129
.LBB15:
	.loc 2 639 0
	movl	$0, -4(%rbp)
.L131:
	.loc 2 639 0 is_stmt 0 discriminator 3
	movq	16(%rbp), %rax
	movl	(%rax), %eax
	cmpl	%eax, -4(%rbp)
	je	.L130
	.loc 2 639 0 discriminator 2
	movq	16(%rbp), %rax
	movq	8(%rax), %rcx
	movl	-4(%rbp), %edx
	movq	%rdx, %rax
	addq	%rax, %rax
	addq	%rdx, %rax
	salq	$3, %rax
	addq	%rcx, %rax
	movl	$0, 16(%rax)
	addl	$1, -4(%rbp)
	jmp	.L131
.L130:
.LBB16:
	.loc 2 640 0 is_stmt 1
	movl	$0, -4(%rbp)
.L137:
	.loc 2 640 0 is_stmt 0 discriminator 1
	movq	16(%rbp), %rax
	movl	32(%rax), %eax
	cmpl	%eax, -4(%rbp)
	je	.L132
.LBB17:
	.loc 2 642 0 is_stmt 1
	movq	16(%rbp), %rax
	movq	40(%rax), %rax
	movl	-4(%rbp), %edx
	salq	$3, %rdx
	addq	%rdx, %rax
	movq	(%rax), %rax
	movq	%rax, -16(%rbp)
.L134:
	.loc 2 642 0 is_stmt 0 discriminator 3
	cmpq	$0, -16(%rbp)
	je	.L133
	.loc 2 642 0 discriminator 2
	movq	-16(%rbp), %rax
	movl	$1, 16(%rax)
	movq	-16(%rbp), %rax
	movq	8(%rax), %rax
	movq	%rax, -16(%rbp)
	jmp	.L134
.L133:
	.loc 2 643 0 is_stmt 1
	movq	16(%rbp), %rax
	movq	48(%rax), %rax
	movl	-4(%rbp), %edx
	salq	$3, %rdx
	addq	%rdx, %rax
	movq	(%rax), %rax
	movq	%rax, -16(%rbp)
.L136:
	.loc 2 643 0 is_stmt 0 discriminator 3
	cmpq	$0, -16(%rbp)
	je	.L135
	.loc 2 643 0 discriminator 2
	movq	-16(%rbp), %rax
	movl	$1, 16(%rax)
	movq	-16(%rbp), %rax
	movq	8(%rax), %rax
	movq	%rax, -16(%rbp)
	jmp	.L136
.L135:
.LBE17:
	.loc 2 640 0 is_stmt 1 discriminator 2
	addl	$1, -4(%rbp)
	jmp	.L137
.L132:
.LBE16:
	.loc 2 646 0
	movq	16(%rbp), %rax
	movl	$0, 16(%rax)
	.loc 2 647 0
	movl	$0, -4(%rbp)
.L140:
	.loc 2 647 0 is_stmt 0 discriminator 1
	movq	16(%rbp), %rax
	movl	(%rax), %eax
	cmpl	%eax, -4(%rbp)
	je	.L138
	.loc 2 648 0 is_stmt 1
	movq	16(%rbp), %rax
	movq	8(%rax), %rcx
	movl	-4(%rbp), %edx
	movq	%rdx, %rax
	addq	%rax, %rax
	addq	%rdx, %rax
	salq	$3, %rax
	addq	%rcx, %rax
	movl	16(%rax), %eax
	testl	%eax, %eax
	jne	.L139
	.loc 2 648 0 is_stmt 0 discriminator 1
	movq	16(%rbp), %rax
	movq	8(%rax), %r8
	movl	-4(%rbp), %edx
	movq	%rdx, %rax
	addq	%rax, %rax
	addq	%rdx, %rax
	salq	$3, %rax
	movq	%rax, %r10
	movq	16(%rbp), %rax
	movq	24(%rax), %r9
	movq	16(%rbp), %rax
	movl	16(%rax), %eax
	leal	1(%rax), %ecx
	movq	16(%rbp), %rdx
	movl	%ecx, 16(%rdx)
	movl	%eax, %eax
	salq	$3, %rax
	addq	%r9, %rax
	leaq	(%r8,%r10), %rdx
	movq	%rdx, (%rax)
.L139:
	.loc 2 647 0 is_stmt 1 discriminator 2
	addl	$1, -4(%rbp)
	jmp	.L140
.L138:
	.loc 2 650 0
	movq	16(%rbp), %rax
	movl	$0, 20(%rax)
.L129:
.LBE15:
.LBE14:
	.loc 2 653 0
	movq	16(%rbp), %rax
	movq	24(%rax), %r8
	movq	16(%rbp), %rax
	movl	20(%rax), %eax
	leal	1(%rax), %ecx
	movq	16(%rbp), %rdx
	movl	%ecx, 20(%rdx)
	movl	%eax, %eax
	salq	$3, %rax
	addq	%r8, %rax
	movq	(%rax), %rax
	movq	%rax, -24(%rbp)
	.loc 2 654 0
	movq	-24(%rbp), %rax
	movl	24(%rbp), %edx
	movl	%edx, (%rax)
	.loc 2 655 0
	movq	-24(%rbp), %rax
	movl	32(%rbp), %edx
	movl	%edx, 4(%rax)
	.loc 2 656 0
	movq	-24(%rbp), %rax
	movq	40(%rbp), %rdx
	movq	%rdx, 8(%rax)
	.loc 2 657 0
	movq	-24(%rbp), %rax
	.loc 2 658 0
	addq	$32, %rsp
	popq	%rbp
	.cfi_restore 6
	.cfi_def_cfa 7, 8
	ret
	.cfi_endproc
.LFE1380:
	.seh_endproc
	.def	_ZL12bpmnode_sortP7BPMNodey;	.scl	3;	.type	32;	.endef
	.seh_proc	_ZL12bpmnode_sortP7BPMNodey
_ZL12bpmnode_sortP7BPMNodey:
.LFB1381:
	.loc 2 661 0
	.cfi_startproc
	pushq	%rbp
	.seh_pushreg	%rbp
	.cfi_def_cfa_offset 16
	.cfi_offset 6, -16
	movq	%rsp, %rbp
	.seh_setframe	%rbp, 0
	.cfi_def_cfa_register 6
	addq	$-128, %rsp
	.seh_stackalloc	128
	.seh_endprologue
	movq	%rcx, 16(%rbp)
	movq	%rdx, 24(%rbp)
	.loc 2 662 0
	movq	24(%rbp), %rdx
	movq	%rdx, %rax
	addq	%rax, %rax
	addq	%rdx, %rax
	salq	$3, %rax
	movq	%rax, %rcx
	call	_ZL14lodepng_mallocy
	movq	%rax, -56(%rbp)
	.loc 2 663 0
	movq	$0, -16(%rbp)
.LBB18:
	.loc 2 664 0
	movq	$1, -8(%rbp)
.L155:
	.loc 2 664 0 is_stmt 0 discriminator 1
	movq	-8(%rbp), %rax
	cmpq	24(%rbp), %rax
	jnb	.L143
.LBB19:
	.loc 2 665 0 is_stmt 1
	movq	-16(%rbp), %rax
	andl	$1, %eax
	testq	%rax, %rax
	je	.L144
	.loc 2 665 0 is_stmt 0 discriminator 1
	movq	-56(%rbp), %rax
	jmp	.L145
.L144:
	.loc 2 665 0 discriminator 2
	movq	16(%rbp), %rax
.L145:
	.loc 2 665 0 discriminator 4
	movq	%rax, -64(%rbp)
	.loc 2 666 0 is_stmt 1 discriminator 4
	movq	-16(%rbp), %rax
	andl	$1, %eax
	testq	%rax, %rax
	je	.L146
	.loc 2 666 0 is_stmt 0 discriminator 1
	movq	16(%rbp), %rax
	jmp	.L147
.L146:
	.loc 2 666 0 discriminator 2
	movq	-56(%rbp), %rax
.L147:
	.loc 2 666 0 discriminator 4
	movq	%rax, -72(%rbp)
.LBB20:
	.loc 2 668 0 is_stmt 1 discriminator 4
	movq	$0, -24(%rbp)
.L154:
	.loc 2 668 0 is_stmt 0 discriminator 1
	movq	-24(%rbp), %rax
	cmpq	24(%rbp), %rax
	jnb	.L148
.LBB21:
	.loc 2 669 0 is_stmt 1
	movq	-24(%rbp), %rdx
	movq	-8(%rbp), %rax
	addq	%rdx, %rax
	cmpq	%rax, 24(%rbp)
	cmovbe	24(%rbp), %rax
	movq	%rax, -80(%rbp)
	.loc 2 670 0
	movq	-8(%rbp), %rax
	leaq	(%rax,%rax), %rdx
	movq	-24(%rbp), %rax
	addq	%rdx, %rax
	cmpq	%rax, 24(%rbp)
	cmovbe	24(%rbp), %rax
	movq	%rax, -88(%rbp)
	.loc 2 671 0
	movq	-24(%rbp), %rax
	movq	%rax, -32(%rbp)
	movq	-80(%rbp), %rax
	movq	%rax, -40(%rbp)
	.loc 2 672 0
	movq	-24(%rbp), %rax
	movq	%rax, -48(%rbp)
.L153:
	.loc 2 672 0 is_stmt 0 discriminator 1
	movq	-48(%rbp), %rax
	cmpq	-88(%rbp), %rax
	jnb	.L149
	.loc 2 673 0 is_stmt 1
	movq	-32(%rbp), %rax
	cmpq	-80(%rbp), %rax
	jnb	.L150
	.loc 2 673 0 is_stmt 0 discriminator 1
	movq	-40(%rbp), %rax
	cmpq	-88(%rbp), %rax
	jnb	.L151
	.loc 2 673 0 discriminator 3
	movq	-32(%rbp), %rdx
	movq	%rdx, %rax
	addq	%rax, %rax
	addq	%rdx, %rax
	salq	$3, %rax
	movq	%rax, %rdx
	movq	-64(%rbp), %rax
	addq	%rdx, %rax
	movl	(%rax), %ecx
	movq	-40(%rbp), %rdx
	movq	%rdx, %rax
	addq	%rax, %rax
	addq	%rdx, %rax
	salq	$3, %rax
	movq	%rax, %rdx
	movq	-64(%rbp), %rax
	addq	%rdx, %rax
	movl	(%rax), %eax
	cmpl	%eax, %ecx
	jg	.L150
.L151:
	.loc 2 673 0 discriminator 4
	movq	-32(%rbp), %rdx
	leaq	1(%rdx), %rax
	movq	%rax, -32(%rbp)
	movq	%rdx, %rax
	addq	%rax, %rax
	addq	%rdx, %rax
	salq	$3, %rax
	movq	%rax, %rdx
	movq	-64(%rbp), %rax
	leaq	(%rdx,%rax), %r8
	movq	-48(%rbp), %rdx
	movq	%rdx, %rax
	addq	%rax, %rax
	addq	%rdx, %rax
	salq	$3, %rax
	movq	%rax, %rdx
	movq	-72(%rbp), %rax
	leaq	(%rdx,%rax), %rcx
	movq	(%r8), %rax
	movq	8(%r8), %rdx
	movq	%rax, (%rcx)
	movq	%rdx, 8(%rcx)
	movq	16(%r8), %rax
	movq	%rax, 16(%rcx)
	jmp	.L152
.L150:
	.loc 2 674 0 is_stmt 1
	movq	-40(%rbp), %rdx
	leaq	1(%rdx), %rax
	movq	%rax, -40(%rbp)
	movq	%rdx, %rax
	addq	%rax, %rax
	addq	%rdx, %rax
	salq	$3, %rax
	movq	%rax, %rdx
	movq	-64(%rbp), %rax
	leaq	(%rdx,%rax), %r8
	movq	-48(%rbp), %rdx
	movq	%rdx, %rax
	addq	%rax, %rax
	addq	%rdx, %rax
	salq	$3, %rax
	movq	%rax, %rdx
	movq	-72(%rbp), %rax
	leaq	(%rdx,%rax), %rcx
	movq	(%r8), %rax
	movq	8(%r8), %rdx
	movq	%rax, (%rcx)
	movq	%rdx, 8(%rcx)
	movq	16(%r8), %rax
	movq	%rax, 16(%rcx)
.L152:
	.loc 2 672 0 discriminator 2
	addq	$1, -48(%rbp)
	jmp	.L153
.L149:
.LBE21:
	.loc 2 668 0 discriminator 2
	movq	-8(%rbp), %rax
	addq	%rax, %rax
	addq	%rax, -24(%rbp)
	jmp	.L154
.L148:
.LBE20:
	.loc 2 677 0 discriminator 2
	addq	$1, -16(%rbp)
.LBE19:
	.loc 2 664 0 discriminator 2
	salq	-8(%rbp)
	jmp	.L155
.L143:
.LBE18:
	.loc 2 679 0
	movq	-16(%rbp), %rax
	andl	$1, %eax
	testq	%rax, %rax
	je	.L156
	.loc 2 679 0 is_stmt 0 discriminator 1
	movq	24(%rbp), %rdx
	movq	%rdx, %rax
	addq	%rax, %rax
	addq	%rdx, %rax
	salq	$3, %rax
	movq	%rax, %rdx
	movq	-56(%rbp), %rax
	movq	%rdx, %r8
	movq	%rax, %rdx
	movq	16(%rbp), %rcx
	call	memcpy
.L156:
	.loc 2 680 0 is_stmt 1
	movq	-56(%rbp), %rax
	movq	%rax, %rcx
	call	_ZL12lodepng_freePv
	.loc 2 681 0
	nop
	subq	$-128, %rsp
	popq	%rbp
	.cfi_restore 6
	.cfi_def_cfa 7, 8
	ret
	.cfi_endproc
.LFE1381:
	.seh_endproc
	.def	_ZL10boundaryPMP8BPMListsP7BPMNodeyii;	.scl	3;	.type	32;	.endef
	.seh_proc	_ZL10boundaryPMP8BPMListsP7BPMNodeyii
_ZL10boundaryPMP8BPMListsP7BPMNodeyii:
.LFB1382:
	.loc 2 684 0
	.cfi_startproc
	pushq	%rbp
	.seh_pushreg	%rbp
	.cfi_def_cfa_offset 16
	.cfi_offset 6, -16
	pushq	%rbx
	.seh_pushreg	%rbx
	.cfi_def_cfa_offset 24
	.cfi_offset 3, -24
	subq	$72, %rsp
	.seh_stackalloc	72
	.cfi_def_cfa_offset 96
	leaq	128(%rsp), %rbp
	.seh_setframe	%rbp, 128
	.cfi_def_cfa 6, -32
	.seh_endprologue
	movq	%rcx, -32(%rbp)
	movq	%rdx, -24(%rbp)
	movq	%r8, -16(%rbp)
	movl	%r9d, -8(%rbp)
	.loc 2 685 0
	movq	-32(%rbp), %rax
	movq	48(%rax), %rax
	movl	-8(%rbp), %edx
	movslq	%edx, %rdx
	salq	$3, %rdx
	addq	%rdx, %rax
	movq	(%rax), %rax
	movl	4(%rax), %eax
	movl	%eax, -68(%rbp)
.LBB22:
	.loc 2 687 0
	cmpl	$0, -8(%rbp)
	jne	.L158
	.loc 2 688 0
	movl	-68(%rbp), %eax
	cmpq	%rax, -16(%rbp)
	jbe	.L162
	.loc 2 689 0
	movq	-32(%rbp), %rax
	movq	48(%rax), %rax
	movl	-8(%rbp), %edx
	movslq	%edx, %rdx
	salq	$3, %rdx
	leaq	(%rax,%rdx), %rcx
	movq	-32(%rbp), %rax
	movq	40(%rax), %rax
	movl	-8(%rbp), %edx
	movslq	%edx, %rdx
	salq	$3, %rdx
	addq	%rax, %rdx
	movq	(%rcx), %rax
	movq	%rax, (%rdx)
	.loc 2 690 0
	movl	-68(%rbp), %eax
	leal	1(%rax), %r8d
	movl	-68(%rbp), %edx
	movq	%rdx, %rax
	addq	%rax, %rax
	addq	%rdx, %rax
	salq	$3, %rax
	movq	%rax, %rdx
	movq	-24(%rbp), %rax
	addq	%rdx, %rax
	movl	(%rax), %eax
	movq	-32(%rbp), %rdx
	movq	48(%rdx), %rdx
	movl	-8(%rbp), %ecx
	movslq	%ecx, %rcx
	salq	$3, %rcx
	leaq	(%rdx,%rcx), %rbx
	movl	$0, %r9d
	movl	%eax, %edx
	movq	-32(%rbp), %rcx
	call	_ZL14bpmnode_createP8BPMListsijP7BPMNode
	movq	%rax, (%rbx)
	jmp	.L157
.L158:
.LBB23:
	.loc 2 694 0
	movq	-32(%rbp), %rax
	movq	40(%rax), %rax
	movl	-8(%rbp), %edx
	movslq	%edx, %rdx
	salq	$3, %rdx
	subq	$8, %rdx
	addq	%rdx, %rax
	movq	(%rax), %rax
	movl	(%rax), %edx
	movq	-32(%rbp), %rax
	movq	48(%rax), %rax
	movl	-8(%rbp), %ecx
	movslq	%ecx, %rcx
	salq	$3, %rcx
	subq	$8, %rcx
	addq	%rcx, %rax
	movq	(%rax), %rax
	movl	(%rax), %eax
	addl	%edx, %eax
	movl	%eax, -72(%rbp)
	.loc 2 695 0
	movq	-32(%rbp), %rax
	movq	48(%rax), %rax
	movl	-8(%rbp), %edx
	movslq	%edx, %rdx
	salq	$3, %rdx
	leaq	(%rax,%rdx), %rcx
	movq	-32(%rbp), %rax
	movq	40(%rax), %rax
	movl	-8(%rbp), %edx
	movslq	%edx, %rdx
	salq	$3, %rdx
	addq	%rax, %rdx
	movq	(%rcx), %rax
	movq	%rax, (%rdx)
	.loc 2 696 0
	movl	-68(%rbp), %eax
	cmpq	%rax, -16(%rbp)
	jbe	.L161
	.loc 2 696 0 is_stmt 0 discriminator 1
	movl	-68(%rbp), %edx
	movq	%rdx, %rax
	addq	%rax, %rax
	addq	%rdx, %rax
	salq	$3, %rax
	movq	%rax, %rdx
	movq	-24(%rbp), %rax
	addq	%rdx, %rax
	movl	(%rax), %eax
	cmpl	%eax, -72(%rbp)
	jle	.L161
	.loc 2 697 0 is_stmt 1
	movq	-32(%rbp), %rax
	movq	48(%rax), %rax
	movl	-8(%rbp), %edx
	movslq	%edx, %rdx
	salq	$3, %rdx
	addq	%rdx, %rax
	movq	(%rax), %rax
	movq	8(%rax), %rcx
	movl	-68(%rbp), %eax
	leal	1(%rax), %r10d
	movl	-68(%rbp), %edx
	movq	%rdx, %rax
	addq	%rax, %rax
	addq	%rdx, %rax
	salq	$3, %rax
	movq	%rax, %rdx
	movq	-24(%rbp), %rax
	addq	%rdx, %rax
	movl	(%rax), %eax
	movq	-32(%rbp), %rdx
	movq	48(%rdx), %rdx
	movl	-8(%rbp), %r8d
	movslq	%r8d, %r8
	salq	$3, %r8
	leaq	(%rdx,%r8), %rbx
	movq	%rcx, %r9
	movl	%r10d, %r8d
	movl	%eax, %edx
	movq	-32(%rbp), %rcx
	call	_ZL14bpmnode_createP8BPMListsijP7BPMNode
	movq	%rax, (%rbx)
	.loc 2 698 0
	jmp	.L157
.L161:
	.loc 2 700 0
	movq	-32(%rbp), %rax
	movq	48(%rax), %rax
	movl	-8(%rbp), %edx
	movslq	%edx, %rdx
	salq	$3, %rdx
	subq	$8, %rdx
	addq	%rdx, %rax
	movq	(%rax), %rcx
	movq	-32(%rbp), %rax
	movq	48(%rax), %rax
	movl	-8(%rbp), %edx
	movslq	%edx, %rdx
	salq	$3, %rdx
	leaq	(%rax,%rdx), %rbx
	movl	-68(%rbp), %edx
	movl	-72(%rbp), %eax
	movq	%rcx, %r9
	movl	%edx, %r8d
	movl	%eax, %edx
	movq	-32(%rbp), %rcx
	call	_ZL14bpmnode_createP8BPMListsijP7BPMNode
	movq	%rax, (%rbx)
	.loc 2 703 0
	movl	0(%rbp), %eax
	leal	1(%rax), %edx
	movq	-16(%rbp), %rax
	addl	$2147483647, %eax
	addl	%eax, %eax
	cmpl	%eax, %edx
	jge	.L157
	.loc 2 704 0
	movl	-8(%rbp), %eax
	leal	-1(%rax), %r8d
	movq	-16(%rbp), %rcx
	movq	-24(%rbp), %rax
	movl	0(%rbp), %edx
	movl	%edx, 32(%rsp)
	movl	%r8d, %r9d
	movq	%rcx, %r8
	movq	%rax, %rdx
	movq	-32(%rbp), %rcx
	call	_ZL10boundaryPMP8BPMListsP7BPMNodeyii
	.loc 2 705 0
	movl	-8(%rbp), %eax
	leal	-1(%rax), %r8d
	movq	-16(%rbp), %rcx
	movq	-24(%rbp), %rax
	movl	0(%rbp), %edx
	movl	%edx, 32(%rsp)
	movl	%r8d, %r9d
	movq	%rcx, %r8
	movq	%rax, %rdx
	movq	-32(%rbp), %rcx
	call	_ZL10boundaryPMP8BPMListsP7BPMNodeyii
	jmp	.L157
.L162:
.LBE23:
	.loc 2 688 0
	nop
.L157:
.LBE22:
	.loc 2 708 0
	addq	$72, %rsp
	popq	%rbx
	.cfi_restore 3
	popq	%rbp
	.cfi_restore 6
	.cfi_def_cfa 7, -56
	ret
	.cfi_endproc
.LFE1382:
	.seh_endproc
	.globl	_Z28lodepng_huffman_code_lengthsPjPKjyj
	.def	_Z28lodepng_huffman_code_lengthsPjPKjyj;	.scl	2;	.type	32;	.endef
	.seh_proc	_Z28lodepng_huffman_code_lengthsPjPKjyj
_Z28lodepng_huffman_code_lengthsPjPKjyj:
.LFB1383:
	.loc 2 711 0
	.cfi_startproc
	pushq	%rbp
	.seh_pushreg	%rbp
	.cfi_def_cfa_offset 16
	.cfi_offset 6, -16
	movq	%rsp, %rbp
	.seh_setframe	%rbp, 0
	.cfi_def_cfa_register 6
	subq	$144, %rsp
	.seh_stackalloc	144
	.seh_endprologue
	movq	%rcx, 16(%rbp)
	movq	%rdx, 24(%rbp)
	movq	%r8, 32(%rbp)
	movl	%r9d, 40(%rbp)
	.loc 2 712 0
	movl	$0, -4(%rbp)
	.loc 2 714 0
	movq	$0, -16(%rbp)
	.loc 2 717 0
	cmpq	$0, 32(%rbp)
	jne	.L164
	.loc 2 717 0 is_stmt 0 discriminator 1
	movl	$80, %eax
	jmp	.L165
.L164:
	.loc 2 718 0 is_stmt 1
	movl	40(%rbp), %eax
	movl	$1, %edx
	movl	%eax, %ecx
	sall	%cl, %edx
	movq	32(%rbp), %rax
	cmpl	%eax, %edx
	jnb	.L166
	.loc 2 718 0 is_stmt 0 discriminator 1
	movl	$80, %eax
	jmp	.L165
.L166:
	.loc 2 720 0 is_stmt 1
	movq	32(%rbp), %rdx
	movq	%rdx, %rax
	addq	%rax, %rax
	addq	%rdx, %rax
	salq	$3, %rax
	movq	%rax, %rcx
	call	_ZL14lodepng_mallocy
	movq	%rax, -32(%rbp)
	.loc 2 721 0
	cmpq	$0, -32(%rbp)
	jne	.L167
	.loc 2 721 0 is_stmt 0 discriminator 1
	movl	$83, %eax
	jmp	.L165
.L167:
	.loc 2 723 0 is_stmt 1
	movl	$0, -8(%rbp)
.L170:
	.loc 2 723 0 is_stmt 0 discriminator 1
	movl	-8(%rbp), %eax
	cmpq	%rax, 32(%rbp)
	je	.L168
	.loc 2 724 0 is_stmt 1
	movl	-8(%rbp), %eax
	leaq	0(,%rax,4), %rdx
	movq	24(%rbp), %rax
	addq	%rdx, %rax
	movl	(%rax), %eax
	testl	%eax, %eax
	je	.L169
	.loc 2 725 0
	movl	-8(%rbp), %eax
	leaq	0(,%rax,4), %rdx
	movq	24(%rbp), %rax
	addq	%rdx, %rax
	movl	(%rax), %ecx
	movq	-16(%rbp), %rdx
	movq	%rdx, %rax
	addq	%rax, %rax
	addq	%rdx, %rax
	salq	$3, %rax
	movq	%rax, %rdx
	movq	-32(%rbp), %rax
	addq	%rdx, %rax
	movl	%ecx, %edx
	movl	%edx, (%rax)
	.loc 2 726 0
	movq	-16(%rbp), %rdx
	movq	%rdx, %rax
	addq	%rax, %rax
	addq	%rdx, %rax
	salq	$3, %rax
	movq	%rax, %rdx
	movq	-32(%rbp), %rax
	addq	%rax, %rdx
	movl	-8(%rbp), %eax
	movl	%eax, 4(%rdx)
	.loc 2 727 0
	addq	$1, -16(%rbp)
.L169:
	.loc 2 723 0 discriminator 2
	addl	$1, -8(%rbp)
	jmp	.L170
.L168:
	.loc 2 731 0
	movl	$0, -8(%rbp)
.L172:
	.loc 2 731 0 is_stmt 0 discriminator 3
	movl	-8(%rbp), %eax
	cmpq	%rax, 32(%rbp)
	je	.L171
	.loc 2 731 0 discriminator 2
	movl	-8(%rbp), %eax
	leaq	0(,%rax,4), %rdx
	movq	16(%rbp), %rax
	addq	%rdx, %rax
	movl	$0, (%rax)
	addl	$1, -8(%rbp)
	jmp	.L172
.L171:
.LBB24:
	.loc 2 738 0 is_stmt 1
	cmpq	$0, -16(%rbp)
	jne	.L173
	.loc 2 739 0
	movq	16(%rbp), %rax
	addq	$4, %rax
	movl	$1, (%rax)
	movl	(%rax), %edx
	movq	16(%rbp), %rax
	movl	%edx, (%rax)
	jmp	.L174
.L173:
.LBB25:
.LBB26:
	.loc 2 741 0
	cmpq	$1, -16(%rbp)
	jne	.L175
	.loc 2 742 0
	movq	-32(%rbp), %rax
	movl	4(%rax), %eax
	movl	%eax, %eax
	leaq	0(,%rax,4), %rdx
	movq	16(%rbp), %rax
	addq	%rdx, %rax
	movl	$1, (%rax)
	.loc 2 743 0
	movq	-32(%rbp), %rax
	movl	4(%rax), %eax
	testl	%eax, %eax
	jne	.L176
	.loc 2 743 0 is_stmt 0 discriminator 1
	movl	$4, %edx
	jmp	.L177
.L176:
	.loc 2 743 0 discriminator 2
	movl	$0, %edx
.L177:
	.loc 2 743 0 discriminator 4
	movq	16(%rbp), %rax
	addq	%rdx, %rax
	movl	$1, (%rax)
	jmp	.L174
.L175:
.LBB27:
	.loc 2 749 0 is_stmt 1
	movq	-16(%rbp), %rdx
	movq	-32(%rbp), %rax
	movq	%rax, %rcx
	call	_ZL12bpmnode_sortP7BPMNodey
	.loc 2 751 0
	movl	40(%rbp), %eax
	movl	%eax, -64(%rbp)
	.loc 2 752 0
	movl	40(%rbp), %eax
	addl	$1, %eax
	imull	40(%rbp), %eax
	addl	%eax, %eax
	movl	%eax, -96(%rbp)
	.loc 2 753 0
	movl	$0, -76(%rbp)
	.loc 2 754 0
	movl	-96(%rbp), %eax
	movl	%eax, -80(%rbp)
	.loc 2 755 0
	movl	-96(%rbp), %eax
	movl	%eax, %edx
	movq	%rdx, %rax
	addq	%rax, %rax
	addq	%rdx, %rax
	salq	$3, %rax
	movq	%rax, %rcx
	call	_ZL14lodepng_mallocy
	movq	%rax, -88(%rbp)
	.loc 2 756 0
	movl	-96(%rbp), %eax
	movl	%eax, %eax
	salq	$3, %rax
	movq	%rax, %rcx
	call	_ZL14lodepng_mallocy
	movq	%rax, -72(%rbp)
	.loc 2 757 0
	movl	-64(%rbp), %eax
	movl	%eax, %eax
	salq	$3, %rax
	movq	%rax, %rcx
	call	_ZL14lodepng_mallocy
	movq	%rax, -56(%rbp)
	.loc 2 758 0
	movl	-64(%rbp), %eax
	movl	%eax, %eax
	salq	$3, %rax
	movq	%rax, %rcx
	call	_ZL14lodepng_mallocy
	movq	%rax, -48(%rbp)
	.loc 2 759 0
	movq	-88(%rbp), %rax
	testq	%rax, %rax
	je	.L178
	.loc 2 759 0 is_stmt 0 discriminator 2
	movq	-72(%rbp), %rax
	testq	%rax, %rax
	je	.L178
	.loc 2 759 0 discriminator 4
	movq	-56(%rbp), %rax
	testq	%rax, %rax
	je	.L178
	.loc 2 759 0 discriminator 6
	movq	-48(%rbp), %rax
	testq	%rax, %rax
	jne	.L179
.L178:
	.loc 2 759 0 discriminator 7
	movl	$83, -4(%rbp)
.L179:
	.loc 2 761 0 is_stmt 1
	cmpl	$0, -4(%rbp)
	jne	.L180
	.loc 2 762 0
	movl	$0, -8(%rbp)
.L182:
	.loc 2 762 0 is_stmt 0 discriminator 3
	movl	-96(%rbp), %eax
	cmpl	%eax, -8(%rbp)
	je	.L181
	.loc 2 762 0 discriminator 2
	movq	-88(%rbp), %rcx
	movl	-8(%rbp), %edx
	movq	%rdx, %rax
	addq	%rax, %rax
	addq	%rdx, %rax
	salq	$3, %rax
	movq	%rax, %r8
	movq	-72(%rbp), %rax
	movl	-8(%rbp), %edx
	salq	$3, %rdx
	addq	%rdx, %rax
	leaq	(%rcx,%r8), %rdx
	movq	%rdx, (%rax)
	addl	$1, -8(%rbp)
	jmp	.L182
.L181:
	.loc 2 764 0 is_stmt 1
	movq	-32(%rbp), %rax
	movl	(%rax), %edx
	leaq	-96(%rbp), %rax
	movl	$0, %r9d
	movl	$1, %r8d
	movq	%rax, %rcx
	call	_ZL14bpmnode_createP8BPMListsijP7BPMNode
	.loc 2 765 0
	movq	-32(%rbp), %rax
	addq	$24, %rax
	movl	(%rax), %edx
	leaq	-96(%rbp), %rax
	movl	$0, %r9d
	movl	$2, %r8d
	movq	%rax, %rcx
	call	_ZL14bpmnode_createP8BPMListsijP7BPMNode
	.loc 2 767 0
	movl	$0, -8(%rbp)
.L184:
	.loc 2 767 0 is_stmt 0 discriminator 3
	movl	-64(%rbp), %eax
	cmpl	%eax, -8(%rbp)
	je	.L183
	.loc 2 768 0 is_stmt 1 discriminator 2
	movq	-56(%rbp), %rax
	movl	-8(%rbp), %edx
	salq	$3, %rdx
	addq	%rax, %rdx
	movq	-88(%rbp), %rax
	movq	%rax, (%rdx)
	.loc 2 769 0 discriminator 2
	movq	-88(%rbp), %rdx
	movq	-48(%rbp), %rax
	movl	-8(%rbp), %ecx
	salq	$3, %rcx
	addq	%rcx, %rax
	addq	$24, %rdx
	movq	%rdx, (%rax)
	.loc 2 767 0 discriminator 2
	addl	$1, -8(%rbp)
	jmp	.L184
.L183:
	.loc 2 773 0
	movl	$2, -8(%rbp)
.L186:
	.loc 2 773 0 is_stmt 0 discriminator 4
	movl	-8(%rbp), %eax
	movq	-16(%rbp), %rdx
	addq	%rdx, %rdx
	subq	$2, %rdx
	cmpq	%rdx, %rax
	je	.L185
	.loc 2 773 0 discriminator 2
	movl	-8(%rbp), %ecx
	movl	40(%rbp), %eax
	leal	-1(%rax), %r9d
	movq	-16(%rbp), %r8
	movq	-32(%rbp), %rdx
	leaq	-96(%rbp), %rax
	movl	%ecx, 32(%rsp)
	movq	%rax, %rcx
	call	_ZL10boundaryPMP8BPMListsP7BPMNodeyii
	addl	$1, -8(%rbp)
	jmp	.L186
.L185:
	.loc 2 775 0 is_stmt 1
	movq	-48(%rbp), %rax
	movl	40(%rbp), %edx
	subl	$1, %edx
	movl	%edx, %edx
	salq	$3, %rdx
	addq	%rdx, %rax
	movq	(%rax), %rax
	movq	%rax, -24(%rbp)
.L189:
	.loc 2 775 0 is_stmt 0 discriminator 1
	cmpq	$0, -24(%rbp)
	je	.L180
	.loc 2 776 0 is_stmt 1
	movl	$0, -8(%rbp)
.L188:
	.loc 2 776 0 is_stmt 0 discriminator 3
	movq	-24(%rbp), %rax
	movl	4(%rax), %eax
	cmpl	%eax, -8(%rbp)
	je	.L187
	.loc 2 776 0 discriminator 2
	movl	-8(%rbp), %edx
	movq	%rdx, %rax
	addq	%rax, %rax
	addq	%rdx, %rax
	salq	$3, %rax
	movq	%rax, %rdx
	movq	-32(%rbp), %rax
	addq	%rdx, %rax
	movl	4(%rax), %eax
	movl	%eax, %eax
	leaq	0(,%rax,4), %rdx
	movq	16(%rbp), %rax
	addq	%rdx, %rax
	movl	(%rax), %edx
	addl	$1, %edx
	movl	%edx, (%rax)
	addl	$1, -8(%rbp)
	jmp	.L188
.L187:
	.loc 2 775 0 is_stmt 1 discriminator 2
	movq	-24(%rbp), %rax
	movq	8(%rax), %rax
	movq	%rax, -24(%rbp)
	jmp	.L189
.L180:
	.loc 2 780 0 discriminator 1
	movq	-88(%rbp), %rax
	movq	%rax, %rcx
	call	_ZL12lodepng_freePv
	.loc 2 781 0 discriminator 1
	movq	-72(%rbp), %rax
	movq	%rax, %rcx
	call	_ZL12lodepng_freePv
	.loc 2 782 0 discriminator 1
	movq	-56(%rbp), %rax
	movq	%rax, %rcx
	call	_ZL12lodepng_freePv
	.loc 2 783 0 discriminator 1
	movq	-48(%rbp), %rax
	movq	%rax, %rcx
	call	_ZL12lodepng_freePv
.L174:
.LBE27:
.LBE26:
.LBE25:
.LBE24:
	.loc 2 786 0
	movq	-32(%rbp), %rax
	movq	%rax, %rcx
	call	_ZL12lodepng_freePv
	.loc 2 787 0
	movl	-4(%rbp), %eax
.L165:
	.loc 2 788 0
	addq	$144, %rsp
	popq	%rbp
	.cfi_restore 6
	.cfi_def_cfa 7, 8
	ret
	.cfi_endproc
.LFE1383:
	.seh_endproc
	.def	_ZL31HuffmanTree_makeFromFrequenciesP11HuffmanTreePKjyyj;	.scl	3;	.type	32;	.endef
	.seh_proc	_ZL31HuffmanTree_makeFromFrequenciesP11HuffmanTreePKjyyj
_ZL31HuffmanTree_makeFromFrequenciesP11HuffmanTreePKjyyj:
.LFB1384:
	.loc 2 792 0
	.cfi_startproc
	pushq	%rbp
	.seh_pushreg	%rbp
	.cfi_def_cfa_offset 16
	.cfi_offset 6, -16
	movq	%rsp, %rbp
	.seh_setframe	%rbp, 0
	.cfi_def_cfa_register 6
	subq	$48, %rsp
	.seh_stackalloc	48
	.seh_endprologue
	movq	%rcx, 16(%rbp)
	movq	%rdx, 24(%rbp)
	movq	%r8, 32(%rbp)
	movq	%r9, 40(%rbp)
	.loc 2 793 0
	movl	$0, -4(%rbp)
.L192:
	.loc 2 794 0 discriminator 3
	movq	40(%rbp), %rax
	salq	$2, %rax
	leaq	-4(%rax), %rdx
	movq	24(%rbp), %rax
	addq	%rdx, %rax
	movl	(%rax), %eax
	testl	%eax, %eax
	jne	.L191
	.loc 2 794 0 is_stmt 0 discriminator 1
	movq	40(%rbp), %rax
	cmpq	32(%rbp), %rax
	jbe	.L191
	.loc 2 794 0 discriminator 2
	subq	$1, 40(%rbp)
	jmp	.L192
.L191:
	.loc 2 795 0 is_stmt 1
	movq	16(%rbp), %rax
	movl	48(%rbp), %edx
	movl	%edx, 24(%rax)
	.loc 2 796 0
	movq	40(%rbp), %rax
	movl	%eax, %edx
	movq	16(%rbp), %rax
	movl	%edx, 28(%rax)
	.loc 2 797 0
	movq	40(%rbp), %rax
	leaq	0(,%rax,4), %rdx
	movq	16(%rbp), %rax
	movq	16(%rax), %rax
	movq	%rax, %rcx
	call	_ZL15lodepng_reallocPvy
	movq	%rax, %rdx
	movq	16(%rbp), %rax
	movq	%rdx, 16(%rax)
	.loc 2 798 0
	movq	16(%rbp), %rax
	movq	16(%rax), %rax
	testq	%rax, %rax
	jne	.L193
	.loc 2 798 0 is_stmt 0 discriminator 1
	movl	$83, %eax
	jmp	.L194
.L193:
	.loc 2 800 0 is_stmt 1
	movq	40(%rbp), %rax
	leaq	0(,%rax,4), %rdx
	movq	16(%rbp), %rax
	movq	16(%rax), %rax
	movq	%rdx, %r8
	movl	$0, %edx
	movq	%rax, %rcx
	call	memset
	.loc 2 802 0
	movq	16(%rbp), %rax
	movq	16(%rax), %rax
	movl	48(%rbp), %r8d
	movq	40(%rbp), %rcx
	movq	24(%rbp), %rdx
	movl	%r8d, %r9d
	movq	%rcx, %r8
	movq	%rax, %rcx
	call	_Z28lodepng_huffman_code_lengthsPjPKjyj
	movl	%eax, -4(%rbp)
	.loc 2 803 0
	cmpl	$0, -4(%rbp)
	jne	.L195
	.loc 2 803 0 is_stmt 0 discriminator 1
	movq	16(%rbp), %rcx
	call	_ZL28HuffmanTree_makeFromLengths2P11HuffmanTree
	movl	%eax, -4(%rbp)
.L195:
	.loc 2 804 0 is_stmt 1
	movl	-4(%rbp), %eax
.L194:
	.loc 2 805 0
	addq	$48, %rsp
	popq	%rbp
	.cfi_restore 6
	.cfi_def_cfa 7, 8
	ret
	.cfi_endproc
.LFE1384:
	.seh_endproc
	.def	_ZL19HuffmanTree_getCodePK11HuffmanTreej;	.scl	3;	.type	32;	.endef
	.seh_proc	_ZL19HuffmanTree_getCodePK11HuffmanTreej
_ZL19HuffmanTree_getCodePK11HuffmanTreej:
.LFB1385:
	.loc 2 807 0
	.cfi_startproc
	pushq	%rbp
	.seh_pushreg	%rbp
	.cfi_def_cfa_offset 16
	.cfi_offset 6, -16
	movq	%rsp, %rbp
	.seh_setframe	%rbp, 0
	.cfi_def_cfa_register 6
	.seh_endprologue
	movq	%rcx, 16(%rbp)
	movl	%edx, 24(%rbp)
	.loc 2 808 0
	movq	16(%rbp), %rax
	movq	8(%rax), %rax
	movl	24(%rbp), %edx
	salq	$2, %rdx
	addq	%rdx, %rax
	movl	(%rax), %eax
	.loc 2 809 0
	popq	%rbp
	.cfi_restore 6
	.cfi_def_cfa 7, 8
	ret
	.cfi_endproc
.LFE1385:
	.seh_endproc
	.def	_ZL21HuffmanTree_getLengthPK11HuffmanTreej;	.scl	3;	.type	32;	.endef
	.seh_proc	_ZL21HuffmanTree_getLengthPK11HuffmanTreej
_ZL21HuffmanTree_getLengthPK11HuffmanTreej:
.LFB1386:
	.loc 2 811 0
	.cfi_startproc
	pushq	%rbp
	.seh_pushreg	%rbp
	.cfi_def_cfa_offset 16
	.cfi_offset 6, -16
	movq	%rsp, %rbp
	.seh_setframe	%rbp, 0
	.cfi_def_cfa_register 6
	.seh_endprologue
	movq	%rcx, 16(%rbp)
	movl	%edx, 24(%rbp)
	.loc 2 812 0
	movq	16(%rbp), %rax
	movq	16(%rax), %rax
	movl	24(%rbp), %edx
	salq	$2, %rdx
	addq	%rdx, %rax
	movl	(%rax), %eax
	.loc 2 813 0
	popq	%rbp
	.cfi_restore 6
	.cfi_def_cfa 7, 8
	ret
	.cfi_endproc
.LFE1386:
	.seh_endproc
	.def	_ZL23generateFixedLitLenTreeP11HuffmanTree;	.scl	3;	.type	32;	.endef
	.seh_proc	_ZL23generateFixedLitLenTreeP11HuffmanTree
_ZL23generateFixedLitLenTreeP11HuffmanTree:
.LFB1387:
	.loc 2 817 0
	.cfi_startproc
	pushq	%rbp
	.seh_pushreg	%rbp
	.cfi_def_cfa_offset 16
	.cfi_offset 6, -16
	movq	%rsp, %rbp
	.seh_setframe	%rbp, 0
	.cfi_def_cfa_register 6
	subq	$48, %rsp
	.seh_stackalloc	48
	.seh_endprologue
	movq	%rcx, 16(%rbp)
	.loc 2 818 0
	movl	$0, -8(%rbp)
	.loc 2 819 0
	movl	$1152, %ecx
	call	_ZL14lodepng_mallocy
	movq	%rax, -16(%rbp)
	.loc 2 820 0
	cmpq	$0, -16(%rbp)
	jne	.L201
	.loc 2 820 0 is_stmt 0 discriminator 1
	movl	$83, %eax
	jmp	.L202
.L201:
	.loc 2 823 0 is_stmt 1
	movl	$0, -4(%rbp)
.L204:
	.loc 2 823 0 is_stmt 0 discriminator 3
	cmpl	$143, -4(%rbp)
	ja	.L203
	.loc 2 823 0 discriminator 2
	movl	-4(%rbp), %eax
	leaq	0(,%rax,4), %rdx
	movq	-16(%rbp), %rax
	addq	%rdx, %rax
	movl	$8, (%rax)
	addl	$1, -4(%rbp)
	jmp	.L204
.L203:
	.loc 2 824 0 is_stmt 1
	movl	$144, -4(%rbp)
.L206:
	.loc 2 824 0 is_stmt 0 discriminator 3
	cmpl	$255, -4(%rbp)
	ja	.L205
	.loc 2 824 0 discriminator 2
	movl	-4(%rbp), %eax
	leaq	0(,%rax,4), %rdx
	movq	-16(%rbp), %rax
	addq	%rdx, %rax
	movl	$9, (%rax)
	addl	$1, -4(%rbp)
	jmp	.L206
.L205:
	.loc 2 825 0 is_stmt 1
	movl	$256, -4(%rbp)
.L208:
	.loc 2 825 0 is_stmt 0 discriminator 3
	cmpl	$279, -4(%rbp)
	ja	.L207
	.loc 2 825 0 discriminator 2
	movl	-4(%rbp), %eax
	leaq	0(,%rax,4), %rdx
	movq	-16(%rbp), %rax
	addq	%rdx, %rax
	movl	$7, (%rax)
	addl	$1, -4(%rbp)
	jmp	.L208
.L207:
	.loc 2 826 0 is_stmt 1
	movl	$280, -4(%rbp)
.L210:
	.loc 2 826 0 is_stmt 0 discriminator 3
	cmpl	$287, -4(%rbp)
	ja	.L209
	.loc 2 826 0 discriminator 2
	movl	-4(%rbp), %eax
	leaq	0(,%rax,4), %rdx
	movq	-16(%rbp), %rax
	addq	%rdx, %rax
	movl	$8, (%rax)
	addl	$1, -4(%rbp)
	jmp	.L210
.L209:
	.loc 2 828 0 is_stmt 1
	movq	-16(%rbp), %rax
	movl	$15, %r9d
	movl	$288, %r8d
	movq	%rax, %rdx
	movq	16(%rbp), %rcx
	call	_ZL27HuffmanTree_makeFromLengthsP11HuffmanTreePKjyj
	movl	%eax, -8(%rbp)
	.loc 2 830 0
	movq	-16(%rbp), %rax
	movq	%rax, %rcx
	call	_ZL12lodepng_freePv
	.loc 2 831 0
	movl	-8(%rbp), %eax
.L202:
	.loc 2 832 0
	addq	$48, %rsp
	popq	%rbp
	.cfi_restore 6
	.cfi_def_cfa 7, 8
	ret
	.cfi_endproc
.LFE1387:
	.seh_endproc
	.def	_ZL25generateFixedDistanceTreeP11HuffmanTree;	.scl	3;	.type	32;	.endef
	.seh_proc	_ZL25generateFixedDistanceTreeP11HuffmanTree
_ZL25generateFixedDistanceTreeP11HuffmanTree:
.LFB1388:
	.loc 2 835 0
	.cfi_startproc
	pushq	%rbp
	.seh_pushreg	%rbp
	.cfi_def_cfa_offset 16
	.cfi_offset 6, -16
	movq	%rsp, %rbp
	.seh_setframe	%rbp, 0
	.cfi_def_cfa_register 6
	subq	$48, %rsp
	.seh_stackalloc	48
	.seh_endprologue
	movq	%rcx, 16(%rbp)
	.loc 2 836 0
	movl	$0, -8(%rbp)
	.loc 2 837 0
	movl	$128, %ecx
	call	_ZL14lodepng_mallocy
	movq	%rax, -16(%rbp)
	.loc 2 838 0
	cmpq	$0, -16(%rbp)
	jne	.L212
	.loc 2 838 0 is_stmt 0 discriminator 1
	movl	$83, %eax
	jmp	.L213
.L212:
	.loc 2 841 0 is_stmt 1
	movl	$0, -4(%rbp)
.L215:
	.loc 2 841 0 is_stmt 0 discriminator 3
	cmpl	$32, -4(%rbp)
	je	.L214
	.loc 2 841 0 discriminator 2
	movl	-4(%rbp), %eax
	leaq	0(,%rax,4), %rdx
	movq	-16(%rbp), %rax
	addq	%rdx, %rax
	movl	$5, (%rax)
	addl	$1, -4(%rbp)
	jmp	.L215
.L214:
	.loc 2 842 0 is_stmt 1
	movq	-16(%rbp), %rax
	movl	$15, %r9d
	movl	$32, %r8d
	movq	%rax, %rdx
	movq	16(%rbp), %rcx
	call	_ZL27HuffmanTree_makeFromLengthsP11HuffmanTreePKjyj
	movl	%eax, -8(%rbp)
	.loc 2 844 0
	movq	-16(%rbp), %rax
	movq	%rax, %rcx
	call	_ZL12lodepng_freePv
	.loc 2 845 0
	movl	-8(%rbp), %eax
.L213:
	.loc 2 846 0
	addq	$48, %rsp
	popq	%rbp
	.cfi_restore 6
	.cfi_def_cfa 7, 8
	ret
	.cfi_endproc
.LFE1388:
	.seh_endproc
	.def	_ZL19huffmanDecodeSymbolPKhPyPK11HuffmanTreey;	.scl	3;	.type	32;	.endef
	.seh_proc	_ZL19huffmanDecodeSymbolPKhPyPK11HuffmanTreey
_ZL19huffmanDecodeSymbolPKhPyPK11HuffmanTreey:
.LFB1389:
	.loc 2 855 0
	.cfi_startproc
	pushq	%rbp
	.seh_pushreg	%rbp
	.cfi_def_cfa_offset 16
	.cfi_offset 6, -16
	movq	%rsp, %rbp
	.seh_setframe	%rbp, 0
	.cfi_def_cfa_register 6
	subq	$16, %rsp
	.seh_stackalloc	16
	.seh_endprologue
	movq	%rcx, 16(%rbp)
	movq	%rdx, 24(%rbp)
	movq	%r8, 32(%rbp)
	movq	%r9, 40(%rbp)
	.loc 2 856 0
	movl	$0, -4(%rbp)
.L221:
	.loc 2 858 0
	movq	24(%rbp), %rax
	movq	(%rax), %rax
	cmpq	%rax, 40(%rbp)
	ja	.L217
	.loc 2 858 0 is_stmt 0 discriminator 1
	movl	$-1, %eax
	jmp	.L218
.L217:
	.loc 2 863 0 is_stmt 1
	movq	32(%rbp), %rax
	movq	(%rax), %rdx
	movl	-4(%rbp), %eax
	leal	(%rax,%rax), %r9d
	movq	24(%rbp), %rax
	movq	(%rax), %rax
	shrq	$3, %rax
	movq	%rax, %rcx
	movq	16(%rbp), %rax
	addq	%rcx, %rax
	movzbl	(%rax), %eax
	movzbl	%al, %r8d
	movq	24(%rbp), %rax
	movq	(%rax), %rax
	andl	$7, %eax
	movl	%eax, %ecx
	sarl	%cl, %r8d
	movl	%r8d, %eax
	andl	$1, %eax
	addl	%r9d, %eax
	movl	%eax, %eax
	salq	$2, %rax
	addq	%rdx, %rax
	movl	(%rax), %eax
	movl	%eax, -8(%rbp)
	.loc 2 864 0
	movq	24(%rbp), %rax
	movq	(%rax), %rax
	leaq	1(%rax), %rdx
	movq	24(%rbp), %rax
	movq	%rdx, (%rax)
	.loc 2 865 0
	movq	32(%rbp), %rax
	movl	28(%rax), %eax
	cmpl	%eax, -8(%rbp)
	jnb	.L219
	.loc 2 865 0 is_stmt 0 discriminator 1
	movl	-8(%rbp), %eax
	jmp	.L218
.L219:
	.loc 2 866 0 is_stmt 1
	movq	32(%rbp), %rax
	movl	28(%rax), %eax
	movl	-8(%rbp), %edx
	subl	%eax, %edx
	movl	%edx, %eax
	movl	%eax, -4(%rbp)
	.loc 2 868 0
	movq	32(%rbp), %rax
	movl	28(%rax), %eax
	cmpl	%eax, -4(%rbp)
	jb	.L221
	.loc 2 868 0 is_stmt 0 discriminator 1
	movl	$-1, %eax
.L218:
	.loc 2 870 0 is_stmt 1
	addq	$16, %rsp
	popq	%rbp
	.cfi_restore 6
	.cfi_def_cfa 7, 8
	ret
	.cfi_endproc
.LFE1389:
	.seh_endproc
	.def	_ZL19getTreeInflateFixedP11HuffmanTreeS0_;	.scl	3;	.type	32;	.endef
	.seh_proc	_ZL19getTreeInflateFixedP11HuffmanTreeS0_
_ZL19getTreeInflateFixedP11HuffmanTreeS0_:
.LFB1390:
	.loc 2 880 0
	.cfi_startproc
	pushq	%rbp
	.seh_pushreg	%rbp
	.cfi_def_cfa_offset 16
	.cfi_offset 6, -16
	movq	%rsp, %rbp
	.seh_setframe	%rbp, 0
	.cfi_def_cfa_register 6
	subq	$32, %rsp
	.seh_stackalloc	32
	.seh_endprologue
	movq	%rcx, 16(%rbp)
	movq	%rdx, 24(%rbp)
	.loc 2 882 0
	movq	16(%rbp), %rcx
	call	_ZL23generateFixedLitLenTreeP11HuffmanTree
	.loc 2 883 0
	movq	24(%rbp), %rax
	movq	%rax, %rcx
	call	_ZL25generateFixedDistanceTreeP11HuffmanTree
	.loc 2 884 0
	nop
	addq	$32, %rsp
	popq	%rbp
	.cfi_restore 6
	.cfi_def_cfa 7, 8
	ret
	.cfi_endproc
.LFE1390:
	.seh_endproc
	.def	_ZL21getTreeInflateDynamicP11HuffmanTreeS0_PKhPyy;	.scl	3;	.type	32;	.endef
	.seh_proc	_ZL21getTreeInflateDynamicP11HuffmanTreeS0_PKhPyy
_ZL21getTreeInflateDynamicP11HuffmanTreeS0_PKhPyy:
.LFB1391:
	.loc 2 888 0
	.cfi_startproc
	pushq	%rbp
	.seh_pushreg	%rbp
	.cfi_def_cfa_offset 16
	.cfi_offset 6, -16
	pushq	%rbx
	.seh_pushreg	%rbx
	.cfi_def_cfa_offset 24
	.cfi_offset 3, -24
	subq	$168, %rsp
	.seh_stackalloc	168
	.cfi_def_cfa_offset 192
	leaq	128(%rsp), %rbp
	.seh_setframe	%rbp, 128
	.cfi_def_cfa 6, 64
	.seh_endprologue
	movq	%rcx, 64(%rbp)
	movq	%rdx, 72(%rbp)
	movq	%r8, 80(%rbp)
	movq	%r9, 88(%rbp)
	.loc 2 890 0
	movl	$0, 28(%rbp)
	.loc 2 892 0
	movq	96(%rbp), %rax
	salq	$3, %rax
	movq	%rax, -24(%rbp)
	.loc 2 895 0
	movq	$0, 8(%rbp)
	.loc 2 896 0
	movq	$0, 0(%rbp)
	.loc 2 898 0
	movq	$0, -8(%rbp)
	.loc 2 901 0
	movq	88(%rbp), %rax
	movq	(%rax), %rax
	leaq	14(%rax), %rdx
	movq	96(%rbp), %rax
	salq	$3, %rax
	cmpq	%rax, %rdx
	jbe	.L224
	.loc 2 901 0 is_stmt 0 discriminator 1
	movl	$49, %eax
	jmp	.L277
.L224:
	.loc 2 904 0 is_stmt 1
	movq	80(%rbp), %rdx
	movq	88(%rbp), %rax
	movl	$5, %r8d
	movq	%rax, %rcx
	call	_ZL18readBitsFromStreamPyPKhy
	addl	$257, %eax
	movl	%eax, -28(%rbp)
	.loc 2 906 0
	movq	80(%rbp), %rdx
	movq	88(%rbp), %rax
	movl	$5, %r8d
	movq	%rax, %rcx
	call	_ZL18readBitsFromStreamPyPKhy
	addl	$1, %eax
	movl	%eax, -32(%rbp)
	.loc 2 908 0
	movq	80(%rbp), %rdx
	movq	88(%rbp), %rax
	movl	$4, %r8d
	movq	%rax, %rcx
	call	_ZL18readBitsFromStreamPyPKhy
	addl	$4, %eax
	movl	%eax, -36(%rbp)
	.loc 2 910 0
	movq	88(%rbp), %rax
	movq	(%rax), %rcx
	movl	-36(%rbp), %edx
	movl	%edx, %eax
	addl	%eax, %eax
	addl	%edx, %eax
	movl	%eax, %eax
	leaq	(%rcx,%rax), %rdx
	movq	96(%rbp), %rax
	salq	$3, %rax
	cmpq	%rax, %rdx
	jbe	.L226
	.loc 2 910 0 is_stmt 0 discriminator 1
	movl	$50, %eax
	jmp	.L277
.L226:
	.loc 2 912 0 is_stmt 1
	leaq	-96(%rbp), %rax
	movq	%rax, %rcx
	call	_ZL16HuffmanTree_initP11HuffmanTree
	.loc 2 914 0
	cmpl	$0, 28(%rbp)
	jne	.L227
.LBB28:
	.loc 2 917 0
	movl	$76, %ecx
	call	_ZL14lodepng_mallocy
	movq	%rax, -8(%rbp)
	.loc 2 918 0
	cmpq	$0, -8(%rbp)
	jne	.L228
	.loc 2 918 0 is_stmt 0 discriminator 1
	movl	$83, 28(%rbp)
	jmp	.L227
.L228:
	.loc 2 920 0 is_stmt 1
	movl	$0, 20(%rbp)
.L232:
	.loc 2 920 0 is_stmt 0 discriminator 1
	cmpl	$19, 20(%rbp)
	je	.L229
	.loc 2 921 0 is_stmt 1
	movl	20(%rbp), %eax
	cmpl	-36(%rbp), %eax
	jnb	.L230
	.loc 2 921 0 is_stmt 0 discriminator 1
	movl	20(%rbp), %eax
	leaq	0(,%rax,4), %rdx
	leaq	_ZL10CLCL_ORDER(%rip), %rax
	movl	(%rdx,%rax), %eax
	movl	%eax, %eax
	leaq	0(,%rax,4), %rdx
	movq	-8(%rbp), %rax
	leaq	(%rdx,%rax), %rbx
	movq	80(%rbp), %rdx
	movq	88(%rbp), %rax
	movl	$3, %r8d
	movq	%rax, %rcx
	call	_ZL18readBitsFromStreamPyPKhy
	movl	%eax, (%rbx)
	jmp	.L231
.L230:
	.loc 2 922 0 is_stmt 1
	movl	20(%rbp), %eax
	leaq	0(,%rax,4), %rdx
	leaq	_ZL10CLCL_ORDER(%rip), %rax
	movl	(%rdx,%rax), %eax
	movl	%eax, %eax
	leaq	0(,%rax,4), %rdx
	movq	-8(%rbp), %rax
	addq	%rdx, %rax
	movl	$0, (%rax)
.L231:
	.loc 2 920 0 discriminator 2
	addl	$1, 20(%rbp)
	jmp	.L232
.L229:
	.loc 2 925 0
	movq	-8(%rbp), %rdx
	leaq	-96(%rbp), %rax
	movl	$7, %r9d
	movl	$19, %r8d
	movq	%rax, %rcx
	call	_ZL27HuffmanTree_makeFromLengthsP11HuffmanTreePKjyj
	movl	%eax, 28(%rbp)
	.loc 2 926 0
	cmpl	$0, 28(%rbp)
	jne	.L278
	.loc 2 929 0
	movl	$1152, %ecx
	call	_ZL14lodepng_mallocy
	movq	%rax, 8(%rbp)
	.loc 2 930 0
	movl	$128, %ecx
	call	_ZL14lodepng_mallocy
	movq	%rax, 0(%rbp)
	.loc 2 931 0
	cmpq	$0, 8(%rbp)
	je	.L234
	.loc 2 931 0 is_stmt 0 discriminator 2
	cmpq	$0, 0(%rbp)
	jne	.L235
.L234:
	.loc 2 931 0 discriminator 3
	movl	$83, 28(%rbp)
	jmp	.L227
.L235:
	.loc 2 932 0 is_stmt 1
	movl	$0, 20(%rbp)
.L237:
	.loc 2 932 0 is_stmt 0 discriminator 3
	cmpl	$288, 20(%rbp)
	je	.L236
	.loc 2 932 0 discriminator 2
	movl	20(%rbp), %eax
	leaq	0(,%rax,4), %rdx
	movq	8(%rbp), %rax
	addq	%rdx, %rax
	movl	$0, (%rax)
	addl	$1, 20(%rbp)
	jmp	.L237
.L236:
	.loc 2 933 0 is_stmt 1
	movl	$0, 20(%rbp)
.L239:
	.loc 2 933 0 is_stmt 0 discriminator 3
	cmpl	$32, 20(%rbp)
	je	.L238
	.loc 2 933 0 discriminator 2
	movl	20(%rbp), %eax
	leaq	0(,%rax,4), %rdx
	movq	0(%rbp), %rax
	addq	%rdx, %rax
	movl	$0, (%rax)
	addl	$1, 20(%rbp)
	jmp	.L239
.L238:
	.loc 2 936 0 is_stmt 1
	movl	$0, 20(%rbp)
.L273:
	.loc 2 937 0
	movl	-28(%rbp), %edx
	movl	-32(%rbp), %eax
	addl	%edx, %eax
	cmpl	%eax, 20(%rbp)
	jnb	.L240
.LBB29:
	.loc 2 938 0
	movq	-24(%rbp), %r8
	leaq	-96(%rbp), %rcx
	movq	88(%rbp), %rdx
	movq	80(%rbp), %rax
	movq	%r8, %r9
	movq	%rcx, %r8
	movq	%rax, %rcx
	call	_ZL19huffmanDecodeSymbolPKhPyPK11HuffmanTreey
	movl	%eax, -40(%rbp)
.LBB30:
	.loc 2 939 0
	cmpl	$15, -40(%rbp)
	ja	.L241
	.loc 2 940 0
	movl	20(%rbp), %eax
	cmpl	-28(%rbp), %eax
	jnb	.L242
	.loc 2 940 0 is_stmt 0 discriminator 1
	movl	20(%rbp), %eax
	leaq	0(,%rax,4), %rdx
	movq	8(%rbp), %rax
	addq	%rax, %rdx
	movl	-40(%rbp), %eax
	movl	%eax, (%rdx)
	jmp	.L243
.L242:
	.loc 2 941 0 is_stmt 1
	movl	20(%rbp), %eax
	subl	-28(%rbp), %eax
	movl	%eax, %eax
	leaq	0(,%rax,4), %rdx
	movq	0(%rbp), %rax
	addq	%rax, %rdx
	movl	-40(%rbp), %eax
	movl	%eax, (%rdx)
.L243:
	.loc 2 942 0
	addl	$1, 20(%rbp)
	jmp	.L273
.L241:
.LBB31:
.LBB32:
	.loc 2 944 0
	cmpl	$16, -40(%rbp)
	jne	.L245
.LBB33:
	.loc 2 945 0
	movl	$3, -52(%rbp)
	.loc 2 948 0
	cmpl	$0, 20(%rbp)
	jne	.L246
	.loc 2 948 0 is_stmt 0 discriminator 1
	movl	$54, 28(%rbp)
	jmp	.L240
.L246:
	.loc 2 950 0 is_stmt 1
	movq	88(%rbp), %rax
	movq	(%rax), %rax
	addq	$2, %rax
	cmpq	%rax, -24(%rbp)
	jnb	.L247
	.loc 2 950 0 is_stmt 0 discriminator 1
	movl	$50, 28(%rbp)
	jmp	.L240
.L247:
	.loc 2 951 0 is_stmt 1
	movq	80(%rbp), %rdx
	movq	88(%rbp), %rax
	movl	$2, %r8d
	movq	%rax, %rcx
	call	_ZL18readBitsFromStreamPyPKhy
	addl	%eax, -52(%rbp)
	.loc 2 953 0
	movl	-28(%rbp), %eax
	addl	$1, %eax
	cmpl	%eax, 20(%rbp)
	jnb	.L248
	.loc 2 953 0 is_stmt 0 discriminator 1
	movl	20(%rbp), %eax
	subl	$1, %eax
	movl	%eax, %eax
	leaq	0(,%rax,4), %rdx
	movq	8(%rbp), %rax
	addq	%rdx, %rax
	movl	(%rax), %eax
	movl	%eax, -12(%rbp)
	jmp	.L249
.L248:
	.loc 2 954 0 is_stmt 1
	movl	20(%rbp), %eax
	subl	-28(%rbp), %eax
	subl	$1, %eax
	movl	%eax, %eax
	leaq	0(,%rax,4), %rdx
	movq	0(%rbp), %rax
	addq	%rdx, %rax
	movl	(%rax), %eax
	movl	%eax, -12(%rbp)
.L249:
	.loc 2 956 0
	movl	$0, 24(%rbp)
.L254:
	.loc 2 956 0 is_stmt 0 discriminator 1
	movl	24(%rbp), %eax
	cmpl	-52(%rbp), %eax
	jnb	.L273
	.loc 2 957 0 is_stmt 1
	movl	-28(%rbp), %edx
	movl	-32(%rbp), %eax
	addl	%edx, %eax
	cmpl	%eax, 20(%rbp)
	jb	.L251
	.loc 2 957 0 is_stmt 0 discriminator 1
	movl	$13, 28(%rbp)
	jmp	.L244
.L251:
	.loc 2 958 0 is_stmt 1
	movl	20(%rbp), %eax
	cmpl	-28(%rbp), %eax
	jnb	.L252
	.loc 2 958 0 is_stmt 0 discriminator 1
	movl	20(%rbp), %eax
	leaq	0(,%rax,4), %rdx
	movq	8(%rbp), %rax
	addq	%rax, %rdx
	movl	-12(%rbp), %eax
	movl	%eax, (%rdx)
	jmp	.L253
.L252:
	.loc 2 959 0 is_stmt 1
	movl	20(%rbp), %eax
	subl	-28(%rbp), %eax
	movl	%eax, %eax
	leaq	0(,%rax,4), %rdx
	movq	0(%rbp), %rax
	addq	%rax, %rdx
	movl	-12(%rbp), %eax
	movl	%eax, (%rdx)
.L253:
	.loc 2 960 0 discriminator 2
	addl	$1, 20(%rbp)
	.loc 2 956 0 discriminator 2
	addl	$1, 24(%rbp)
	jmp	.L254
.L245:
.LBE33:
.LBB34:
.LBB35:
	.loc 2 963 0
	cmpl	$17, -40(%rbp)
	jne	.L255
.LBB36:
	.loc 2 964 0
	movl	$3, -48(%rbp)
	.loc 2 965 0
	movq	88(%rbp), %rax
	movq	(%rax), %rax
	addq	$3, %rax
	cmpq	%rax, -24(%rbp)
	jnb	.L256
	.loc 2 965 0 is_stmt 0 discriminator 1
	movl	$50, 28(%rbp)
	jmp	.L240
.L256:
	.loc 2 966 0 is_stmt 1
	movq	80(%rbp), %rdx
	movq	88(%rbp), %rax
	movl	$3, %r8d
	movq	%rax, %rcx
	call	_ZL18readBitsFromStreamPyPKhy
	addl	%eax, -48(%rbp)
	.loc 2 969 0
	movl	$0, 24(%rbp)
.L261:
	.loc 2 969 0 is_stmt 0 discriminator 1
	movl	24(%rbp), %eax
	cmpl	-48(%rbp), %eax
	jnb	.L273
	.loc 2 970 0 is_stmt 1
	movl	-28(%rbp), %edx
	movl	-32(%rbp), %eax
	addl	%edx, %eax
	cmpl	%eax, 20(%rbp)
	jb	.L258
	.loc 2 970 0 is_stmt 0 discriminator 1
	movl	$14, 28(%rbp)
	jmp	.L244
.L258:
	.loc 2 972 0 is_stmt 1
	movl	20(%rbp), %eax
	cmpl	-28(%rbp), %eax
	jnb	.L259
	.loc 2 972 0 is_stmt 0 discriminator 1
	movl	20(%rbp), %eax
	leaq	0(,%rax,4), %rdx
	movq	8(%rbp), %rax
	addq	%rdx, %rax
	movl	$0, (%rax)
	jmp	.L260
.L259:
	.loc 2 973 0 is_stmt 1
	movl	20(%rbp), %eax
	subl	-28(%rbp), %eax
	movl	%eax, %eax
	leaq	0(,%rax,4), %rdx
	movq	0(%rbp), %rax
	addq	%rdx, %rax
	movl	$0, (%rax)
.L260:
	.loc 2 974 0 discriminator 2
	addl	$1, 20(%rbp)
	.loc 2 969 0 discriminator 2
	addl	$1, 24(%rbp)
	jmp	.L261
.L255:
.LBE36:
.LBB37:
.LBB38:
	.loc 2 977 0
	cmpl	$18, -40(%rbp)
	jne	.L262
.LBB39:
	.loc 2 978 0
	movl	$11, -44(%rbp)
	.loc 2 979 0
	movq	88(%rbp), %rax
	movq	(%rax), %rax
	addq	$7, %rax
	cmpq	%rax, -24(%rbp)
	jnb	.L263
	.loc 2 979 0 is_stmt 0 discriminator 1
	movl	$50, 28(%rbp)
	jmp	.L240
.L263:
	.loc 2 980 0 is_stmt 1
	movq	80(%rbp), %rdx
	movq	88(%rbp), %rax
	movl	$7, %r8d
	movq	%rax, %rcx
	call	_ZL18readBitsFromStreamPyPKhy
	addl	%eax, -44(%rbp)
	.loc 2 983 0
	movl	$0, 24(%rbp)
.L268:
	.loc 2 983 0 is_stmt 0 discriminator 1
	movl	24(%rbp), %eax
	cmpl	-44(%rbp), %eax
	jnb	.L273
	.loc 2 984 0 is_stmt 1
	movl	-28(%rbp), %edx
	movl	-32(%rbp), %eax
	addl	%edx, %eax
	cmpl	%eax, 20(%rbp)
	jb	.L265
	.loc 2 984 0 is_stmt 0 discriminator 1
	movl	$15, 28(%rbp)
	jmp	.L244
.L265:
	.loc 2 986 0 is_stmt 1
	movl	20(%rbp), %eax
	cmpl	-28(%rbp), %eax
	jnb	.L266
	.loc 2 986 0 is_stmt 0 discriminator 1
	movl	20(%rbp), %eax
	leaq	0(,%rax,4), %rdx
	movq	8(%rbp), %rax
	addq	%rdx, %rax
	movl	$0, (%rax)
	jmp	.L267
.L266:
	.loc 2 987 0 is_stmt 1
	movl	20(%rbp), %eax
	subl	-28(%rbp), %eax
	movl	%eax, %eax
	leaq	0(,%rax,4), %rdx
	movq	0(%rbp), %rax
	addq	%rdx, %rax
	movl	$0, (%rax)
.L267:
	.loc 2 988 0 discriminator 2
	addl	$1, 20(%rbp)
	.loc 2 983 0 discriminator 2
	addl	$1, 24(%rbp)
	jmp	.L268
.L262:
.LBE39:
	.loc 2 992 0
	cmpl	$-1, -40(%rbp)
	jne	.L269
	.loc 2 995 0
	movq	88(%rbp), %rax
	movq	(%rax), %rax
	cmpq	%rax, -24(%rbp)
	jnb	.L270
	.loc 2 995 0 is_stmt 0 discriminator 1
	movl	$10, %eax
	jmp	.L271
.L270:
	.loc 2 995 0 discriminator 2
	movl	$11, %eax
.L271:
	.loc 2 995 0 discriminator 4
	movl	%eax, 28(%rbp)
	.loc 2 998 0 is_stmt 1 discriminator 4
	jmp	.L240
.L269:
	.loc 2 997 0
	movl	$16, 28(%rbp)
	.loc 2 998 0
	jmp	.L240
.L244:
.LBE38:
.LBE37:
.LBE35:
.LBE34:
.LBE32:
.LBE31:
.LBE30:
.LBE29:
	.loc 2 937 0 discriminator 1
	jmp	.L273
.L240:
	.loc 2 1001 0
	cmpl	$0, 28(%rbp)
	jne	.L279
	.loc 2 1003 0
	movq	8(%rbp), %rax
	addq	$1024, %rax
	movl	(%rax), %eax
	testl	%eax, %eax
	jne	.L275
	.loc 2 1003 0 is_stmt 0 discriminator 1
	movl	$64, 28(%rbp)
	jmp	.L227
.L275:
	.loc 2 1006 0 is_stmt 1
	movq	8(%rbp), %rax
	movl	$15, %r9d
	movl	$288, %r8d
	movq	%rax, %rdx
	movq	64(%rbp), %rcx
	call	_ZL27HuffmanTree_makeFromLengthsP11HuffmanTreePKjyj
	movl	%eax, 28(%rbp)
	.loc 2 1007 0
	cmpl	$0, 28(%rbp)
	jne	.L280
	.loc 2 1008 0
	movq	0(%rbp), %rdx
	movq	72(%rbp), %rax
	movl	$15, %r9d
	movl	$32, %r8d
	movq	%rax, %rcx
	call	_ZL27HuffmanTree_makeFromLengthsP11HuffmanTreePKjyj
	movl	%eax, 28(%rbp)
	.loc 2 1010 0
	jmp	.L227
.L278:
	.loc 2 926 0
	nop
	jmp	.L227
.L279:
	.loc 2 1001 0
	nop
	jmp	.L227
.L280:
	.loc 2 1007 0
	nop
.L227:
.LBE28:
	.loc 2 1013 0
	movq	-8(%rbp), %rax
	movq	%rax, %rcx
	call	_ZL12lodepng_freePv
	.loc 2 1014 0
	movq	8(%rbp), %rax
	movq	%rax, %rcx
	call	_ZL12lodepng_freePv
	.loc 2 1015 0
	movq	0(%rbp), %rax
	movq	%rax, %rcx
	call	_ZL12lodepng_freePv
	.loc 2 1016 0
	leaq	-96(%rbp), %rax
	movq	%rax, %rcx
	call	_ZL19HuffmanTree_cleanupP11HuffmanTree
	.loc 2 1018 0
	movl	28(%rbp), %eax
.L277:
	.loc 2 1019 0 discriminator 4
	addq	$168, %rsp
	popq	%rbx
	.cfi_restore 3
	popq	%rbp
	.cfi_restore 6
	.cfi_def_cfa 7, -152
	ret
	.cfi_endproc
.LFE1391:
	.seh_endproc
	.def	_ZL19inflateHuffmanBlockP8ucvectorPKhPyS3_yj;	.scl	3;	.type	32;	.endef
	.seh_proc	_ZL19inflateHuffmanBlockP8ucvectorPKhPyS3_yj
_ZL19inflateHuffmanBlockP8ucvectorPKhPyS3_yj:
.LFB1392:
	.loc 2 1023 0
	.cfi_startproc
	pushq	%rbp
	.seh_pushreg	%rbp
	.cfi_def_cfa_offset 16
	.cfi_offset 6, -16
	movq	%rsp, %rbp
	.seh_setframe	%rbp, 0
	.cfi_def_cfa_register 6
	subq	$192, %rsp
	.seh_stackalloc	192
	.seh_endprologue
	movq	%rcx, 16(%rbp)
	movq	%rdx, 24(%rbp)
	movq	%r8, 32(%rbp)
	movq	%r9, 40(%rbp)
	.loc 2 1024 0
	movl	$0, -4(%rbp)
	.loc 2 1027 0
	movq	48(%rbp), %rax
	salq	$3, %rax
	movq	%rax, -32(%rbp)
	.loc 2 1029 0
	leaq	-112(%rbp), %rax
	movq	%rax, %rcx
	call	_ZL16HuffmanTree_initP11HuffmanTree
	.loc 2 1030 0
	leaq	-144(%rbp), %rax
	movq	%rax, %rcx
	call	_ZL16HuffmanTree_initP11HuffmanTree
	.loc 2 1032 0
	cmpl	$1, 56(%rbp)
	jne	.L282
	.loc 2 1032 0 is_stmt 0 discriminator 1
	leaq	-144(%rbp), %rdx
	leaq	-112(%rbp), %rax
	movq	%rax, %rcx
	call	_ZL19getTreeInflateFixedP11HuffmanTreeS0_
	jmp	.L304
.L282:
	.loc 2 1033 0 is_stmt 1
	cmpl	$2, 56(%rbp)
	jne	.L304
	.loc 2 1033 0 is_stmt 0 discriminator 1
	movq	32(%rbp), %r9
	movq	24(%rbp), %r8
	leaq	-144(%rbp), %rdx
	leaq	-112(%rbp), %rax
	movq	48(%rbp), %rcx
	movq	%rcx, 32(%rsp)
	movq	%rax, %rcx
	call	_ZL21getTreeInflateDynamicP11HuffmanTreeS0_PKhPyy
	movl	%eax, -4(%rbp)
.L304:
	.loc 2 1035 0 is_stmt 1
	cmpl	$0, -4(%rbp)
	jne	.L284
.LBB40:
	.loc 2 1037 0
	movq	-32(%rbp), %r8
	leaq	-112(%rbp), %rcx
	movq	32(%rbp), %rdx
	movq	24(%rbp), %rax
	movq	%r8, %r9
	movq	%rcx, %r8
	movq	%rax, %rcx
	call	_ZL19huffmanDecodeSymbolPKhPyPK11HuffmanTreey
	movl	%eax, -36(%rbp)
.LBB41:
	.loc 2 1038 0
	cmpl	$255, -36(%rbp)
	ja	.L285
	.loc 2 1040 0
	movq	40(%rbp), %rax
	movq	(%rax), %rax
	addq	$1, %rax
	movq	%rax, %rdx
	movq	16(%rbp), %rcx
	call	_ZL15ucvector_resizeP8ucvectory
	testl	%eax, %eax
	sete	%al
	testb	%al, %al
	je	.L286
	.loc 2 1040 0 is_stmt 0 discriminator 1
	movl	$83, -4(%rbp)
	jmp	.L284
.L286:
	.loc 2 1041 0 is_stmt 1
	movq	16(%rbp), %rax
	movq	(%rax), %rdx
	movq	40(%rbp), %rax
	movq	(%rax), %rax
	addq	%rdx, %rax
	movl	-36(%rbp), %edx
	movb	%dl, (%rax)
	.loc 2 1042 0
	movq	40(%rbp), %rax
	movq	(%rax), %rax
	leaq	1(%rax), %rdx
	movq	40(%rbp), %rax
	movq	%rdx, (%rax)
	jmp	.L304
.L285:
.LBB42:
.LBB43:
	.loc 2 1044 0
	cmpl	$256, -36(%rbp)
	jbe	.L288
	.loc 2 1044 0 is_stmt 0 discriminator 1
	cmpl	$285, -36(%rbp)
	ja	.L288
.LBB44:
	.loc 2 1050 0 is_stmt 1
	movl	-36(%rbp), %eax
	subl	$257, %eax
	movl	%eax, %eax
	leaq	0(,%rax,4), %rdx
	leaq	_ZL10LENGTHBASE(%rip), %rax
	movl	(%rdx,%rax), %eax
	movl	%eax, %eax
	movq	%rax, -48(%rbp)
	.loc 2 1053 0
	movl	-36(%rbp), %eax
	subl	$257, %eax
	movl	%eax, %eax
	leaq	0(,%rax,4), %rdx
	leaq	_ZL11LENGTHEXTRA(%rip), %rax
	movl	(%rdx,%rax), %eax
	movl	%eax, -52(%rbp)
	.loc 2 1054 0
	movq	32(%rbp), %rax
	movq	(%rax), %rdx
	movl	-52(%rbp), %eax
	addq	%rdx, %rax
	cmpq	%rax, -32(%rbp)
	jnb	.L289
	.loc 2 1054 0 is_stmt 0 discriminator 1
	movl	$51, -4(%rbp)
	jmp	.L284
.L289:
	.loc 2 1055 0 is_stmt 1
	movl	-52(%rbp), %ecx
	movq	24(%rbp), %rdx
	movq	32(%rbp), %rax
	movq	%rcx, %r8
	movq	%rax, %rcx
	call	_ZL18readBitsFromStreamPyPKhy
	movl	%eax, %eax
	addq	%rax, -48(%rbp)
	.loc 2 1058 0
	movq	-32(%rbp), %r8
	leaq	-144(%rbp), %rcx
	movq	32(%rbp), %rdx
	movq	24(%rbp), %rax
	movq	%r8, %r9
	movq	%rcx, %r8
	movq	%rax, %rcx
	call	_ZL19huffmanDecodeSymbolPKhPyPK11HuffmanTreey
	movl	%eax, -56(%rbp)
	.loc 2 1059 0
	cmpl	$29, -56(%rbp)
	jbe	.L290
	.loc 2 1060 0
	cmpl	$-1, -56(%rbp)
	jne	.L291
	.loc 2 1063 0
	movq	32(%rbp), %rax
	movq	(%rax), %rax
	movq	48(%rbp), %rdx
	salq	$3, %rdx
	cmpq	%rdx, %rax
	jbe	.L292
	.loc 2 1063 0 is_stmt 0 discriminator 1
	movl	$10, %eax
	jmp	.L293
.L292:
	.loc 2 1063 0 discriminator 2
	movl	$11, %eax
.L293:
	.loc 2 1063 0 discriminator 4
	movl	%eax, -4(%rbp)
	.loc 2 1066 0 is_stmt 1 discriminator 4
	jmp	.L284
.L291:
	.loc 2 1065 0
	movl	$18, -4(%rbp)
	.loc 2 1066 0
	jmp	.L284
.L290:
	.loc 2 1068 0
	movl	-56(%rbp), %eax
	leaq	0(,%rax,4), %rdx
	leaq	_ZL12DISTANCEBASE(%rip), %rax
	movl	(%rdx,%rax), %eax
	movl	%eax, -60(%rbp)
	.loc 2 1071 0
	movl	-56(%rbp), %eax
	leaq	0(,%rax,4), %rdx
	leaq	_ZL13DISTANCEEXTRA(%rip), %rax
	movl	(%rdx,%rax), %eax
	movl	%eax, -64(%rbp)
	.loc 2 1072 0
	movq	32(%rbp), %rax
	movq	(%rax), %rdx
	movl	-64(%rbp), %eax
	addq	%rdx, %rax
	cmpq	%rax, -32(%rbp)
	jnb	.L295
	.loc 2 1072 0 is_stmt 0 discriminator 1
	movl	$51, -4(%rbp)
	jmp	.L284
.L295:
	.loc 2 1073 0 is_stmt 1
	movl	-64(%rbp), %ecx
	movq	24(%rbp), %rdx
	movq	32(%rbp), %rax
	movq	%rcx, %r8
	movq	%rax, %rcx
	call	_ZL18readBitsFromStreamPyPKhy
	addl	%eax, -60(%rbp)
	.loc 2 1076 0
	movq	40(%rbp), %rax
	movq	(%rax), %rax
	movq	%rax, -72(%rbp)
	.loc 2 1077 0
	movl	-60(%rbp), %eax
	cmpq	%rax, -72(%rbp)
	jnb	.L296
	.loc 2 1077 0 is_stmt 0 discriminator 1
	movl	$52, -4(%rbp)
	jmp	.L284
.L296:
	.loc 2 1078 0 is_stmt 1
	movl	-60(%rbp), %eax
	movq	-72(%rbp), %rdx
	subq	%rax, %rdx
	movq	%rdx, %rax
	movq	%rax, -24(%rbp)
	.loc 2 1080 0
	movq	40(%rbp), %rax
	movq	(%rax), %rdx
	movq	-48(%rbp), %rax
	addq	%rdx, %rax
	movq	%rax, %rdx
	movq	16(%rbp), %rcx
	call	_ZL15ucvector_resizeP8ucvectory
	testl	%eax, %eax
	sete	%al
	testb	%al, %al
	je	.L297
	.loc 2 1080 0 is_stmt 0 discriminator 1
	movl	$83, -4(%rbp)
	jmp	.L284
.L297:
	.loc 2 1081 0 is_stmt 1
	movl	-60(%rbp), %eax
	cmpq	%rax, -48(%rbp)
	jbe	.L298
	.loc 2 1082 0
	movq	$0, -16(%rbp)
.L300:
	.loc 2 1082 0 is_stmt 0 discriminator 3
	movq	-16(%rbp), %rax
	cmpq	-48(%rbp), %rax
	jnb	.L306
	.loc 2 1083 0 is_stmt 1 discriminator 2
	movq	16(%rbp), %rax
	movq	(%rax), %rcx
	movq	-24(%rbp), %rax
	leaq	1(%rax), %rdx
	movq	%rdx, -24(%rbp)
	leaq	(%rcx,%rax), %r8
	movq	16(%rbp), %rax
	movq	(%rax), %r9
	movq	40(%rbp), %rax
	movq	(%rax), %rax
	leaq	1(%rax), %rcx
	movq	40(%rbp), %rdx
	movq	%rcx, (%rdx)
	leaq	(%r9,%rax), %rdx
	movzbl	(%r8), %eax
	movb	%al, (%rdx)
	.loc 2 1082 0 discriminator 2
	addq	$1, -16(%rbp)
	jmp	.L300
.L298:
	.loc 2 1087 0
	movq	16(%rbp), %rax
	movq	(%rax), %rdx
	movq	-24(%rbp), %rax
	addq	%rax, %rdx
	movq	16(%rbp), %rax
	movq	(%rax), %rcx
	movq	40(%rbp), %rax
	movq	(%rax), %rax
	addq	%rcx, %rax
	movq	-48(%rbp), %rcx
	movq	%rcx, %r8
	movq	%rax, %rcx
	call	memcpy
	.loc 2 1088 0
	movq	40(%rbp), %rax
	movq	(%rax), %rdx
	movq	-48(%rbp), %rax
	addq	%rax, %rdx
	movq	40(%rbp), %rax
	movq	%rdx, (%rax)
.LBE44:
	.loc 2 1089 0
	jmp	.L306
.L288:
	.loc 2 1091 0
	cmpl	$256, -36(%rbp)
	je	.L307
	.loc 2 1097 0
	movq	32(%rbp), %rax
	movq	(%rax), %rax
	movq	48(%rbp), %rdx
	salq	$3, %rdx
	cmpq	%rdx, %rax
	jbe	.L302
	.loc 2 1097 0 is_stmt 0 discriminator 1
	movl	$10, %eax
	jmp	.L303
.L302:
	.loc 2 1097 0 discriminator 2
	movl	$11, %eax
.L303:
	.loc 2 1097 0 discriminator 4
	movl	%eax, -4(%rbp)
	.loc 2 1098 0 is_stmt 1 discriminator 4
	jmp	.L284
.L306:
	.loc 2 1089 0
	nop
.LBE43:
.LBE42:
.LBE41:
.LBE40:
	.loc 2 1035 0
	jmp	.L304
.L307:
.LBB48:
.LBB47:
.LBB46:
.LBB45:
	.loc 2 1092 0
	nop
.L284:
.LBE45:
.LBE46:
.LBE47:
.LBE48:
	.loc 2 1102 0
	leaq	-112(%rbp), %rax
	movq	%rax, %rcx
	call	_ZL19HuffmanTree_cleanupP11HuffmanTree
	.loc 2 1103 0
	leaq	-144(%rbp), %rax
	movq	%rax, %rcx
	call	_ZL19HuffmanTree_cleanupP11HuffmanTree
	.loc 2 1105 0
	movl	-4(%rbp), %eax
	.loc 2 1106 0
	addq	$192, %rsp
	popq	%rbp
	.cfi_restore 6
	.cfi_def_cfa 7, 8
	ret
	.cfi_endproc
.LFE1392:
	.seh_endproc
	.def	_ZL20inflateNoCompressionP8ucvectorPKhPyS3_y;	.scl	3;	.type	32;	.endef
	.seh_proc	_ZL20inflateNoCompressionP8ucvectorPKhPyS3_y
_ZL20inflateNoCompressionP8ucvectorPKhPyS3_y:
.LFB1393:
	.loc 2 1108 0
	.cfi_startproc
	pushq	%rbp
	.seh_pushreg	%rbp
	.cfi_def_cfa_offset 16
	.cfi_offset 6, -16
	movq	%rsp, %rbp
	.seh_setframe	%rbp, 0
	.cfi_def_cfa_register 6
	subq	$64, %rsp
	.seh_stackalloc	64
	.seh_endprologue
	movq	%rcx, 16(%rbp)
	movq	%rdx, 24(%rbp)
	movq	%r8, 32(%rbp)
	movq	%r9, 40(%rbp)
	.loc 2 1110 0
	movl	$0, -16(%rbp)
.L310:
	.loc 2 1113 0 discriminator 2
	movq	32(%rbp), %rax
	movq	(%rax), %rax
	andl	$7, %eax
	testq	%rax, %rax
	je	.L309
	.loc 2 1113 0 is_stmt 0 discriminator 1
	movq	32(%rbp), %rax
	movq	(%rax), %rax
	leaq	1(%rax), %rdx
	movq	32(%rbp), %rax
	movq	%rdx, (%rax)
	jmp	.L310
.L309:
	.loc 2 1114 0 is_stmt 1
	movq	32(%rbp), %rax
	movq	(%rax), %rax
	shrq	$3, %rax
	movq	%rax, -8(%rbp)
	.loc 2 1117 0
	movq	-8(%rbp), %rax
	addq	$4, %rax
	cmpq	%rax, 48(%rbp)
	ja	.L311
	.loc 2 1117 0 is_stmt 0 discriminator 1
	movl	$52, %eax
	jmp	.L312
.L311:
	.loc 2 1118 0 is_stmt 1
	movq	24(%rbp), %rdx
	movq	-8(%rbp), %rax
	addq	%rdx, %rax
	movzbl	(%rax), %eax
	movzbl	%al, %eax
	movq	-8(%rbp), %rdx
	leaq	1(%rdx), %rcx
	movq	24(%rbp), %rdx
	addq	%rcx, %rdx
	movzbl	(%rdx), %edx
	movzbl	%dl, %edx
	sall	$8, %edx
	addl	%edx, %eax
	movl	%eax, -20(%rbp)
	addq	$2, -8(%rbp)
	.loc 2 1119 0
	movq	24(%rbp), %rdx
	movq	-8(%rbp), %rax
	addq	%rdx, %rax
	movzbl	(%rax), %eax
	movzbl	%al, %eax
	movq	-8(%rbp), %rdx
	leaq	1(%rdx), %rcx
	movq	24(%rbp), %rdx
	addq	%rcx, %rdx
	movzbl	(%rdx), %edx
	movzbl	%dl, %edx
	sall	$8, %edx
	addl	%edx, %eax
	movl	%eax, -24(%rbp)
	addq	$2, -8(%rbp)
	.loc 2 1122 0
	movl	-20(%rbp), %edx
	movl	-24(%rbp), %eax
	addl	%edx, %eax
	cmpl	$65535, %eax
	je	.L313
	.loc 2 1122 0 is_stmt 0 discriminator 1
	movl	$21, %eax
	jmp	.L312
.L313:
	.loc 2 1124 0 is_stmt 1
	movq	40(%rbp), %rax
	movq	(%rax), %rdx
	movl	-20(%rbp), %eax
	addq	%rdx, %rax
	movq	%rax, %rdx
	movq	16(%rbp), %rcx
	call	_ZL15ucvector_resizeP8ucvectory
	testl	%eax, %eax
	sete	%al
	testb	%al, %al
	je	.L314
	.loc 2 1124 0 is_stmt 0 discriminator 1
	movl	$83, %eax
	jmp	.L312
.L314:
	.loc 2 1127 0 is_stmt 1
	movl	-20(%rbp), %edx
	movq	-8(%rbp), %rax
	addq	%rdx, %rax
	cmpq	%rax, 48(%rbp)
	jnb	.L315
	.loc 2 1127 0 is_stmt 0 discriminator 1
	movl	$23, %eax
	jmp	.L312
.L315:
	.loc 2 1128 0 is_stmt 1
	movl	$0, -12(%rbp)
.L317:
	.loc 2 1128 0 is_stmt 0 discriminator 3
	movl	-12(%rbp), %eax
	cmpl	-20(%rbp), %eax
	jnb	.L316
	.loc 2 1128 0 discriminator 2
	movq	-8(%rbp), %rax
	leaq	1(%rax), %rdx
	movq	%rdx, -8(%rbp)
	movq	24(%rbp), %rdx
	leaq	(%rax,%rdx), %r8
	movq	16(%rbp), %rax
	movq	(%rax), %r9
	movq	40(%rbp), %rax
	movq	(%rax), %rax
	leaq	1(%rax), %rcx
	movq	40(%rbp), %rdx
	movq	%rcx, (%rdx)
	leaq	(%r9,%rax), %rdx
	movzbl	(%r8), %eax
	movb	%al, (%rdx)
	addl	$1, -12(%rbp)
	jmp	.L317
.L316:
	.loc 2 1130 0 is_stmt 1
	movq	-8(%rbp), %rax
	leaq	0(,%rax,8), %rdx
	movq	32(%rbp), %rax
	movq	%rdx, (%rax)
	.loc 2 1132 0
	movl	-16(%rbp), %eax
.L312:
	.loc 2 1133 0
	addq	$64, %rsp
	popq	%rbp
	.cfi_restore 6
	.cfi_def_cfa 7, 8
	ret
	.cfi_endproc
.LFE1393:
	.seh_endproc
	.def	_ZL16lodepng_inflatevP8ucvectorPKhyPK25LodePNGDecompressSettings;	.scl	3;	.type	32;	.endef
	.seh_proc	_ZL16lodepng_inflatevP8ucvectorPKhyPK25LodePNGDecompressSettings
_ZL16lodepng_inflatevP8ucvectorPKhyPK25LodePNGDecompressSettings:
.LFB1394:
	.loc 2 1137 0
	.cfi_startproc
	pushq	%rbp
	.seh_pushreg	%rbp
	.cfi_def_cfa_offset 16
	.cfi_offset 6, -16
	movq	%rsp, %rbp
	.seh_setframe	%rbp, 0
	.cfi_def_cfa_register 6
	subq	$80, %rsp
	.seh_stackalloc	80
	.seh_endprologue
	movq	%rcx, 16(%rbp)
	movq	%rdx, 24(%rbp)
	movq	%r8, 32(%rbp)
	movq	%r9, 40(%rbp)
	.loc 2 1139 0
	movq	$0, -24(%rbp)
	.loc 2 1140 0
	movl	$0, -4(%rbp)
	.loc 2 1141 0
	movq	$0, -32(%rbp)
	.loc 2 1142 0
	movl	$0, -8(%rbp)
.L326:
	.loc 2 1146 0
	cmpl	$0, -4(%rbp)
	jne	.L319
.LBB49:
	.loc 2 1148 0
	movq	-24(%rbp), %rax
	leaq	2(%rax), %rdx
	movq	32(%rbp), %rax
	salq	$3, %rax
	cmpq	%rax, %rdx
	jb	.L320
	.loc 2 1148 0 is_stmt 0 discriminator 1
	movl	$52, %eax
	jmp	.L327
.L320:
	.loc 2 1149 0 is_stmt 1
	movq	24(%rbp), %rdx
	leaq	-24(%rbp), %rax
	movq	%rax, %rcx
	call	_ZL17readBitFromStreamPyPKh
	movzbl	%al, %eax
	movl	%eax, -4(%rbp)
	.loc 2 1150 0
	movq	24(%rbp), %rdx
	leaq	-24(%rbp), %rax
	movq	%rax, %rcx
	call	_ZL17readBitFromStreamPyPKh
	movzbl	%al, %eax
	movl	%eax, -12(%rbp)
	.loc 2 1151 0
	movq	24(%rbp), %rdx
	leaq	-24(%rbp), %rax
	movq	%rax, %rcx
	call	_ZL17readBitFromStreamPyPKh
	movzbl	%al, %eax
	addl	%eax, %eax
	addl	%eax, -12(%rbp)
	.loc 2 1153 0
	cmpl	$3, -12(%rbp)
	jne	.L322
	.loc 2 1153 0 is_stmt 0 discriminator 1
	movl	$20, %eax
	jmp	.L327
.L322:
	.loc 2 1154 0 is_stmt 1
	cmpl	$0, -12(%rbp)
	jne	.L323
	.loc 2 1154 0 is_stmt 0 discriminator 1
	leaq	-32(%rbp), %r8
	leaq	-24(%rbp), %rcx
	movq	24(%rbp), %rax
	movq	32(%rbp), %rdx
	movq	%rdx, 32(%rsp)
	movq	%r8, %r9
	movq	%rcx, %r8
	movq	%rax, %rdx
	movq	16(%rbp), %rcx
	call	_ZL20inflateNoCompressionP8ucvectorPKhPyS3_y
	movl	%eax, -8(%rbp)
	jmp	.L324
.L323:
	.loc 2 1155 0 is_stmt 1
	leaq	-32(%rbp), %r8
	leaq	-24(%rbp), %rcx
	movq	24(%rbp), %rax
	movl	-12(%rbp), %edx
	movl	%edx, 40(%rsp)
	movq	32(%rbp), %rdx
	movq	%rdx, 32(%rsp)
	movq	%r8, %r9
	movq	%rcx, %r8
	movq	%rax, %rdx
	movq	16(%rbp), %rcx
	call	_ZL19inflateHuffmanBlockP8ucvectorPKhPyS3_yj
	movl	%eax, -8(%rbp)
.L324:
	.loc 2 1157 0
	cmpl	$0, -8(%rbp)
	je	.L326
	.loc 2 1157 0 is_stmt 0 discriminator 1
	movl	-8(%rbp), %eax
	jmp	.L327
.L319:
.LBE49:
	.loc 2 1160 0 is_stmt 1
	movl	-8(%rbp), %eax
.L327:
	.loc 2 1161 0 discriminator 1
	addq	$80, %rsp
	popq	%rbp
	.cfi_restore 6
	.cfi_def_cfa 7, 8
	ret
	.cfi_endproc
.LFE1394:
	.seh_endproc
	.globl	_Z15lodepng_inflatePPhPyPKhyPK25LodePNGDecompressSettings
	.def	_Z15lodepng_inflatePPhPyPKhyPK25LodePNGDecompressSettings;	.scl	2;	.type	32;	.endef
	.seh_proc	_Z15lodepng_inflatePPhPyPKhyPK25LodePNGDecompressSettings
_Z15lodepng_inflatePPhPyPKhyPK25LodePNGDecompressSettings:
.LFB1395:
	.loc 2 1165 0
	.cfi_startproc
	pushq	%rbp
	.seh_pushreg	%rbp
	.cfi_def_cfa_offset 16
	.cfi_offset 6, -16
	movq	%rsp, %rbp
	.seh_setframe	%rbp, 0
	.cfi_def_cfa_register 6
	subq	$64, %rsp
	.seh_stackalloc	64
	.seh_endprologue
	movq	%rcx, 16(%rbp)
	movq	%rdx, 24(%rbp)
	movq	%r8, 32(%rbp)
	movq	%r9, 40(%rbp)
	.loc 2 1168 0
	movq	24(%rbp), %rax
	movq	(%rax), %rcx
	movq	16(%rbp), %rax
	movq	(%rax), %rdx
	leaq	-32(%rbp), %rax
	movq	%rcx, %r8
	movq	%rax, %rcx
	call	_ZL20ucvector_init_bufferP8ucvectorPhy
	.loc 2 1169 0
	movq	48(%rbp), %r8
	movq	40(%rbp), %rcx
	movq	32(%rbp), %rdx
	leaq	-32(%rbp), %rax
	movq	%r8, %r9
	movq	%rcx, %r8
	movq	%rax, %rcx
	call	_ZL16lodepng_inflatevP8ucvectorPKhyPK25LodePNGDecompressSettings
	movl	%eax, -4(%rbp)
	.loc 2 1170 0
	movq	-32(%rbp), %rdx
	movq	16(%rbp), %rax
	movq	%rdx, (%rax)
	.loc 2 1171 0
	movq	-24(%rbp), %rdx
	movq	24(%rbp), %rax
	movq	%rdx, (%rax)
	.loc 2 1172 0
	movl	-4(%rbp), %eax
	.loc 2 1173 0
	addq	$64, %rsp
	popq	%rbp
	.cfi_restore 6
	.cfi_def_cfa 7, 8
	ret
	.cfi_endproc
.LFE1395:
	.seh_endproc
	.def	_ZL7inflatePPhPyPKhyPK25LodePNGDecompressSettings;	.scl	3;	.type	32;	.endef
	.seh_proc	_ZL7inflatePPhPyPKhyPK25LodePNGDecompressSettings
_ZL7inflatePPhPyPKhyPK25LodePNGDecompressSettings:
.LFB1396:
	.loc 2 1177 0
	.cfi_startproc
	pushq	%rbp
	.seh_pushreg	%rbp
	.cfi_def_cfa_offset 16
	.cfi_offset 6, -16
	movq	%rsp, %rbp
	.seh_setframe	%rbp, 0
	.cfi_def_cfa_register 6
	subq	$48, %rsp
	.seh_stackalloc	48
	.seh_endprologue
	movq	%rcx, 16(%rbp)
	movq	%rdx, 24(%rbp)
	movq	%r8, 32(%rbp)
	movq	%r9, 40(%rbp)
	.loc 2 1178 0
	movq	48(%rbp), %rax
	movq	16(%rax), %rax
	testq	%rax, %rax
	je	.L331
	.loc 2 1179 0
	movq	48(%rbp), %rax
	movq	16(%rax), %rax
	movq	40(%rbp), %r9
	movq	32(%rbp), %r8
	movq	24(%rbp), %rdx
	movq	48(%rbp), %rcx
	movq	%rcx, 32(%rsp)
	movq	16(%rbp), %rcx
	call	*%rax
.LVL0:
	jmp	.L332
.L331:
	.loc 2 1182 0
	movq	40(%rbp), %r8
	movq	32(%rbp), %rcx
	movq	24(%rbp), %rax
	movq	48(%rbp), %rdx
	movq	%rdx, 32(%rsp)
	movq	%r8, %r9
	movq	%rcx, %r8
	movq	%rax, %rdx
	movq	16(%rbp), %rcx
	call	_Z15lodepng_inflatePPhPyPKhyPK25LodePNGDecompressSettings
.L332:
	.loc 2 1184 0
	addq	$48, %rsp
	popq	%rbp
	.cfi_restore 6
	.cfi_def_cfa 7, 8
	ret
	.cfi_endproc
.LFE1396:
	.seh_endproc
	.section .rdata,"dr"
	.align 8
_ZL28MAX_SUPPORTED_DEFLATE_LENGTH:
	.quad	258
	.text
	.def	_ZL16addHuffmanSymbolPyP8ucvectorjj;	.scl	3;	.type	32;	.endef
	.seh_proc	_ZL16addHuffmanSymbolPyP8ucvectorjj
_ZL16addHuffmanSymbolPyP8ucvectorjj:
.LFB1397:
	.loc 2 1197 0
	.cfi_startproc
	pushq	%rbp
	.seh_pushreg	%rbp
	.cfi_def_cfa_offset 16
	.cfi_offset 6, -16
	movq	%rsp, %rbp
	.seh_setframe	%rbp, 0
	.cfi_def_cfa_register 6
	subq	$32, %rsp
	.seh_stackalloc	32
	.seh_endprologue
	movq	%rcx, 16(%rbp)
	movq	%rdx, 24(%rbp)
	movl	%r8d, 32(%rbp)
	movl	%r9d, 40(%rbp)
	.loc 2 1198 0
	movl	40(%rbp), %ecx
	movl	32(%rbp), %edx
	movq	24(%rbp), %rax
	movq	%rcx, %r9
	movl	%edx, %r8d
	movq	%rax, %rdx
	movq	16(%rbp), %rcx
	call	_ZL23addBitsToStreamReversedPyP8ucvectorjy
	.loc 2 1199 0
	nop
	addq	$32, %rsp
	popq	%rbp
	.cfi_restore 6
	.cfi_def_cfa 7, 8
	ret
	.cfi_endproc
.LFE1397:
	.seh_endproc
	.def	_ZL15searchCodeIndexPKjyy;	.scl	3;	.type	32;	.endef
	.seh_proc	_ZL15searchCodeIndexPKjyy
_ZL15searchCodeIndexPKjyy:
.LFB1398:
	.loc 2 1203 0
	.cfi_startproc
	pushq	%rbp
	.seh_pushreg	%rbp
	.cfi_def_cfa_offset 16
	.cfi_offset 6, -16
	movq	%rsp, %rbp
	.seh_setframe	%rbp, 0
	.cfi_def_cfa_register 6
	subq	$32, %rsp
	.seh_stackalloc	32
	.seh_endprologue
	movq	%rcx, 16(%rbp)
	movq	%rdx, 24(%rbp)
	movq	%r8, 32(%rbp)
	.loc 2 1205 0
	movq	$1, -8(%rbp)
	.loc 2 1206 0
	movq	24(%rbp), %rax
	subq	$1, %rax
	movq	%rax, -16(%rbp)
.L338:
	.loc 2 1208 0
	movq	-8(%rbp), %rax
	cmpq	-16(%rbp), %rax
	ja	.L335
.LBB50:
	.loc 2 1209 0
	movq	-8(%rbp), %rdx
	movq	-16(%rbp), %rax
	addq	%rdx, %rax
	shrq	%rax
	movq	%rax, -24(%rbp)
	.loc 2 1210 0
	movq	-24(%rbp), %rax
	leaq	0(,%rax,4), %rdx
	movq	16(%rbp), %rax
	addq	%rdx, %rax
	movl	(%rax), %eax
	movl	%eax, %eax
	cmpq	%rax, 32(%rbp)
	ja	.L336
	.loc 2 1210 0 is_stmt 0 discriminator 1
	movq	-24(%rbp), %rax
	subq	$1, %rax
	movq	%rax, -16(%rbp)
	jmp	.L338
.L336:
	.loc 2 1211 0 is_stmt 1
	movq	-24(%rbp), %rax
	addq	$1, %rax
	movq	%rax, -8(%rbp)
.LBE50:
	.loc 2 1208 0
	jmp	.L338
.L335:
	.loc 2 1213 0
	movq	-8(%rbp), %rax
	cmpq	24(%rbp), %rax
	jnb	.L339
	.loc 2 1213 0 is_stmt 0 discriminator 2
	movq	-8(%rbp), %rax
	leaq	0(,%rax,4), %rdx
	movq	16(%rbp), %rax
	addq	%rdx, %rax
	movl	(%rax), %eax
	movl	%eax, %eax
	cmpq	%rax, 32(%rbp)
	jnb	.L340
.L339:
	.loc 2 1213 0 discriminator 3
	subq	$1, -8(%rbp)
.L340:
	.loc 2 1214 0 is_stmt 1
	movq	-8(%rbp), %rax
	.loc 2 1215 0
	addq	$32, %rsp
	popq	%rbp
	.cfi_restore 6
	.cfi_def_cfa 7, 8
	ret
	.cfi_endproc
.LFE1398:
	.seh_endproc
	.def	_ZL17addLengthDistanceP8uivectoryy;	.scl	3;	.type	32;	.endef
	.seh_proc	_ZL17addLengthDistanceP8uivectoryy
_ZL17addLengthDistanceP8uivectoryy:
.LFB1399:
	.loc 2 1217 0
	.cfi_startproc
	pushq	%rbp
	.seh_pushreg	%rbp
	.cfi_def_cfa_offset 16
	.cfi_offset 6, -16
	movq	%rsp, %rbp
	.seh_setframe	%rbp, 0
	.cfi_def_cfa_register 6
	subq	$48, %rsp
	.seh_stackalloc	48
	.seh_endprologue
	movq	%rcx, 16(%rbp)
	movq	%rdx, 24(%rbp)
	movq	%r8, 32(%rbp)
	.loc 2 1224 0
	movq	24(%rbp), %rax
	movq	%rax, %r8
	movl	$29, %edx
	leaq	_ZL10LENGTHBASE(%rip), %rcx
	call	_ZL15searchCodeIndexPKjyy
	movl	%eax, -4(%rbp)
	.loc 2 1225 0
	movq	24(%rbp), %rax
	movl	%eax, %ecx
	movl	-4(%rbp), %eax
	leaq	0(,%rax,4), %rdx
	leaq	_ZL10LENGTHBASE(%rip), %rax
	movl	(%rdx,%rax), %eax
	subl	%eax, %ecx
	movl	%ecx, %eax
	movl	%eax, -8(%rbp)
	.loc 2 1226 0
	movq	32(%rbp), %rax
	movq	%rax, %r8
	movl	$30, %edx
	leaq	_ZL12DISTANCEBASE(%rip), %rcx
	call	_ZL15searchCodeIndexPKjyy
	movl	%eax, -12(%rbp)
	.loc 2 1227 0
	movq	32(%rbp), %rax
	movl	%eax, %ecx
	movl	-12(%rbp), %eax
	leaq	0(,%rax,4), %rdx
	leaq	_ZL12DISTANCEBASE(%rip), %rax
	movl	(%rdx,%rax), %eax
	subl	%eax, %ecx
	movl	%ecx, %eax
	movl	%eax, -16(%rbp)
	.loc 2 1229 0
	movl	-4(%rbp), %eax
	addl	$257, %eax
	movl	%eax, %edx
	movq	16(%rbp), %rcx
	call	_ZL18uivector_push_backP8uivectorj
	.loc 2 1230 0
	movl	-8(%rbp), %eax
	movl	%eax, %edx
	movq	16(%rbp), %rcx
	call	_ZL18uivector_push_backP8uivectorj
	.loc 2 1231 0
	movl	-12(%rbp), %eax
	movl	%eax, %edx
	movq	16(%rbp), %rcx
	call	_ZL18uivector_push_backP8uivectorj
	.loc 2 1232 0
	movl	-16(%rbp), %eax
	movl	%eax, %edx
	movq	16(%rbp), %rcx
	call	_ZL18uivector_push_backP8uivectorj
	.loc 2 1233 0
	nop
	addq	$48, %rsp
	popq	%rbp
	.cfi_restore 6
	.cfi_def_cfa 7, 8
	ret
	.cfi_endproc
.LFE1399:
	.seh_endproc
	.section .rdata,"dr"
	.align 4
_ZL15HASH_NUM_VALUES:
	.long	65536
	.align 4
_ZL13HASH_BIT_MASK:
	.long	65535
	.text
	.def	_ZL9hash_initP4Hashj;	.scl	3;	.type	32;	.endef
	.seh_proc	_ZL9hash_initP4Hashj
_ZL9hash_initP4Hashj:
.LFB1400:
	.loc 2 1253 0
	.cfi_startproc
	pushq	%rbp
	.seh_pushreg	%rbp
	.cfi_def_cfa_offset 16
	.cfi_offset 6, -16
	movq	%rsp, %rbp
	.seh_setframe	%rbp, 0
	.cfi_def_cfa_register 6
	subq	$48, %rsp
	.seh_stackalloc	48
	.seh_endprologue
	movq	%rcx, 16(%rbp)
	movl	%edx, 24(%rbp)
	.loc 2 1255 0
	movl	$262144, %ecx
	call	_ZL14lodepng_mallocy
	movq	%rax, %rdx
	movq	16(%rbp), %rax
	movq	%rdx, (%rax)
	.loc 2 1256 0
	movl	24(%rbp), %eax
	salq	$2, %rax
	movq	%rax, %rcx
	call	_ZL14lodepng_mallocy
	movq	%rax, %rdx
	movq	16(%rbp), %rax
	movq	%rdx, 16(%rax)
	.loc 2 1257 0
	movl	24(%rbp), %eax
	addq	%rax, %rax
	movq	%rax, %rcx
	call	_ZL14lodepng_mallocy
	movq	%rax, %rdx
	movq	16(%rbp), %rax
	movq	%rdx, 8(%rax)
	.loc 2 1259 0
	movl	24(%rbp), %eax
	addq	%rax, %rax
	movq	%rax, %rcx
	call	_ZL14lodepng_mallocy
	movq	%rax, %rdx
	movq	16(%rbp), %rax
	movq	%rdx, 40(%rax)
	.loc 2 1260 0
	movl	$1036, %ecx
	call	_ZL14lodepng_mallocy
	movq	%rax, %rdx
	movq	16(%rbp), %rax
	movq	%rdx, 24(%rax)
	.loc 2 1261 0
	movl	24(%rbp), %eax
	addq	%rax, %rax
	movq	%rax, %rcx
	call	_ZL14lodepng_mallocy
	movq	%rax, %rdx
	movq	16(%rbp), %rax
	movq	%rdx, 32(%rax)
	.loc 2 1263 0
	movq	16(%rbp), %rax
	movq	(%rax), %rax
	testq	%rax, %rax
	je	.L344
	.loc 2 1263 0 is_stmt 0 discriminator 1
	movq	16(%rbp), %rax
	movq	8(%rax), %rax
	testq	%rax, %rax
	je	.L344
	.loc 2 1263 0 discriminator 2
	movq	16(%rbp), %rax
	movq	16(%rax), %rax
	testq	%rax, %rax
	je	.L344
	.loc 2 1263 0 discriminator 3
	movq	16(%rbp), %rax
	movq	24(%rax), %rax
	testq	%rax, %rax
	je	.L344
	.loc 2 1263 0 discriminator 4
	movq	16(%rbp), %rax
	movq	32(%rax), %rax
	testq	%rax, %rax
	je	.L344
	.loc 2 1263 0 discriminator 5
	movq	16(%rbp), %rax
	movq	40(%rax), %rax
	testq	%rax, %rax
	jne	.L345
.L344:
	.loc 2 1264 0 is_stmt 1
	movl	$83, %eax
	jmp	.L346
.L345:
	.loc 2 1268 0
	movl	$0, -4(%rbp)
.L348:
	.loc 2 1268 0 is_stmt 0 discriminator 3
	cmpl	$65536, -4(%rbp)
	je	.L347
	.loc 2 1268 0 discriminator 2
	movq	16(%rbp), %rax
	movq	(%rax), %rax
	movl	-4(%rbp), %edx
	salq	$2, %rdx
	addq	%rdx, %rax
	movl	$-1, (%rax)
	addl	$1, -4(%rbp)
	jmp	.L348
.L347:
	.loc 2 1269 0 is_stmt 1
	movl	$0, -4(%rbp)
.L350:
	.loc 2 1269 0 is_stmt 0 discriminator 3
	movl	-4(%rbp), %eax
	cmpl	24(%rbp), %eax
	je	.L349
	.loc 2 1269 0 discriminator 2
	movq	16(%rbp), %rax
	movq	16(%rax), %rax
	movl	-4(%rbp), %edx
	salq	$2, %rdx
	addq	%rdx, %rax
	movl	$-1, (%rax)
	addl	$1, -4(%rbp)
	jmp	.L350
.L349:
	.loc 2 1270 0 is_stmt 1
	movl	$0, -4(%rbp)
.L352:
	.loc 2 1270 0 is_stmt 0 discriminator 3
	movl	-4(%rbp), %eax
	cmpl	24(%rbp), %eax
	je	.L351
	.loc 2 1270 0 discriminator 2
	movq	16(%rbp), %rax
	movq	8(%rax), %rax
	movl	-4(%rbp), %edx
	addq	%rdx, %rdx
	addq	%rdx, %rax
	movl	-4(%rbp), %edx
	movw	%dx, (%rax)
	addl	$1, -4(%rbp)
	jmp	.L352
.L351:
	.loc 2 1272 0 is_stmt 1
	movl	$0, -4(%rbp)
.L354:
	.loc 2 1272 0 is_stmt 0 discriminator 3
	cmpl	$258, -4(%rbp)
	ja	.L353
	.loc 2 1272 0 discriminator 2
	movq	16(%rbp), %rax
	movq	24(%rax), %rax
	movl	-4(%rbp), %edx
	salq	$2, %rdx
	addq	%rdx, %rax
	movl	$-1, (%rax)
	addl	$1, -4(%rbp)
	jmp	.L354
.L353:
	.loc 2 1273 0 is_stmt 1
	movl	$0, -4(%rbp)
.L356:
	.loc 2 1273 0 is_stmt 0 discriminator 3
	movl	-4(%rbp), %eax
	cmpl	24(%rbp), %eax
	je	.L355
	.loc 2 1273 0 discriminator 2
	movq	16(%rbp), %rax
	movq	32(%rax), %rax
	movl	-4(%rbp), %edx
	addq	%rdx, %rdx
	addq	%rdx, %rax
	movl	-4(%rbp), %edx
	movw	%dx, (%rax)
	addl	$1, -4(%rbp)
	jmp	.L356
.L355:
	.loc 2 1275 0 is_stmt 1
	movl	$0, %eax
.L346:
	.loc 2 1276 0
	addq	$48, %rsp
	popq	%rbp
	.cfi_restore 6
	.cfi_def_cfa 7, 8
	ret
	.cfi_endproc
.LFE1400:
	.seh_endproc
	.def	_ZL12hash_cleanupP4Hash;	.scl	3;	.type	32;	.endef
	.seh_proc	_ZL12hash_cleanupP4Hash
_ZL12hash_cleanupP4Hash:
.LFB1401:
	.loc 2 1278 0
	.cfi_startproc
	pushq	%rbp
	.seh_pushreg	%rbp
	.cfi_def_cfa_offset 16
	.cfi_offset 6, -16
	movq	%rsp, %rbp
	.seh_setframe	%rbp, 0
	.cfi_def_cfa_register 6
	subq	$32, %rsp
	.seh_stackalloc	32
	.seh_endprologue
	movq	%rcx, 16(%rbp)
	.loc 2 1279 0
	movq	16(%rbp), %rax
	movq	(%rax), %rax
	movq	%rax, %rcx
	call	_ZL12lodepng_freePv
	.loc 2 1280 0
	movq	16(%rbp), %rax
	movq	16(%rax), %rax
	movq	%rax, %rcx
	call	_ZL12lodepng_freePv
	.loc 2 1281 0
	movq	16(%rbp), %rax
	movq	8(%rax), %rax
	movq	%rax, %rcx
	call	_ZL12lodepng_freePv
	.loc 2 1283 0
	movq	16(%rbp), %rax
	movq	40(%rax), %rax
	movq	%rax, %rcx
	call	_ZL12lodepng_freePv
	.loc 2 1284 0
	movq	16(%rbp), %rax
	movq	24(%rax), %rax
	movq	%rax, %rcx
	call	_ZL12lodepng_freePv
	.loc 2 1285 0
	movq	16(%rbp), %rax
	movq	32(%rax), %rax
	movq	%rax, %rcx
	call	_ZL12lodepng_freePv
	.loc 2 1286 0
	nop
	addq	$32, %rsp
	popq	%rbp
	.cfi_restore 6
	.cfi_def_cfa 7, 8
	ret
	.cfi_endproc
.LFE1401:
	.seh_endproc
	.def	_ZL7getHashPKhyy;	.scl	3;	.type	32;	.endef
	.seh_proc	_ZL7getHashPKhyy
_ZL7getHashPKhyy:
.LFB1402:
	.loc 2 1290 0
	.cfi_startproc
	pushq	%rbp
	.seh_pushreg	%rbp
	.cfi_def_cfa_offset 16
	.cfi_offset 6, -16
	movq	%rsp, %rbp
	.seh_setframe	%rbp, 0
	.cfi_def_cfa_register 6
	subq	$32, %rsp
	.seh_stackalloc	32
	.seh_endprologue
	movq	%rcx, 16(%rbp)
	movq	%rdx, 24(%rbp)
	movq	%r8, 32(%rbp)
	.loc 2 1291 0
	movl	$0, -4(%rbp)
.LBB51:
	.loc 2 1292 0
	movq	32(%rbp), %rax
	addq	$2, %rax
	cmpq	%rax, 24(%rbp)
	jbe	.L359
	.loc 2 1297 0
	movq	16(%rbp), %rdx
	movq	32(%rbp), %rax
	addq	%rdx, %rax
	movzbl	(%rax), %eax
	movzbl	%al, %eax
	xorl	%eax, -4(%rbp)
	.loc 2 1298 0
	movq	32(%rbp), %rax
	leaq	1(%rax), %rdx
	movq	16(%rbp), %rax
	addq	%rdx, %rax
	movzbl	(%rax), %eax
	movzbl	%al, %eax
	sall	$4, %eax
	xorl	%eax, -4(%rbp)
	.loc 2 1299 0
	movq	32(%rbp), %rax
	leaq	2(%rax), %rdx
	movq	16(%rbp), %rax
	addq	%rdx, %rax
	movzbl	(%rax), %eax
	movzbl	%al, %eax
	sall	$8, %eax
	xorl	%eax, -4(%rbp)
	jmp	.L360
.L359:
.LBB52:
	.loc 2 1303 0
	movq	32(%rbp), %rax
	cmpq	24(%rbp), %rax
	jb	.L361
	.loc 2 1303 0 is_stmt 0 discriminator 1
	movl	$0, %eax
	jmp	.L362
.L361:
	.loc 2 1304 0 is_stmt 1
	movq	24(%rbp), %rax
	subq	32(%rbp), %rax
	movq	%rax, -24(%rbp)
	.loc 2 1305 0
	movq	$0, -16(%rbp)
.L363:
	.loc 2 1305 0 is_stmt 0 discriminator 3
	movq	-16(%rbp), %rax
	cmpq	-24(%rbp), %rax
	je	.L360
	.loc 2 1305 0 discriminator 2
	movq	32(%rbp), %rdx
	movq	-16(%rbp), %rax
	addq	%rax, %rdx
	movq	16(%rbp), %rax
	addq	%rdx, %rax
	movzbl	(%rax), %eax
	movzbl	%al, %eax
	movq	-16(%rbp), %rdx
	salq	$3, %rdx
	movl	%edx, %ecx
	sall	%cl, %eax
	xorl	%eax, -4(%rbp)
	addq	$1, -16(%rbp)
	jmp	.L363
.L360:
.LBE52:
.LBE51:
	.loc 2 1307 0 is_stmt 1
	movl	-4(%rbp), %eax
	movzwl	%ax, %eax
.L362:
	.loc 2 1308 0
	addq	$32, %rsp
	popq	%rbp
	.cfi_restore 6
	.cfi_def_cfa 7, 8
	ret
	.cfi_endproc
.LFE1402:
	.seh_endproc
	.def	_ZL10countZerosPKhyy;	.scl	3;	.type	32;	.endef
	.seh_proc	_ZL10countZerosPKhyy
_ZL10countZerosPKhyy:
.LFB1403:
	.loc 2 1310 0
	.cfi_startproc
	pushq	%rbp
	.seh_pushreg	%rbp
	.cfi_def_cfa_offset 16
	.cfi_offset 6, -16
	movq	%rsp, %rbp
	.seh_setframe	%rbp, 0
	.cfi_def_cfa_register 6
	subq	$16, %rsp
	.seh_stackalloc	16
	.seh_endprologue
	movq	%rcx, 16(%rbp)
	movq	%rdx, 24(%rbp)
	movq	%r8, 32(%rbp)
	.loc 2 1311 0
	movq	16(%rbp), %rdx
	movq	32(%rbp), %rax
	addq	%rdx, %rax
	movq	%rax, -16(%rbp)
	.loc 2 1312 0
	movq	-16(%rbp), %rax
	addq	$258, %rax
	movq	%rax, -8(%rbp)
	.loc 2 1313 0
	movq	16(%rbp), %rdx
	movq	24(%rbp), %rax
	addq	%rdx, %rax
	cmpq	%rax, -8(%rbp)
	jbe	.L365
	.loc 2 1313 0 is_stmt 0 discriminator 1
	movq	16(%rbp), %rdx
	movq	24(%rbp), %rax
	addq	%rdx, %rax
	movq	%rax, -8(%rbp)
.L365:
	.loc 2 1314 0 is_stmt 1
	movq	-16(%rbp), %rax
	movq	%rax, 16(%rbp)
.L367:
	.loc 2 1315 0 discriminator 3
	movq	16(%rbp), %rax
	cmpq	-8(%rbp), %rax
	je	.L366
	.loc 2 1315 0 is_stmt 0 discriminator 1
	movq	16(%rbp), %rax
	movzbl	(%rax), %eax
	testb	%al, %al
	jne	.L366
	.loc 2 1315 0 discriminator 2
	addq	$1, 16(%rbp)
	jmp	.L367
.L366:
	.loc 2 1317 0 is_stmt 1
	movq	16(%rbp), %rdx
	movq	-16(%rbp), %rax
	subq	%rax, %rdx
	movq	%rdx, %rax
	.loc 2 1318 0
	addq	$16, %rsp
	popq	%rbp
	.cfi_restore 6
	.cfi_def_cfa 7, 8
	ret
	.cfi_endproc
.LFE1403:
	.seh_endproc
	.def	_ZL15updateHashChainP4Hashyjt;	.scl	3;	.type	32;	.endef
	.seh_proc	_ZL15updateHashChainP4Hashyjt
_ZL15updateHashChainP4Hashyjt:
.LFB1404:
	.loc 2 1321 0
	.cfi_startproc
	pushq	%rbp
	.seh_pushreg	%rbp
	.cfi_def_cfa_offset 16
	.cfi_offset 6, -16
	movq	%rsp, %rbp
	.seh_setframe	%rbp, 0
	.cfi_def_cfa_register 6
	.seh_endprologue
	movq	%rcx, 16(%rbp)
	movq	%rdx, 24(%rbp)
	movl	%r8d, 32(%rbp)
	movl	%r9d, %eax
	movw	%ax, 40(%rbp)
	.loc 2 1322 0
	movq	16(%rbp), %rax
	movq	16(%rax), %rax
	movq	24(%rbp), %rdx
	salq	$2, %rdx
	addq	%rax, %rdx
	movl	32(%rbp), %eax
	movl	%eax, (%rdx)
	.loc 2 1323 0
	movq	16(%rbp), %rax
	movq	(%rax), %rax
	movl	32(%rbp), %edx
	salq	$2, %rdx
	addq	%rdx, %rax
	movl	(%rax), %eax
	cmpl	$-1, %eax
	je	.L370
	.loc 2 1323 0 is_stmt 0 discriminator 1
	movq	16(%rbp), %rax
	movq	(%rax), %rax
	movl	32(%rbp), %edx
	salq	$2, %rdx
	addq	%rdx, %rax
	movl	(%rax), %edx
	movq	16(%rbp), %rax
	movq	8(%rax), %rax
	movq	24(%rbp), %rcx
	addq	%rcx, %rcx
	addq	%rcx, %rax
	movw	%dx, (%rax)
.L370:
	.loc 2 1324 0 is_stmt 1
	movq	16(%rbp), %rax
	movq	(%rax), %rax
	movl	32(%rbp), %edx
	salq	$2, %rdx
	addq	%rdx, %rax
	movq	24(%rbp), %rdx
	movl	%edx, (%rax)
	.loc 2 1326 0
	movq	16(%rbp), %rax
	movq	40(%rax), %rax
	movq	24(%rbp), %rdx
	addq	%rdx, %rdx
	addq	%rax, %rdx
	movzwl	40(%rbp), %eax
	movw	%ax, (%rdx)
	.loc 2 1327 0
	movq	16(%rbp), %rax
	movq	24(%rax), %rax
	movzwl	40(%rbp), %edx
	salq	$2, %rdx
	addq	%rdx, %rax
	movl	(%rax), %eax
	cmpl	$-1, %eax
	je	.L371
	.loc 2 1327 0 is_stmt 0 discriminator 1
	movq	16(%rbp), %rax
	movq	24(%rax), %rax
	movzwl	40(%rbp), %edx
	salq	$2, %rdx
	addq	%rdx, %rax
	movl	(%rax), %edx
	movq	16(%rbp), %rax
	movq	32(%rax), %rax
	movq	24(%rbp), %rcx
	addq	%rcx, %rcx
	addq	%rcx, %rax
	movw	%dx, (%rax)
.L371:
	.loc 2 1328 0 is_stmt 1
	movq	16(%rbp), %rax
	movq	24(%rax), %rax
	movzwl	40(%rbp), %edx
	salq	$2, %rdx
	addq	%rdx, %rax
	movq	24(%rbp), %rdx
	movl	%edx, (%rax)
	.loc 2 1329 0
	nop
	popq	%rbp
	.cfi_restore 6
	.cfi_def_cfa 7, 8
	ret
	.cfi_endproc
.LFE1404:
	.seh_endproc
	.def	_ZL10encodeLZ77P8uivectorP4HashPKhyyjjjj;	.scl	3;	.type	32;	.endef
	.seh_proc	_ZL10encodeLZ77P8uivectorP4HashPKhyyjjjj
_ZL10encodeLZ77P8uivectorP4HashPKhyyjjjj:
.LFB1405:
	.loc 2 1342 0
	.cfi_startproc
	pushq	%rbp
	.seh_pushreg	%rbp
	.cfi_def_cfa_offset 16
	.cfi_offset 6, -16
	movq	%rsp, %rbp
	.seh_setframe	%rbp, 0
	.cfi_def_cfa_register 6
	subq	$160, %rsp
	.seh_stackalloc	160
	.seh_endprologue
	movq	%rcx, 16(%rbp)
	movq	%rdx, 24(%rbp)
	movq	%r8, 32(%rbp)
	movq	%r9, 40(%rbp)
	.loc 2 1344 0
	movl	$0, -16(%rbp)
	.loc 2 1346 0
	cmpl	$8191, 56(%rbp)
	ja	.L373
	.loc 2 1346 0 is_stmt 0 discriminator 1
	movl	56(%rbp), %eax
	shrl	$3, %eax
	jmp	.L374
.L373:
	.loc 2 1346 0 discriminator 2
	movl	56(%rbp), %eax
.L374:
	.loc 2 1346 0 discriminator 4
	movl	%eax, -80(%rbp)
	.loc 2 1347 0 is_stmt 1 discriminator 4
	cmpl	$8191, 56(%rbp)
	jbe	.L375
	.loc 2 1347 0 is_stmt 0 discriminator 1
	movl	$258, %eax
	jmp	.L376
.L375:
	.loc 2 1347 0 discriminator 2
	movl	$64, %eax
.L376:
	.loc 2 1347 0 discriminator 4
	movl	%eax, -84(%rbp)
	.loc 2 1349 0 is_stmt 1 discriminator 4
	movl	$1, -88(%rbp)
	.loc 2 1350 0 discriminator 4
	movl	$0, -20(%rbp)
	.loc 2 1354 0 discriminator 4
	movl	$0, -32(%rbp)
	.loc 2 1355 0 discriminator 4
	movl	$0, -36(%rbp)
	movl	$0, -40(%rbp)
	.loc 2 1362 0 discriminator 4
	cmpl	$0, 56(%rbp)
	je	.L377
	.loc 2 1362 0 is_stmt 0 discriminator 2
	cmpl	$32768, 56(%rbp)
	jbe	.L378
.L377:
	.loc 2 1362 0 discriminator 3
	movl	$60, %eax
	jmp	.L379
.L378:
	.loc 2 1363 0 is_stmt 1
	movl	56(%rbp), %eax
	subl	$1, %eax
	andl	56(%rbp), %eax
	testl	%eax, %eax
	je	.L380
	.loc 2 1363 0 is_stmt 0 discriminator 1
	movl	$90, %eax
	jmp	.L379
.L380:
	.loc 2 1365 0 is_stmt 1
	cmpl	$258, 72(%rbp)
	jbe	.L381
	.loc 2 1365 0 is_stmt 0 discriminator 1
	movl	$258, 72(%rbp)
.L381:
.LBB53:
	.loc 2 1367 0 is_stmt 1
	movq	40(%rbp), %rax
	movq	%rax, -8(%rbp)
.L421:
	.loc 2 1367 0 is_stmt 0 discriminator 1
	movq	-8(%rbp), %rax
	cmpq	48(%rbp), %rax
	jnb	.L382
.LBB54:
	.loc 2 1368 0 is_stmt 1
	movl	56(%rbp), %eax
	subl	$1, %eax
	movl	%eax, %eax
	andq	-8(%rbp), %rax
	movq	%rax, -96(%rbp)
	.loc 2 1369 0
	movl	$0, -72(%rbp)
	.loc 2 1371 0
	movq	-8(%rbp), %rcx
	movq	48(%rbp), %rdx
	movq	32(%rbp), %rax
	movq	%rcx, %r8
	movq	%rax, %rcx
	call	_ZL7getHashPKhyy
	movl	%eax, -100(%rbp)
	.loc 2 1373 0
	cmpl	$0, -88(%rbp)
	je	.L383
	.loc 2 1373 0 is_stmt 0 discriminator 1
	cmpl	$0, -100(%rbp)
	jne	.L383
	.loc 2 1374 0 is_stmt 1
	cmpl	$0, -20(%rbp)
	jne	.L384
	.loc 2 1374 0 is_stmt 0 discriminator 1
	movq	-8(%rbp), %rcx
	movq	48(%rbp), %rdx
	movq	32(%rbp), %rax
	movq	%rcx, %r8
	movq	%rax, %rcx
	call	_ZL10countZerosPKhyy
	movl	%eax, -20(%rbp)
	jmp	.L422
.L384:
	.loc 2 1375 0 is_stmt 1
	movl	-20(%rbp), %edx
	movq	-8(%rbp), %rax
	addq	%rdx, %rax
	cmpq	%rax, 48(%rbp)
	jb	.L386
	.loc 2 1375 0 is_stmt 0 discriminator 2
	movl	-20(%rbp), %edx
	movq	-8(%rbp), %rax
	addq	%rdx, %rax
	leaq	-1(%rax), %rdx
	movq	32(%rbp), %rax
	addq	%rdx, %rax
	movzbl	(%rax), %eax
	testb	%al, %al
	je	.L422
.L386:
	.loc 2 1375 0 discriminator 3
	subl	$1, -20(%rbp)
	.loc 2 1374 0 is_stmt 1 discriminator 3
	jmp	.L422
.L383:
	.loc 2 1378 0
	movl	$0, -20(%rbp)
	jmp	.L387
.L422:
	.loc 2 1374 0
	nop
.L387:
	.loc 2 1381 0
	movl	-20(%rbp), %eax
	movzwl	%ax, %r8d
	movl	-100(%rbp), %ecx
	movq	-96(%rbp), %rdx
	movq	24(%rbp), %rax
	movl	%r8d, %r9d
	movl	%ecx, %r8d
	movq	%rax, %rcx
	call	_ZL15updateHashChainP4Hashyjt
	.loc 2 1384 0
	movl	$0, -28(%rbp)
	.loc 2 1385 0
	movl	$0, -24(%rbp)
	.loc 2 1387 0
	movq	24(%rbp), %rax
	movq	8(%rax), %rax
	movq	-96(%rbp), %rdx
	addq	%rdx, %rdx
	addq	%rdx, %rax
	movzwl	(%rax), %eax
	movzwl	%ax, %eax
	movl	%eax, -68(%rbp)
	.loc 2 1389 0
	movq	-8(%rbp), %rax
	addq	$258, %rax
	cmpq	%rax, 48(%rbp)
	cmovbe	48(%rbp), %rax
	movq	%rax, %rdx
	movq	32(%rbp), %rax
	addq	%rdx, %rax
	movq	%rax, -112(%rbp)
	.loc 2 1392 0
	movl	$0, -44(%rbp)
.L403:
.LBB55:
.LBB56:
	.loc 2 1394 0
	movl	-72(%rbp), %eax
	leal	1(%rax), %edx
	movl	%edx, -72(%rbp)
	cmpl	%eax, -80(%rbp)
	setbe	%al
	testb	%al, %al
	jne	.L423
	.loc 2 1395 0
	movl	-68(%rbp), %eax
	cmpq	%rax, -96(%rbp)
	jb	.L390
	.loc 2 1395 0 is_stmt 0 discriminator 1
	movq	-96(%rbp), %rax
	subl	-68(%rbp), %eax
	jmp	.L391
.L390:
	.loc 2 1395 0 discriminator 2
	movq	-96(%rbp), %rax
	subl	-68(%rbp), %eax
	movl	%eax, %edx
	movl	56(%rbp), %eax
	addl	%edx, %eax
.L391:
	.loc 2 1395 0 discriminator 4
	movl	%eax, -116(%rbp)
	.loc 2 1397 0 is_stmt 1 discriminator 4
	movl	-116(%rbp), %eax
	cmpl	-44(%rbp), %eax
	jb	.L424
	.loc 2 1398 0
	movl	-116(%rbp), %eax
	movl	%eax, -44(%rbp)
.LBB57:
	.loc 2 1399 0
	cmpl	$0, -116(%rbp)
	je	.L393
.LBB58:
	.loc 2 1401 0
	movq	32(%rbp), %rdx
	movq	-8(%rbp), %rax
	addq	%rdx, %rax
	movq	%rax, -56(%rbp)
	.loc 2 1402 0
	movl	-116(%rbp), %eax
	movq	-8(%rbp), %rdx
	subq	%rax, %rdx
	movq	32(%rbp), %rax
	addq	%rdx, %rax
	movq	%rax, -64(%rbp)
.LBB59:
	.loc 2 1405 0
	cmpl	$2, -20(%rbp)
	jbe	.L397
.LBB60:
	.loc 2 1406 0
	movq	24(%rbp), %rax
	movq	40(%rax), %rax
	movl	-68(%rbp), %edx
	addq	%rdx, %rdx
	addq	%rdx, %rax
	movzwl	(%rax), %eax
	movzwl	%ax, %eax
	movl	%eax, -76(%rbp)
	.loc 2 1407 0
	movl	-76(%rbp), %eax
	cmpl	-20(%rbp), %eax
	jbe	.L395
	.loc 2 1407 0 is_stmt 0 discriminator 1
	movl	-20(%rbp), %eax
	movl	%eax, -76(%rbp)
.L395:
	.loc 2 1408 0 is_stmt 1
	movl	-76(%rbp), %eax
	addq	%rax, -64(%rbp)
	.loc 2 1409 0
	movl	-76(%rbp), %eax
	addq	%rax, -56(%rbp)
.L397:
.LBE60:
.LBE59:
	.loc 2 1412 0
	movq	-56(%rbp), %rax
	cmpq	-112(%rbp), %rax
	je	.L396
	.loc 2 1412 0 is_stmt 0 discriminator 1
	movq	-64(%rbp), %rax
	movzbl	(%rax), %edx
	movq	-56(%rbp), %rax
	movzbl	(%rax), %eax
	cmpb	%al, %dl
	jne	.L396
	.loc 2 1413 0 is_stmt 1
	addq	$1, -64(%rbp)
	.loc 2 1414 0
	addq	$1, -56(%rbp)
	.loc 2 1412 0
	jmp	.L397
.L396:
	.loc 2 1416 0
	movq	-56(%rbp), %rax
	movq	32(%rbp), %rcx
	movq	-8(%rbp), %rdx
	addq	%rcx, %rdx
	subq	%rdx, %rax
	movl	%eax, -120(%rbp)
	.loc 2 1418 0
	movl	-120(%rbp), %eax
	cmpl	-28(%rbp), %eax
	jbe	.L393
	.loc 2 1419 0
	movl	-120(%rbp), %eax
	movl	%eax, -28(%rbp)
	.loc 2 1420 0
	movl	-116(%rbp), %eax
	movl	%eax, -24(%rbp)
	.loc 2 1423 0
	movl	-120(%rbp), %eax
	cmpl	72(%rbp), %eax
	jnb	.L425
.L393:
.LBE58:
.LBE57:
	.loc 2 1427 0
	movq	24(%rbp), %rax
	movq	8(%rax), %rax
	movl	-68(%rbp), %edx
	addq	%rdx, %rdx
	addq	%rdx, %rax
	movzwl	(%rax), %eax
	movzwl	%ax, %eax
	cmpl	%eax, -68(%rbp)
	je	.L426
	.loc 2 1429 0
	cmpl	$2, -20(%rbp)
	jbe	.L400
	.loc 2 1429 0 is_stmt 0 discriminator 1
	movl	-28(%rbp), %eax
	cmpl	-20(%rbp), %eax
	jbe	.L400
	.loc 2 1430 0 is_stmt 1
	movq	24(%rbp), %rax
	movq	32(%rax), %rax
	movl	-68(%rbp), %edx
	addq	%rdx, %rdx
	addq	%rdx, %rax
	movzwl	(%rax), %eax
	movzwl	%ax, %eax
	movl	%eax, -68(%rbp)
	.loc 2 1431 0
	movq	24(%rbp), %rax
	movq	40(%rax), %rax
	movl	-68(%rbp), %edx
	addq	%rdx, %rdx
	addq	%rdx, %rax
	movzwl	(%rax), %eax
	movzwl	%ax, %eax
	cmpl	%eax, -20(%rbp)
	je	.L402
	jmp	.L389
.L400:
	.loc 2 1434 0
	movq	24(%rbp), %rax
	movq	8(%rax), %rax
	movl	-68(%rbp), %edx
	addq	%rdx, %rdx
	addq	%rdx, %rax
	movzwl	(%rax), %eax
	movzwl	%ax, %eax
	movl	%eax, -68(%rbp)
	.loc 2 1436 0
	movq	24(%rbp), %rax
	movq	16(%rax), %rax
	movl	-68(%rbp), %edx
	salq	$2, %rdx
	addq	%rdx, %rax
	movl	(%rax), %edx
	movl	-100(%rbp), %eax
	cmpl	%eax, %edx
	jne	.L427
.L402:
.LBE56:
	.loc 2 1438 0 discriminator 2
	jmp	.L403
.L423:
.LBB63:
	.loc 2 1394 0
	nop
	jmp	.L389
.L424:
	.loc 2 1397 0
	nop
	jmp	.L389
.L425:
.LBB62:
.LBB61:
	.loc 2 1423 0
	nop
	jmp	.L389
.L426:
.LBE61:
.LBE62:
	.loc 2 1427 0
	nop
	jmp	.L389
.L427:
	.loc 2 1436 0
	nop
.L389:
.LBE63:
.LBE55:
	.loc 2 1440 0
	cmpl	$0, 80(%rbp)
	je	.L404
	.loc 2 1441 0
	cmpl	$0, -32(%rbp)
	jne	.L405
	.loc 2 1441 0 is_stmt 0 discriminator 1
	cmpl	$2, -28(%rbp)
	jbe	.L405
	.loc 2 1441 0 discriminator 2
	movl	-28(%rbp), %eax
	cmpl	-84(%rbp), %eax
	ja	.L405
	.loc 2 1441 0 discriminator 3
	cmpl	$257, -28(%rbp)
	ja	.L405
	.loc 2 1442 0 is_stmt 1 discriminator 4
	movl	$1, -32(%rbp)
	.loc 2 1443 0 discriminator 4
	movl	-28(%rbp), %eax
	movl	%eax, -36(%rbp)
	.loc 2 1444 0 discriminator 4
	movl	-24(%rbp), %eax
	movl	%eax, -40(%rbp)
	.loc 2 1445 0 discriminator 4
	jmp	.L406
.L405:
	.loc 2 1447 0
	cmpl	$0, -32(%rbp)
	je	.L404
	.loc 2 1448 0
	movl	$0, -32(%rbp)
	.loc 2 1449 0
	cmpq	$0, -8(%rbp)
	jne	.L407
	.loc 2 1449 0 is_stmt 0 discriminator 1
	movl	$81, -16(%rbp)
	jmp	.L382
.L407:
	.loc 2 1450 0 is_stmt 1
	movl	-36(%rbp), %eax
	addl	$1, %eax
	cmpl	%eax, -28(%rbp)
	jbe	.L408
	.loc 2 1452 0
	movq	-8(%rbp), %rax
	leaq	-1(%rax), %rdx
	movq	32(%rbp), %rax
	addq	%rdx, %rax
	movzbl	(%rax), %eax
	movzbl	%al, %eax
	movl	%eax, %edx
	movq	16(%rbp), %rcx
	call	_ZL18uivector_push_backP8uivectorj
	testl	%eax, %eax
	sete	%al
	testb	%al, %al
	je	.L404
	.loc 2 1452 0 is_stmt 0 discriminator 1
	movl	$83, -16(%rbp)
	jmp	.L382
.L408:
	.loc 2 1455 0 is_stmt 1
	movl	-36(%rbp), %eax
	movl	%eax, -28(%rbp)
	.loc 2 1456 0
	movl	-40(%rbp), %eax
	movl	%eax, -24(%rbp)
	.loc 2 1457 0
	movq	24(%rbp), %rax
	movq	(%rax), %rax
	movl	-100(%rbp), %edx
	salq	$2, %rdx
	addq	%rdx, %rax
	movl	$-1, (%rax)
	.loc 2 1458 0
	movq	24(%rbp), %rax
	movq	24(%rax), %rax
	movl	-20(%rbp), %edx
	salq	$2, %rdx
	addq	%rdx, %rax
	movl	$-1, (%rax)
	.loc 2 1459 0
	subq	$1, -8(%rbp)
.L404:
	.loc 2 1463 0
	cmpl	$2, -28(%rbp)
	jbe	.L410
	.loc 2 1463 0 is_stmt 0 discriminator 1
	movl	-24(%rbp), %eax
	cmpl	56(%rbp), %eax
	jbe	.L410
	.loc 2 1463 0 discriminator 2
	movl	$86, -16(%rbp)
	jmp	.L382
.L410:
	.loc 2 1466 0 is_stmt 1
	cmpl	$2, -28(%rbp)
	ja	.L411
	.loc 2 1467 0
	movq	32(%rbp), %rdx
	movq	-8(%rbp), %rax
	addq	%rdx, %rax
	movzbl	(%rax), %eax
	movzbl	%al, %eax
	movl	%eax, %edx
	movq	16(%rbp), %rcx
	call	_ZL18uivector_push_backP8uivectorj
	testl	%eax, %eax
	sete	%al
	testb	%al, %al
	je	.L406
	.loc 2 1467 0 is_stmt 0 discriminator 1
	movl	$83, -16(%rbp)
	jmp	.L382
.L411:
	.loc 2 1469 0 is_stmt 1
	movl	-28(%rbp), %eax
	cmpl	64(%rbp), %eax
	jb	.L412
	.loc 2 1469 0 is_stmt 0 discriminator 1
	cmpl	$3, -28(%rbp)
	jne	.L413
	.loc 2 1469 0 discriminator 2
	cmpl	$4096, -24(%rbp)
	jbe	.L413
.L412:
	.loc 2 1472 0 is_stmt 1
	movq	32(%rbp), %rdx
	movq	-8(%rbp), %rax
	addq	%rdx, %rax
	movzbl	(%rax), %eax
	movzbl	%al, %eax
	movl	%eax, %edx
	movq	16(%rbp), %rcx
	call	_ZL18uivector_push_backP8uivectorj
	testl	%eax, %eax
	sete	%al
	testb	%al, %al
	je	.L406
	.loc 2 1472 0 is_stmt 0 discriminator 1
	movl	$83, -16(%rbp)
	jmp	.L382
.L413:
	.loc 2 1475 0 is_stmt 1
	movl	-24(%rbp), %edx
	movl	-28(%rbp), %eax
	movq	%rdx, %r8
	movq	%rax, %rdx
	movq	16(%rbp), %rcx
	call	_ZL17addLengthDistanceP8uivectoryy
	.loc 2 1476 0
	movl	$1, -12(%rbp)
.L420:
	.loc 2 1476 0 is_stmt 0 discriminator 1
	movl	-12(%rbp), %eax
	cmpl	-28(%rbp), %eax
	jnb	.L406
	.loc 2 1477 0 is_stmt 1
	addq	$1, -8(%rbp)
	.loc 2 1478 0
	movl	56(%rbp), %eax
	subl	$1, %eax
	movl	%eax, %eax
	andq	-8(%rbp), %rax
	movq	%rax, -96(%rbp)
	.loc 2 1479 0
	movq	-8(%rbp), %rcx
	movq	48(%rbp), %rdx
	movq	32(%rbp), %rax
	movq	%rcx, %r8
	movq	%rax, %rcx
	call	_ZL7getHashPKhyy
	movl	%eax, -100(%rbp)
	.loc 2 1480 0
	cmpl	$0, -88(%rbp)
	je	.L415
	.loc 2 1480 0 is_stmt 0 discriminator 1
	cmpl	$0, -100(%rbp)
	jne	.L415
	.loc 2 1481 0 is_stmt 1
	cmpl	$0, -20(%rbp)
	jne	.L416
	.loc 2 1481 0 is_stmt 0 discriminator 1
	movq	-8(%rbp), %rcx
	movq	48(%rbp), %rdx
	movq	32(%rbp), %rax
	movq	%rcx, %r8
	movq	%rax, %rcx
	call	_ZL10countZerosPKhyy
	movl	%eax, -20(%rbp)
	jmp	.L428
.L416:
	.loc 2 1482 0 is_stmt 1
	movl	-20(%rbp), %edx
	movq	-8(%rbp), %rax
	addq	%rdx, %rax
	cmpq	%rax, 48(%rbp)
	jb	.L418
	.loc 2 1482 0 is_stmt 0 discriminator 2
	movl	-20(%rbp), %edx
	movq	-8(%rbp), %rax
	addq	%rdx, %rax
	leaq	-1(%rax), %rdx
	movq	32(%rbp), %rax
	addq	%rdx, %rax
	movzbl	(%rax), %eax
	testb	%al, %al
	je	.L428
.L418:
	.loc 2 1482 0 discriminator 3
	subl	$1, -20(%rbp)
	.loc 2 1481 0 is_stmt 1 discriminator 3
	jmp	.L428
.L415:
	.loc 2 1485 0
	movl	$0, -20(%rbp)
	jmp	.L419
.L428:
	.loc 2 1481 0
	nop
.L419:
	.loc 2 1487 0 discriminator 2
	movl	-20(%rbp), %eax
	movzwl	%ax, %r8d
	movl	-100(%rbp), %ecx
	movq	-96(%rbp), %rdx
	movq	24(%rbp), %rax
	movl	%r8d, %r9d
	movl	%ecx, %r8d
	movq	%rax, %rcx
	call	_ZL15updateHashChainP4Hashyjt
	.loc 2 1476 0 discriminator 2
	addl	$1, -12(%rbp)
	jmp	.L420
.L406:
.LBE54:
	.loc 2 1367 0 discriminator 2
	addq	$1, -8(%rbp)
	jmp	.L421
.L382:
.LBE53:
	.loc 2 1492 0
	movl	-16(%rbp), %eax
.L379:
	.loc 2 1493 0
	addq	$160, %rsp
	popq	%rbp
	.cfi_restore 6
	.cfi_def_cfa 7, 8
	ret
	.cfi_endproc
.LFE1405:
	.seh_endproc
	.def	_ZL20deflateNoCompressionP8ucvectorPKhy;	.scl	3;	.type	32;	.endef
	.seh_proc	_ZL20deflateNoCompressionP8ucvectorPKhy
_ZL20deflateNoCompressionP8ucvectorPKhy:
.LFB1406:
	.loc 2 1497 0
	.cfi_startproc
	pushq	%rbp
	.seh_pushreg	%rbp
	.cfi_def_cfa_offset 16
	.cfi_offset 6, -16
	movq	%rsp, %rbp
	.seh_setframe	%rbp, 0
	.cfi_def_cfa_register 6
	subq	$80, %rsp
	.seh_stackalloc	80
	.seh_endprologue
	movq	%rcx, 16(%rbp)
	movq	%rdx, 24(%rbp)
	movq	%r8, 32(%rbp)
	.loc 2 1501 0
	movq	32(%rbp), %rax
	addq	$65534, %rax
	movabsq	$-9223231297218904063, %rdx
	mulq	%rdx
	movq	%rdx, %rax
	shrq	$15, %rax
	movq	%rax, -32(%rbp)
	.loc 2 1502 0
	movl	$0, -20(%rbp)
.LBB64:
	.loc 2 1503 0
	movq	$0, -8(%rbp)
.L434:
	.loc 2 1503 0 is_stmt 0 discriminator 1
	movq	-8(%rbp), %rax
	cmpq	-32(%rbp), %rax
	je	.L430
.LBB65:
	.loc 2 1507 0 is_stmt 1
	movq	-32(%rbp), %rax
	subq	$1, %rax
	cmpq	%rax, -8(%rbp)
	sete	%al
	movzbl	%al, %eax
	movl	%eax, -36(%rbp)
	.loc 2 1508 0
	movl	$0, -40(%rbp)
	.loc 2 1510 0
	movl	-40(%rbp), %eax
	addl	%eax, %eax
	andl	$2, %eax
	movl	%eax, %edx
	movl	-36(%rbp), %eax
	addl	%eax, %edx
	movl	-40(%rbp), %eax
	addl	%eax, %eax
	andl	$4, %eax
	addl	%edx, %eax
	movb	%al, -41(%rbp)
	.loc 2 1511 0
	movzbl	-41(%rbp), %eax
	movl	%eax, %edx
	movq	16(%rbp), %rcx
	call	_ZL18ucvector_push_backP8ucvectorh
	.loc 2 1513 0
	movl	$65535, -24(%rbp)
	.loc 2 1514 0
	movl	-20(%rbp), %eax
	movq	32(%rbp), %rdx
	subq	%rax, %rdx
	movq	%rdx, %rax
	cmpq	$65534, %rax
	ja	.L431
	.loc 2 1514 0 is_stmt 0 discriminator 1
	movq	32(%rbp), %rax
	subl	-20(%rbp), %eax
	movl	%eax, -24(%rbp)
.L431:
	.loc 2 1515 0 is_stmt 1
	movl	$65535, %eax
	subl	-24(%rbp), %eax
	movl	%eax, -48(%rbp)
	.loc 2 1517 0
	movl	-24(%rbp), %eax
	movzbl	%al, %eax
	movl	%eax, %edx
	movq	16(%rbp), %rcx
	call	_ZL18ucvector_push_backP8ucvectorh
	.loc 2 1518 0
	movl	-24(%rbp), %eax
	shrl	$8, %eax
	movzbl	%al, %eax
	movl	%eax, %edx
	movq	16(%rbp), %rcx
	call	_ZL18ucvector_push_backP8ucvectorh
	.loc 2 1519 0
	movl	-48(%rbp), %eax
	movzbl	%al, %eax
	movl	%eax, %edx
	movq	16(%rbp), %rcx
	call	_ZL18ucvector_push_backP8ucvectorh
	.loc 2 1520 0
	movl	-48(%rbp), %eax
	shrl	$8, %eax
	movzbl	%al, %eax
	movl	%eax, %edx
	movq	16(%rbp), %rcx
	call	_ZL18ucvector_push_backP8ucvectorh
	.loc 2 1523 0
	movq	$0, -16(%rbp)
.L433:
	.loc 2 1523 0 is_stmt 0 discriminator 4
	cmpq	$65534, -16(%rbp)
	ja	.L432
	.loc 2 1523 0 discriminator 2
	movl	-20(%rbp), %eax
	cmpq	%rax, 32(%rbp)
	jbe	.L432
	.loc 2 1524 0 is_stmt 1 discriminator 3
	movl	-20(%rbp), %eax
	leal	1(%rax), %edx
	movl	%edx, -20(%rbp)
	movl	%eax, %edx
	movq	24(%rbp), %rax
	addq	%rdx, %rax
	movzbl	(%rax), %eax
	movzbl	%al, %eax
	movl	%eax, %edx
	movq	16(%rbp), %rcx
	call	_ZL18ucvector_push_backP8ucvectorh
	.loc 2 1523 0 discriminator 3
	addq	$1, -16(%rbp)
	jmp	.L433
.L432:
.LBE65:
	.loc 2 1503 0 discriminator 2
	addq	$1, -8(%rbp)
	jmp	.L434
.L430:
.LBE64:
	.loc 2 1528 0
	movl	$0, %eax
	.loc 2 1529 0
	addq	$80, %rsp
	popq	%rbp
	.cfi_restore 6
	.cfi_def_cfa 7, 8
	ret
	.cfi_endproc
.LFE1406:
	.seh_endproc
	.def	_ZL13writeLZ77dataPyP8ucvectorPK8uivectorPK11HuffmanTreeS7_;	.scl	3;	.type	32;	.endef
	.seh_proc	_ZL13writeLZ77dataPyP8ucvectorPK8uivectorPK11HuffmanTreeS7_
_ZL13writeLZ77dataPyP8ucvectorPK8uivectorPK11HuffmanTreeS7_:
.LFB1407:
	.loc 2 1537 0
	.cfi_startproc
	pushq	%rbp
	.seh_pushreg	%rbp
	.cfi_def_cfa_offset 16
	.cfi_offset 6, -16
	pushq	%rbx
	.seh_pushreg	%rbx
	.cfi_def_cfa_offset 24
	.cfi_offset 3, -24
	subq	$88, %rsp
	.seh_stackalloc	88
	.cfi_def_cfa_offset 112
	leaq	128(%rsp), %rbp
	.seh_setframe	%rbp, 128
	.cfi_def_cfa 6, -16
	.seh_endprologue
	movq	%rcx, -16(%rbp)
	movq	%rdx, -8(%rbp)
	movq	%r8, 0(%rbp)
	movq	%r9, 8(%rbp)
	.loc 2 1538 0
	movq	$0, -56(%rbp)
.LBB66:
	.loc 2 1539 0
	movq	$0, -56(%rbp)
.L439:
	.loc 2 1539 0 is_stmt 0 discriminator 1
	movq	0(%rbp), %rax
	movq	8(%rax), %rax
	cmpq	%rax, -56(%rbp)
	je	.L440
.LBB67:
	.loc 2 1540 0 is_stmt 1
	movq	0(%rbp), %rax
	movq	(%rax), %rax
	movq	-56(%rbp), %rdx
	salq	$2, %rdx
	addq	%rdx, %rax
	movl	(%rax), %eax
	movl	%eax, -60(%rbp)
	.loc 2 1541 0
	movl	-60(%rbp), %edx
	movq	8(%rbp), %rax
	movq	%rax, %rcx
	call	_ZL21HuffmanTree_getLengthPK11HuffmanTreej
	movl	%eax, %ebx
	movl	-60(%rbp), %edx
	movq	8(%rbp), %rax
	movq	%rax, %rcx
	call	_ZL19HuffmanTree_getCodePK11HuffmanTreej
	movl	%eax, %edx
	movq	-8(%rbp), %rax
	movl	%ebx, %r9d
	movl	%edx, %r8d
	movq	%rax, %rdx
	movq	-16(%rbp), %rcx
	call	_ZL16addHuffmanSymbolPyP8ucvectorjj
.LBB68:
	.loc 2 1542 0
	cmpl	$256, -60(%rbp)
	jbe	.L438
.LBB69:
	.loc 2 1543 0
	movl	-60(%rbp), %eax
	subl	$257, %eax
	movl	%eax, -64(%rbp)
	.loc 2 1544 0
	movl	-64(%rbp), %eax
	leaq	0(,%rax,4), %rdx
	leaq	_ZL11LENGTHEXTRA(%rip), %rax
	movl	(%rdx,%rax), %eax
	movl	%eax, -68(%rbp)
	.loc 2 1545 0
	movq	0(%rbp), %rax
	movq	(%rax), %rax
	addq	$1, -56(%rbp)
	movq	-56(%rbp), %rdx
	salq	$2, %rdx
	addq	%rdx, %rax
	movl	(%rax), %eax
	movl	%eax, -72(%rbp)
	.loc 2 1547 0
	movq	0(%rbp), %rax
	movq	(%rax), %rax
	addq	$1, -56(%rbp)
	movq	-56(%rbp), %rdx
	salq	$2, %rdx
	addq	%rdx, %rax
	movl	(%rax), %eax
	movl	%eax, -76(%rbp)
	.loc 2 1549 0
	movl	-76(%rbp), %eax
	movl	%eax, -80(%rbp)
	.loc 2 1550 0
	movl	-80(%rbp), %eax
	leaq	0(,%rax,4), %rdx
	leaq	_ZL13DISTANCEEXTRA(%rip), %rax
	movl	(%rdx,%rax), %eax
	movl	%eax, -84(%rbp)
	.loc 2 1551 0
	movq	0(%rbp), %rax
	movq	(%rax), %rax
	addq	$1, -56(%rbp)
	movq	-56(%rbp), %rdx
	salq	$2, %rdx
	addq	%rdx, %rax
	movl	(%rax), %eax
	movl	%eax, -88(%rbp)
	.loc 2 1553 0
	movl	-68(%rbp), %ecx
	movl	-72(%rbp), %edx
	movq	-8(%rbp), %rax
	movq	%rcx, %r9
	movl	%edx, %r8d
	movq	%rax, %rdx
	movq	-16(%rbp), %rcx
	call	_ZL15addBitsToStreamPyP8ucvectorjy
	.loc 2 1554 0
	movl	-76(%rbp), %edx
	movq	16(%rbp), %rax
	movq	%rax, %rcx
	call	_ZL21HuffmanTree_getLengthPK11HuffmanTreej
	movl	%eax, %ebx
	movl	-76(%rbp), %edx
	movq	16(%rbp), %rax
	movq	%rax, %rcx
	call	_ZL19HuffmanTree_getCodePK11HuffmanTreej
	movl	%eax, %edx
	movq	-8(%rbp), %rax
	movl	%ebx, %r9d
	movl	%edx, %r8d
	movq	%rax, %rdx
	movq	-16(%rbp), %rcx
	call	_ZL16addHuffmanSymbolPyP8ucvectorjj
	.loc 2 1556 0
	movl	-84(%rbp), %ecx
	movl	-88(%rbp), %edx
	movq	-8(%rbp), %rax
	movq	%rcx, %r9
	movl	%edx, %r8d
	movq	%rax, %rdx
	movq	-16(%rbp), %rcx
	call	_ZL15addBitsToStreamPyP8ucvectorjy
.L438:
.LBE69:
.LBE68:
.LBE67:
	.loc 2 1539 0 discriminator 2
	addq	$1, -56(%rbp)
	jmp	.L439
.L440:
.LBE66:
	.loc 2 1559 0
	nop
	addq	$88, %rsp
	popq	%rbx
	.cfi_restore 3
	popq	%rbp
	.cfi_restore 6
	.cfi_def_cfa 7, -72
	ret
	.cfi_endproc
.LFE1407:
	.seh_endproc
	.def	_ZL14deflateDynamicP8ucvectorPyP4HashPKhyyPK23LodePNGCompressSettingsj;	.scl	3;	.type	32;	.endef
	.seh_proc	_ZL14deflateDynamicP8ucvectorPyP4HashPKhyyPK23LodePNGCompressSettingsj
_ZL14deflateDynamicP8ucvectorPyP4HashPKhyyPK23LodePNGCompressSettingsj:
.LFB1408:
	.loc 2 1564 0
	.cfi_startproc
	pushq	%rbp
	.seh_pushreg	%rbp
	.cfi_def_cfa_offset 16
	.cfi_offset 6, -16
	pushq	%rbx
	.seh_pushreg	%rbx
	.cfi_def_cfa_offset 24
	.cfi_offset 3, -24
	subq	$488, %rsp
	.seh_stackalloc	488
	.cfi_def_cfa_offset 512
	leaq	128(%rsp), %rbp
	.seh_setframe	%rbp, 128
	.cfi_def_cfa 6, 384
	.seh_endprologue
	movq	%rcx, 384(%rbp)
	movq	%rdx, 392(%rbp)
	movq	%r8, 400(%rbp)
	movq	%r9, 408(%rbp)
	.loc 2 1565 0
	movl	$0, 348(%rbp)
	.loc 2 1592 0
	movq	424(%rbp), %rax
	subq	416(%rbp), %rax
	movq	%rax, 296(%rbp)
	.loc 2 1601 0
	movl	440(%rbp), %eax
	movl	%eax, 292(%rbp)
	.loc 2 1605 0
	leaq	240(%rbp), %rax
	movq	%rax, %rcx
	call	_ZL13uivector_initP8uivector
	.loc 2 1606 0
	leaq	208(%rbp), %rax
	movq	%rax, %rcx
	call	_ZL16HuffmanTree_initP11HuffmanTree
	.loc 2 1607 0
	leaq	176(%rbp), %rax
	movq	%rax, %rcx
	call	_ZL16HuffmanTree_initP11HuffmanTree
	.loc 2 1608 0
	leaq	144(%rbp), %rax
	movq	%rax, %rcx
	call	_ZL16HuffmanTree_initP11HuffmanTree
	.loc 2 1609 0
	leaq	112(%rbp), %rax
	movq	%rax, %rcx
	call	_ZL13uivector_initP8uivector
	.loc 2 1610 0
	leaq	80(%rbp), %rax
	movq	%rax, %rcx
	call	_ZL13uivector_initP8uivector
	.loc 2 1611 0
	leaq	48(%rbp), %rax
	movq	%rax, %rcx
	call	_ZL13uivector_initP8uivector
	.loc 2 1612 0
	leaq	16(%rbp), %rax
	movq	%rax, %rcx
	call	_ZL13uivector_initP8uivector
	.loc 2 1613 0
	leaq	-16(%rbp), %rax
	movq	%rax, %rcx
	call	_ZL13uivector_initP8uivector
	.loc 2 1614 0
	leaq	-48(%rbp), %rax
	movq	%rax, %rcx
	call	_ZL13uivector_initP8uivector
	.loc 2 1618 0
	cmpl	$0, 348(%rbp)
	jne	.L442
.LBB70:
	.loc 2 1619 0
	movq	432(%rbp), %rax
	movl	4(%rax), %eax
	testl	%eax, %eax
	je	.L443
	.loc 2 1621 0
	movq	432(%rbp), %rax
	movl	20(%rax), %r10d
	movq	432(%rbp), %rax
	movl	16(%rax), %r9d
	movq	432(%rbp), %rax
	movl	12(%rax), %r8d
	.loc 2 1620 0
	movq	432(%rbp), %rax
	movl	8(%rax), %ecx
	movq	416(%rbp), %rbx
	movq	408(%rbp), %r11
	movq	400(%rbp), %rdx
	leaq	240(%rbp), %rax
	movl	%r10d, 64(%rsp)
	movl	%r9d, 56(%rsp)
	movl	%r8d, 48(%rsp)
	movl	%ecx, 40(%rsp)
	movq	424(%rbp), %rcx
	movq	%rcx, 32(%rsp)
	movq	%rbx, %r9
	movq	%r11, %r8
	movq	%rax, %rcx
	call	_ZL10encodeLZ77P8uivectorP4HashPKhyyjjjj
	movl	%eax, 348(%rbp)
	.loc 2 1622 0
	cmpl	$0, 348(%rbp)
	je	.L444
	jmp	.L442
.L443:
	.loc 2 1625 0
	movq	296(%rbp), %rdx
	leaq	240(%rbp), %rax
	movq	%rax, %rcx
	call	_ZL15uivector_resizeP8uivectory
	testl	%eax, %eax
	sete	%al
	testb	%al, %al
	je	.L445
	.loc 2 1625 0 is_stmt 0 discriminator 1
	movl	$83, 348(%rbp)
	jmp	.L442
.L445:
	.loc 2 1626 0 is_stmt 1
	movq	416(%rbp), %rax
	movq	%rax, 320(%rbp)
.L446:
	.loc 2 1626 0 is_stmt 0 discriminator 3
	movq	320(%rbp), %rax
	cmpq	424(%rbp), %rax
	jnb	.L444
	.loc 2 1626 0 discriminator 2
	movq	408(%rbp), %rdx
	movq	320(%rbp), %rax
	addq	%rdx, %rax
	movzbl	(%rax), %ecx
	movq	240(%rbp), %rdx
	movq	320(%rbp), %rax
	subq	416(%rbp), %rax
	salq	$2, %rax
	addq	%rax, %rdx
	movzbl	%cl, %eax
	movl	%eax, (%rdx)
	addq	$1, 320(%rbp)
	jmp	.L446
.L444:
	.loc 2 1629 0 is_stmt 1
	leaq	112(%rbp), %rax
	movl	$0, %r8d
	movl	$286, %edx
	movq	%rax, %rcx
	call	_ZL16uivector_resizevP8uivectoryj
	testl	%eax, %eax
	sete	%al
	testb	%al, %al
	je	.L447
	.loc 2 1629 0 is_stmt 0 discriminator 1
	movl	$83, 348(%rbp)
	jmp	.L442
.L447:
	.loc 2 1630 0 is_stmt 1
	leaq	80(%rbp), %rax
	movl	$0, %r8d
	movl	$30, %edx
	movq	%rax, %rcx
	call	_ZL16uivector_resizevP8uivectoryj
	testl	%eax, %eax
	sete	%al
	testb	%al, %al
	je	.L448
	.loc 2 1630 0 is_stmt 0 discriminator 1
	movl	$83, 348(%rbp)
	jmp	.L442
.L448:
.LBB71:
	.loc 2 1633 0 is_stmt 1
	movq	$0, 320(%rbp)
.L451:
	.loc 2 1633 0 is_stmt 0 discriminator 1
	movq	248(%rbp), %rax
	cmpq	%rax, 320(%rbp)
	je	.L449
.LBB72:
	.loc 2 1634 0 is_stmt 1
	movq	240(%rbp), %rax
	movq	320(%rbp), %rdx
	salq	$2, %rdx
	addq	%rdx, %rax
	movl	(%rax), %eax
	movl	%eax, 288(%rbp)
	.loc 2 1635 0
	movq	112(%rbp), %rax
	movl	288(%rbp), %edx
	salq	$2, %rdx
	addq	%rdx, %rax
	movl	(%rax), %edx
	addl	$1, %edx
	movl	%edx, (%rax)
.LBB73:
	.loc 2 1636 0
	cmpl	$256, 288(%rbp)
	jbe	.L450
.LBB74:
	.loc 2 1637 0
	movq	240(%rbp), %rax
	movq	320(%rbp), %rdx
	addq	$2, %rdx
	salq	$2, %rdx
	addq	%rdx, %rax
	movl	(%rax), %eax
	movl	%eax, 284(%rbp)
	.loc 2 1638 0
	movq	80(%rbp), %rax
	movl	284(%rbp), %edx
	salq	$2, %rdx
	addq	%rdx, %rax
	movl	(%rax), %edx
	addl	$1, %edx
	movl	%edx, (%rax)
	.loc 2 1639 0
	addq	$3, 320(%rbp)
.L450:
.LBE74:
.LBE73:
.LBE72:
	.loc 2 1633 0 discriminator 2
	addq	$1, 320(%rbp)
	jmp	.L451
.L449:
.LBE71:
	.loc 2 1642 0
	movq	112(%rbp), %rax
	addq	$1024, %rax
	movl	$1, (%rax)
	.loc 2 1645 0
	movq	120(%rbp), %rcx
	movq	112(%rbp), %rdx
	leaq	208(%rbp), %rax
	movl	$15, 32(%rsp)
	movq	%rcx, %r9
	movl	$257, %r8d
	movq	%rax, %rcx
	call	_ZL31HuffmanTree_makeFromFrequenciesP11HuffmanTreePKjyyj
	movl	%eax, 348(%rbp)
	.loc 2 1646 0
	cmpl	$0, 348(%rbp)
	jne	.L499
	.loc 2 1648 0
	movq	88(%rbp), %rcx
	movq	80(%rbp), %rdx
	leaq	176(%rbp), %rax
	movl	$15, 32(%rsp)
	movq	%rcx, %r9
	movl	$2, %r8d
	movq	%rax, %rcx
	call	_ZL31HuffmanTree_makeFromFrequenciesP11HuffmanTreePKjyyj
	movl	%eax, 348(%rbp)
	.loc 2 1649 0
	cmpl	$0, 348(%rbp)
	jne	.L500
	.loc 2 1651 0
	movl	236(%rbp), %eax
	movl	%eax, %eax
	movq	%rax, 336(%rbp)
	cmpq	$286, 336(%rbp)
	jbe	.L454
	.loc 2 1651 0 is_stmt 0 discriminator 1
	movq	$286, 336(%rbp)
.L454:
	.loc 2 1652 0 is_stmt 1
	movl	204(%rbp), %eax
	movl	%eax, %eax
	movq	%rax, 328(%rbp)
	cmpq	$30, 328(%rbp)
	jbe	.L455
	.loc 2 1652 0 is_stmt 0 discriminator 1
	movq	$30, 328(%rbp)
.L455:
	.loc 2 1654 0 is_stmt 1
	movq	$0, 320(%rbp)
.L457:
	.loc 2 1654 0 is_stmt 0 discriminator 3
	movq	320(%rbp), %rax
	cmpq	336(%rbp), %rax
	je	.L456
	.loc 2 1654 0 discriminator 2
	movq	320(%rbp), %rax
	movl	%eax, %edx
	leaq	208(%rbp), %rax
	movq	%rax, %rcx
	call	_ZL21HuffmanTree_getLengthPK11HuffmanTreej
	movl	%eax, %edx
	leaq	16(%rbp), %rax
	movq	%rax, %rcx
	call	_ZL18uivector_push_backP8uivectorj
	addq	$1, 320(%rbp)
	jmp	.L457
.L456:
	.loc 2 1655 0 is_stmt 1
	movq	$0, 320(%rbp)
.L459:
	.loc 2 1655 0 is_stmt 0 discriminator 3
	movq	320(%rbp), %rax
	cmpq	328(%rbp), %rax
	je	.L458
	.loc 2 1655 0 discriminator 2
	movq	320(%rbp), %rax
	movl	%eax, %edx
	leaq	176(%rbp), %rax
	movq	%rax, %rcx
	call	_ZL21HuffmanTree_getLengthPK11HuffmanTreej
	movl	%eax, %edx
	leaq	16(%rbp), %rax
	movq	%rax, %rcx
	call	_ZL18uivector_push_backP8uivectorj
	addq	$1, 320(%rbp)
	jmp	.L459
.L458:
.LBB75:
	.loc 2 1659 0 is_stmt 1
	movq	$0, 320(%rbp)
.L473:
	.loc 2 1659 0 is_stmt 0 discriminator 1
	movq	24(%rbp), %rax
	movl	%eax, %eax
	cmpq	%rax, 320(%rbp)
	je	.L460
.LBB76:
	.loc 2 1660 0 is_stmt 1
	movl	$0, 312(%rbp)
.L462:
	.loc 2 1661 0 discriminator 3
	movl	312(%rbp), %edx
	movq	320(%rbp), %rax
	addq	%rdx, %rax
	leaq	1(%rax), %rdx
	movq	24(%rbp), %rax
	movl	%eax, %eax
	cmpq	%rax, %rdx
	jnb	.L461
	.loc 2 1661 0 is_stmt 0 discriminator 1
	movq	16(%rbp), %rax
	movl	312(%rbp), %ecx
	movq	320(%rbp), %rdx
	addq	%rcx, %rdx
	addq	$1, %rdx
	salq	$2, %rdx
	addq	%rdx, %rax
	movl	(%rax), %edx
	movq	16(%rbp), %rax
	movq	320(%rbp), %rcx
	salq	$2, %rcx
	addq	%rcx, %rax
	movl	(%rax), %eax
	cmpl	%eax, %edx
	jne	.L461
	.loc 2 1661 0 discriminator 2
	addl	$1, 312(%rbp)
	jmp	.L462
.L461:
.LBB77:
	.loc 2 1663 0 is_stmt 1
	movq	16(%rbp), %rax
	movq	320(%rbp), %rdx
	salq	$2, %rdx
	addq	%rdx, %rax
	movl	(%rax), %eax
	testl	%eax, %eax
	jne	.L463
	.loc 2 1663 0 is_stmt 0 discriminator 1
	cmpl	$1, 312(%rbp)
	jbe	.L463
	.loc 2 1664 0 is_stmt 1
	addl	$1, 312(%rbp)
	.loc 2 1665 0
	cmpl	$10, 312(%rbp)
	ja	.L464
	.loc 2 1666 0
	leaq	-16(%rbp), %rax
	movl	$17, %edx
	movq	%rax, %rcx
	call	_ZL18uivector_push_backP8uivectorj
	.loc 2 1667 0
	movl	312(%rbp), %eax
	leal	-3(%rax), %edx
	leaq	-16(%rbp), %rax
	movq	%rax, %rcx
	call	_ZL18uivector_push_backP8uivectorj
	jmp	.L465
.L464:
	.loc 2 1670 0
	cmpl	$138, 312(%rbp)
	jbe	.L466
	.loc 2 1670 0 is_stmt 0 discriminator 1
	movl	$138, 312(%rbp)
.L466:
	.loc 2 1671 0 is_stmt 1
	leaq	-16(%rbp), %rax
	movl	$18, %edx
	movq	%rax, %rcx
	call	_ZL18uivector_push_backP8uivectorj
	.loc 2 1672 0
	movl	312(%rbp), %eax
	leal	-11(%rax), %edx
	leaq	-16(%rbp), %rax
	movq	%rax, %rcx
	call	_ZL18uivector_push_backP8uivectorj
.L465:
	.loc 2 1674 0
	movl	312(%rbp), %eax
	subl	$1, %eax
	movl	%eax, %eax
	addq	%rax, 320(%rbp)
	jmp	.L467
.L463:
.LBB78:
.LBB79:
	.loc 2 1676 0
	cmpl	$2, 312(%rbp)
	jbe	.L468
.LBB80:
	.loc 2 1678 0
	movl	312(%rbp), %eax
	movl	$-1431655765, %edx
	mull	%edx
	movl	%edx, %eax
	shrl	$2, %eax
	movl	%eax, 280(%rbp)
	movl	312(%rbp), %ecx
	movl	$-1431655765, %edx
	movl	%ecx, %eax
	mull	%edx
	shrl	$2, %edx
	movl	%edx, %eax
	addl	%eax, %eax
	addl	%edx, %eax
	addl	%eax, %eax
	subl	%eax, %ecx
	movl	%ecx, %eax
	movl	%eax, 276(%rbp)
	.loc 2 1679 0
	movq	16(%rbp), %rax
	movq	320(%rbp), %rdx
	salq	$2, %rdx
	addq	%rdx, %rax
	movl	(%rax), %edx
	leaq	-16(%rbp), %rax
	movq	%rax, %rcx
	call	_ZL18uivector_push_backP8uivectorj
	.loc 2 1680 0
	movq	$0, 304(%rbp)
.L470:
	.loc 2 1680 0 is_stmt 0 discriminator 3
	movl	280(%rbp), %eax
	cmpq	%rax, 304(%rbp)
	jnb	.L469
	.loc 2 1681 0 is_stmt 1 discriminator 2
	leaq	-16(%rbp), %rax
	movl	$16, %edx
	movq	%rax, %rcx
	call	_ZL18uivector_push_backP8uivectorj
	.loc 2 1682 0 discriminator 2
	leaq	-16(%rbp), %rax
	movl	$3, %edx
	movq	%rax, %rcx
	call	_ZL18uivector_push_backP8uivectorj
	.loc 2 1680 0 discriminator 2
	addq	$1, 304(%rbp)
	jmp	.L470
.L469:
	.loc 2 1684 0
	cmpl	$2, 276(%rbp)
	jbe	.L471
	.loc 2 1685 0
	leaq	-16(%rbp), %rax
	movl	$16, %edx
	movq	%rax, %rcx
	call	_ZL18uivector_push_backP8uivectorj
	.loc 2 1686 0
	movl	276(%rbp), %eax
	leal	-3(%rax), %edx
	leaq	-16(%rbp), %rax
	movq	%rax, %rcx
	call	_ZL18uivector_push_backP8uivectorj
	jmp	.L472
.L471:
	.loc 2 1688 0
	movl	276(%rbp), %eax
	subl	%eax, 312(%rbp)
.L472:
	.loc 2 1689 0
	movl	312(%rbp), %eax
	addq	%rax, 320(%rbp)
.LBE80:
	jmp	.L467
.L468:
	.loc 2 1692 0
	movq	16(%rbp), %rax
	movq	320(%rbp), %rdx
	salq	$2, %rdx
	addq	%rdx, %rax
	movl	(%rax), %edx
	leaq	-16(%rbp), %rax
	movq	%rax, %rcx
	call	_ZL18uivector_push_backP8uivectorj
.L467:
.LBE79:
.LBE78:
.LBE77:
.LBE76:
	.loc 2 1659 0 discriminator 2
	addq	$1, 320(%rbp)
	jmp	.L473
.L460:
.LBE75:
	.loc 2 1698 0
	leaq	48(%rbp), %rax
	movl	$0, %r8d
	movl	$19, %edx
	movq	%rax, %rcx
	call	_ZL16uivector_resizevP8uivectoryj
	testl	%eax, %eax
	sete	%al
	testb	%al, %al
	je	.L474
	.loc 2 1698 0 is_stmt 0 discriminator 1
	movl	$83, 348(%rbp)
	jmp	.L442
.L474:
	.loc 2 1699 0 is_stmt 1
	movq	$0, 320(%rbp)
.L477:
	.loc 2 1699 0 is_stmt 0 discriminator 1
	movq	-8(%rbp), %rax
	cmpq	%rax, 320(%rbp)
	je	.L475
	.loc 2 1700 0 is_stmt 1
	movq	48(%rbp), %rax
	movq	-16(%rbp), %rdx
	movq	320(%rbp), %rcx
	salq	$2, %rcx
	addq	%rcx, %rdx
	movl	(%rdx), %edx
	movl	%edx, %edx
	salq	$2, %rdx
	addq	%rdx, %rax
	movl	(%rax), %edx
	addl	$1, %edx
	movl	%edx, (%rax)
	.loc 2 1703 0
	movq	-16(%rbp), %rax
	movq	320(%rbp), %rdx
	salq	$2, %rdx
	addq	%rdx, %rax
	movl	(%rax), %eax
	cmpl	$15, %eax
	jbe	.L476
	.loc 2 1703 0 is_stmt 0 discriminator 1
	addq	$1, 320(%rbp)
.L476:
	.loc 2 1699 0 is_stmt 1 discriminator 2
	addq	$1, 320(%rbp)
	jmp	.L477
.L475:
	.loc 2 1706 0
	movq	56(%rbp), %r8
	movq	56(%rbp), %rcx
	movq	48(%rbp), %rdx
	leaq	144(%rbp), %rax
	movl	$7, 32(%rsp)
	movq	%r8, %r9
	movq	%rcx, %r8
	movq	%rax, %rcx
	call	_ZL31HuffmanTree_makeFromFrequenciesP11HuffmanTreePKjyyj
	movl	%eax, 348(%rbp)
	.loc 2 1708 0
	cmpl	$0, 348(%rbp)
	jne	.L501
	.loc 2 1710 0
	movl	172(%rbp), %eax
	movl	%eax, %edx
	leaq	-48(%rbp), %rax
	movq	%rax, %rcx
	call	_ZL15uivector_resizeP8uivectory
	testl	%eax, %eax
	sete	%al
	testb	%al, %al
	je	.L479
	.loc 2 1710 0 is_stmt 0 discriminator 1
	movl	$83, 348(%rbp)
	jmp	.L442
.L479:
	.loc 2 1711 0 is_stmt 1
	movq	$0, 320(%rbp)
.L481:
	.loc 2 1711 0 is_stmt 0 discriminator 3
	movl	172(%rbp), %eax
	movl	%eax, %eax
	cmpq	%rax, 320(%rbp)
	je	.L480
	.loc 2 1713 0 is_stmt 1 discriminator 2
	movq	320(%rbp), %rax
	leaq	0(,%rax,4), %rdx
	leaq	_ZL10CLCL_ORDER(%rip), %rax
	movl	(%rdx,%rax), %edx
	movq	-48(%rbp), %rax
	movq	320(%rbp), %rcx
	salq	$2, %rcx
	leaq	(%rax,%rcx), %rbx
	leaq	144(%rbp), %rax
	movq	%rax, %rcx
	call	_ZL21HuffmanTree_getLengthPK11HuffmanTreej
	movl	%eax, (%rbx)
	.loc 2 1711 0 discriminator 2
	addq	$1, 320(%rbp)
	jmp	.L481
.L480:
	.loc 2 1715 0
	movq	-48(%rbp), %rax
	movq	-40(%rbp), %rdx
	salq	$2, %rdx
	subq	$4, %rdx
	addq	%rdx, %rax
	movl	(%rax), %eax
	testl	%eax, %eax
	jne	.L482
	.loc 2 1715 0 is_stmt 0 discriminator 1
	movq	-40(%rbp), %rax
	cmpq	$4, %rax
	jbe	.L482
	.loc 2 1717 0 is_stmt 1
	movq	-40(%rbp), %rax
	leaq	-1(%rax), %rdx
	leaq	-48(%rbp), %rax
	movq	%rax, %rcx
	call	_ZL15uivector_resizeP8uivectory
	testl	%eax, %eax
	sete	%al
	testb	%al, %al
	je	.L480
	.loc 2 1717 0 is_stmt 0 discriminator 1
	movl	$83, 348(%rbp)
.L482:
	.loc 2 1719 0 is_stmt 1
	cmpl	$0, 348(%rbp)
	jne	.L502
	.loc 2 1736 0
	movq	392(%rbp), %rax
	movq	(%rax), %rax
	andl	$7, %eax
	testq	%rax, %rax
	jne	.L485
	.loc 2 1736 0 is_stmt 0 discriminator 1
	movl	$0, %edx
	movq	384(%rbp), %rcx
	call	_ZL18ucvector_push_backP8ucvectorh
.L485:
	.loc 2 1736 0 discriminator 3
	movq	384(%rbp), %rax
	movq	(%rax), %rdx
	movq	384(%rbp), %rax
	movq	8(%rax), %rax
	subq	$1, %rax
	addq	%rdx, %rax
	movzbl	(%rax), %r8d
	movq	392(%rbp), %rax
	movq	(%rax), %rax
	andl	$7, %eax
	movl	292(%rbp), %edx
	movl	%eax, %ecx
	sall	%cl, %edx
	movl	%edx, %eax
	movl	%eax, %ecx
	movq	384(%rbp), %rax
	movq	(%rax), %rdx
	movq	384(%rbp), %rax
	movq	8(%rax), %rax
	subq	$1, %rax
	addq	%rdx, %rax
	movl	%r8d, %edx
	orl	%ecx, %edx
	movb	%dl, (%rax)
	movq	392(%rbp), %rax
	movq	(%rax), %rax
	leaq	1(%rax), %rdx
	movq	392(%rbp), %rax
	movq	%rdx, (%rax)
	.loc 2 1737 0 is_stmt 1 discriminator 3
	movq	392(%rbp), %rax
	movq	(%rax), %rax
	andl	$7, %eax
	testq	%rax, %rax
	jne	.L486
	.loc 2 1737 0 is_stmt 0 discriminator 1
	movl	$0, %edx
	movq	384(%rbp), %rcx
	call	_ZL18ucvector_push_backP8ucvectorh
.L486:
	.loc 2 1737 0 discriminator 3
	movq	384(%rbp), %rax
	movq	(%rax), %rdx
	movq	384(%rbp), %rax
	movq	8(%rax), %rax
	subq	$1, %rax
	leaq	(%rdx,%rax), %rcx
	movq	384(%rbp), %rax
	movq	(%rax), %rdx
	movq	384(%rbp), %rax
	movq	8(%rax), %rax
	subq	$1, %rax
	addq	%rax, %rdx
	movzbl	(%rcx), %eax
	movb	%al, (%rdx)
	movq	392(%rbp), %rax
	movq	(%rax), %rax
	leaq	1(%rax), %rdx
	movq	392(%rbp), %rax
	movq	%rdx, (%rax)
	.loc 2 1738 0 is_stmt 1 discriminator 3
	movq	392(%rbp), %rax
	movq	(%rax), %rax
	andl	$7, %eax
	testq	%rax, %rax
	jne	.L487
	.loc 2 1738 0 is_stmt 0 discriminator 1
	movl	$0, %edx
	movq	384(%rbp), %rcx
	call	_ZL18ucvector_push_backP8ucvectorh
.L487:
	.loc 2 1738 0 discriminator 3
	movq	384(%rbp), %rax
	movq	(%rax), %rdx
	movq	384(%rbp), %rax
	movq	8(%rax), %rax
	subq	$1, %rax
	addq	%rdx, %rax
	movzbl	(%rax), %eax
	movl	%eax, %r8d
	movq	392(%rbp), %rax
	movq	(%rax), %rax
	andl	$7, %eax
	movl	$1, %edx
	movl	%eax, %ecx
	sall	%cl, %edx
	movl	%edx, %eax
	movl	%r8d, %ecx
	orl	%eax, %ecx
	movq	384(%rbp), %rax
	movq	(%rax), %rdx
	movq	384(%rbp), %rax
	movq	8(%rax), %rax
	subq	$1, %rax
	addq	%rdx, %rax
	movl	%ecx, %edx
	movb	%dl, (%rax)
	movq	392(%rbp), %rax
	movq	(%rax), %rax
	leaq	1(%rax), %rdx
	movq	392(%rbp), %rax
	movq	%rdx, (%rax)
	.loc 2 1741 0 is_stmt 1 discriminator 3
	movq	336(%rbp), %rax
	subl	$257, %eax
	movl	%eax, 272(%rbp)
	.loc 2 1742 0 discriminator 3
	movq	328(%rbp), %rax
	subl	$1, %eax
	movl	%eax, 268(%rbp)
	.loc 2 1743 0 discriminator 3
	movq	-40(%rbp), %rax
	subl	$4, %eax
	movl	%eax, 316(%rbp)
.L489:
	.loc 2 1745 0 discriminator 3
	movq	-48(%rbp), %rax
	movl	316(%rbp), %edx
	addl	$3, %edx
	movl	%edx, %edx
	salq	$2, %rdx
	addq	%rdx, %rax
	movl	(%rax), %eax
	testl	%eax, %eax
	jne	.L488
	.loc 2 1745 0 is_stmt 0 discriminator 1
	cmpl	$0, 316(%rbp)
	je	.L488
	.loc 2 1745 0 discriminator 2
	subl	$1, 316(%rbp)
	jmp	.L489
.L488:
	.loc 2 1746 0 is_stmt 1
	movl	272(%rbp), %edx
	movq	392(%rbp), %rax
	movl	$5, %r9d
	movl	%edx, %r8d
	movq	384(%rbp), %rdx
	movq	%rax, %rcx
	call	_ZL15addBitsToStreamPyP8ucvectorjy
	.loc 2 1747 0
	movl	268(%rbp), %edx
	movq	392(%rbp), %rax
	movl	$5, %r9d
	movl	%edx, %r8d
	movq	384(%rbp), %rdx
	movq	%rax, %rcx
	call	_ZL15addBitsToStreamPyP8ucvectorjy
	.loc 2 1748 0
	movl	316(%rbp), %edx
	movq	392(%rbp), %rax
	movl	$4, %r9d
	movl	%edx, %r8d
	movq	384(%rbp), %rdx
	movq	%rax, %rcx
	call	_ZL15addBitsToStreamPyP8ucvectorjy
	.loc 2 1751 0
	movq	$0, 320(%rbp)
.L491:
	.loc 2 1751 0 is_stmt 0 discriminator 3
	movl	316(%rbp), %eax
	addl	$4, %eax
	movl	%eax, %eax
	cmpq	%rax, 320(%rbp)
	je	.L490
	.loc 2 1751 0 discriminator 2
	movq	-48(%rbp), %rax
	movq	320(%rbp), %rdx
	salq	$2, %rdx
	addq	%rdx, %rax
	movl	(%rax), %edx
	movq	392(%rbp), %rax
	movl	$3, %r9d
	movl	%edx, %r8d
	movq	384(%rbp), %rdx
	movq	%rax, %rcx
	call	_ZL15addBitsToStreamPyP8ucvectorjy
	addq	$1, 320(%rbp)
	jmp	.L491
.L490:
	.loc 2 1754 0 is_stmt 1
	movq	$0, 320(%rbp)
.L496:
	.loc 2 1754 0 is_stmt 0 discriminator 1
	movq	-8(%rbp), %rax
	cmpq	%rax, 320(%rbp)
	je	.L492
	.loc 2 1756 0 is_stmt 1
	movq	-16(%rbp), %rax
	movq	320(%rbp), %rdx
	salq	$2, %rdx
	addq	%rdx, %rax
	.loc 2 1755 0
	movl	(%rax), %edx
	leaq	144(%rbp), %rax
	movq	%rax, %rcx
	call	_ZL21HuffmanTree_getLengthPK11HuffmanTreej
	movl	%eax, %ebx
	movq	-16(%rbp), %rax
	movq	320(%rbp), %rdx
	salq	$2, %rdx
	addq	%rdx, %rax
	movl	(%rax), %edx
	leaq	144(%rbp), %rax
	movq	%rax, %rcx
	call	_ZL19HuffmanTree_getCodePK11HuffmanTreej
	movl	%eax, %edx
	movq	392(%rbp), %rax
	movl	%ebx, %r9d
	movl	%edx, %r8d
	movq	384(%rbp), %rdx
	movq	%rax, %rcx
	call	_ZL16addHuffmanSymbolPyP8ucvectorjj
	.loc 2 1758 0
	movq	-16(%rbp), %rax
	movq	320(%rbp), %rdx
	salq	$2, %rdx
	addq	%rdx, %rax
	movl	(%rax), %eax
	cmpl	$16, %eax
	jne	.L493
	.loc 2 1758 0 is_stmt 0 discriminator 1
	movq	-16(%rbp), %rax
	addq	$1, 320(%rbp)
	movq	320(%rbp), %rdx
	salq	$2, %rdx
	addq	%rdx, %rax
	movl	(%rax), %edx
	movq	392(%rbp), %rax
	movl	$2, %r9d
	movl	%edx, %r8d
	movq	384(%rbp), %rdx
	movq	%rax, %rcx
	call	_ZL15addBitsToStreamPyP8ucvectorjy
	jmp	.L494
.L493:
	.loc 2 1759 0 is_stmt 1
	movq	-16(%rbp), %rax
	movq	320(%rbp), %rdx
	salq	$2, %rdx
	addq	%rdx, %rax
	movl	(%rax), %eax
	cmpl	$17, %eax
	jne	.L495
	.loc 2 1759 0 is_stmt 0 discriminator 1
	movq	-16(%rbp), %rax
	addq	$1, 320(%rbp)
	movq	320(%rbp), %rdx
	salq	$2, %rdx
	addq	%rdx, %rax
	movl	(%rax), %edx
	movq	392(%rbp), %rax
	movl	$3, %r9d
	movl	%edx, %r8d
	movq	384(%rbp), %rdx
	movq	%rax, %rcx
	call	_ZL15addBitsToStreamPyP8ucvectorjy
	jmp	.L494
.L495:
	.loc 2 1760 0 is_stmt 1
	movq	-16(%rbp), %rax
	movq	320(%rbp), %rdx
	salq	$2, %rdx
	addq	%rdx, %rax
	movl	(%rax), %eax
	cmpl	$18, %eax
	jne	.L494
	.loc 2 1760 0 is_stmt 0 discriminator 1
	movq	-16(%rbp), %rax
	addq	$1, 320(%rbp)
	movq	320(%rbp), %rdx
	salq	$2, %rdx
	addq	%rdx, %rax
	movl	(%rax), %edx
	movq	392(%rbp), %rax
	movl	$7, %r9d
	movl	%edx, %r8d
	movq	384(%rbp), %rdx
	movq	%rax, %rcx
	call	_ZL15addBitsToStreamPyP8ucvectorjy
.L494:
	.loc 2 1754 0 is_stmt 1 discriminator 2
	addq	$1, 320(%rbp)
	jmp	.L496
.L492:
	.loc 2 1764 0
	leaq	208(%rbp), %r8
	leaq	240(%rbp), %rcx
	movq	392(%rbp), %rax
	leaq	176(%rbp), %rdx
	movq	%rdx, 32(%rsp)
	movq	%r8, %r9
	movq	%rcx, %r8
	movq	384(%rbp), %rdx
	movq	%rax, %rcx
	call	_ZL13writeLZ77dataPyP8ucvectorPK8uivectorPK11HuffmanTreeS7_
	.loc 2 1766 0
	leaq	208(%rbp), %rax
	movl	$256, %edx
	movq	%rax, %rcx
	call	_ZL21HuffmanTree_getLengthPK11HuffmanTreej
	testl	%eax, %eax
	sete	%al
	testb	%al, %al
	je	.L497
	.loc 2 1766 0 is_stmt 0 discriminator 1
	movl	$64, 348(%rbp)
	jmp	.L442
.L497:
	.loc 2 1769 0 is_stmt 1
	leaq	208(%rbp), %rax
	movl	$256, %edx
	movq	%rax, %rcx
	call	_ZL21HuffmanTree_getLengthPK11HuffmanTreej
	movl	%eax, %ebx
	leaq	208(%rbp), %rax
	movl	$256, %edx
	movq	%rax, %rcx
	call	_ZL19HuffmanTree_getCodePK11HuffmanTreej
	movl	%eax, %edx
	movq	392(%rbp), %rax
	movl	%ebx, %r9d
	movl	%edx, %r8d
	movq	384(%rbp), %rdx
	movq	%rax, %rcx
	call	_ZL16addHuffmanSymbolPyP8ucvectorjj
	.loc 2 1771 0
	jmp	.L442
.L499:
	.loc 2 1646 0
	nop
	jmp	.L442
.L500:
	.loc 2 1649 0
	nop
	jmp	.L442
.L501:
	.loc 2 1708 0
	nop
	jmp	.L442
.L502:
	.loc 2 1719 0
	nop
.L442:
.LBE70:
	.loc 2 1775 0
	leaq	240(%rbp), %rax
	movq	%rax, %rcx
	call	_ZL16uivector_cleanupPv
	.loc 2 1776 0
	leaq	208(%rbp), %rax
	movq	%rax, %rcx
	call	_ZL19HuffmanTree_cleanupP11HuffmanTree
	.loc 2 1777 0
	leaq	176(%rbp), %rax
	movq	%rax, %rcx
	call	_ZL19HuffmanTree_cleanupP11HuffmanTree
	.loc 2 1778 0
	leaq	144(%rbp), %rax
	movq	%rax, %rcx
	call	_ZL19HuffmanTree_cleanupP11HuffmanTree
	.loc 2 1779 0
	leaq	112(%rbp), %rax
	movq	%rax, %rcx
	call	_ZL16uivector_cleanupPv
	.loc 2 1780 0
	leaq	80(%rbp), %rax
	movq	%rax, %rcx
	call	_ZL16uivector_cleanupPv
	.loc 2 1781 0
	leaq	48(%rbp), %rax
	movq	%rax, %rcx
	call	_ZL16uivector_cleanupPv
	.loc 2 1782 0
	leaq	-16(%rbp), %rax
	movq	%rax, %rcx
	call	_ZL16uivector_cleanupPv
	.loc 2 1783 0
	leaq	16(%rbp), %rax
	movq	%rax, %rcx
	call	_ZL16uivector_cleanupPv
	.loc 2 1784 0
	leaq	-48(%rbp), %rax
	movq	%rax, %rcx
	call	_ZL16uivector_cleanupPv
	.loc 2 1786 0
	movl	348(%rbp), %eax
	.loc 2 1787 0
	addq	$488, %rsp
	popq	%rbx
	.cfi_restore 3
	popq	%rbp
	.cfi_restore 6
	.cfi_def_cfa 7, -472
	ret
	.cfi_endproc
.LFE1408:
	.seh_endproc
	.def	_ZL12deflateFixedP8ucvectorPyP4HashPKhyyPK23LodePNGCompressSettingsj;	.scl	3;	.type	32;	.endef
	.seh_proc	_ZL12deflateFixedP8ucvectorPyP4HashPKhyyPK23LodePNGCompressSettingsj
_ZL12deflateFixedP8ucvectorPyP4HashPKhyyPK23LodePNGCompressSettingsj:
.LFB1409:
	.loc 2 1792 0
	.cfi_startproc
	pushq	%rbp
	.seh_pushreg	%rbp
	.cfi_def_cfa_offset 16
	.cfi_offset 6, -16
	pushq	%rbx
	.seh_pushreg	%rbx
	.cfi_def_cfa_offset 24
	.cfi_offset 3, -24
	subq	$216, %rsp
	.seh_stackalloc	216
	.cfi_def_cfa_offset 240
	leaq	128(%rsp), %rbp
	.seh_setframe	%rbp, 128
	.cfi_def_cfa 6, 112
	.seh_endprologue
	movq	%rcx, 112(%rbp)
	movq	%rdx, 120(%rbp)
	movq	%r8, 128(%rbp)
	movq	%r9, 136(%rbp)
	.loc 2 1796 0
	movl	168(%rbp), %eax
	movl	%eax, 60(%rbp)
	.loc 2 1797 0
	movl	$0, 76(%rbp)
	.loc 2 1800 0
	leaq	16(%rbp), %rax
	movq	%rax, %rcx
	call	_ZL16HuffmanTree_initP11HuffmanTree
	.loc 2 1801 0
	leaq	-16(%rbp), %rax
	movq	%rax, %rcx
	call	_ZL16HuffmanTree_initP11HuffmanTree
	.loc 2 1803 0
	leaq	16(%rbp), %rax
	movq	%rax, %rcx
	call	_ZL23generateFixedLitLenTreeP11HuffmanTree
	.loc 2 1804 0
	leaq	-16(%rbp), %rax
	movq	%rax, %rcx
	call	_ZL25generateFixedDistanceTreeP11HuffmanTree
	.loc 2 1806 0
	movq	120(%rbp), %rax
	movq	(%rax), %rax
	andl	$7, %eax
	testq	%rax, %rax
	jne	.L504
	.loc 2 1806 0 is_stmt 0 discriminator 1
	movl	$0, %edx
	movq	112(%rbp), %rcx
	call	_ZL18ucvector_push_backP8ucvectorh
.L504:
	.loc 2 1806 0 discriminator 3
	movq	112(%rbp), %rax
	movq	(%rax), %rdx
	movq	112(%rbp), %rax
	movq	8(%rax), %rax
	subq	$1, %rax
	addq	%rdx, %rax
	movzbl	(%rax), %r8d
	movq	120(%rbp), %rax
	movq	(%rax), %rax
	andl	$7, %eax
	movl	60(%rbp), %edx
	movl	%eax, %ecx
	sall	%cl, %edx
	movl	%edx, %eax
	movl	%eax, %ecx
	movq	112(%rbp), %rax
	movq	(%rax), %rdx
	movq	112(%rbp), %rax
	movq	8(%rax), %rax
	subq	$1, %rax
	addq	%rdx, %rax
	movl	%r8d, %edx
	orl	%ecx, %edx
	movb	%dl, (%rax)
	movq	120(%rbp), %rax
	movq	(%rax), %rax
	leaq	1(%rax), %rdx
	movq	120(%rbp), %rax
	movq	%rdx, (%rax)
	.loc 2 1807 0 is_stmt 1 discriminator 3
	movq	120(%rbp), %rax
	movq	(%rax), %rax
	andl	$7, %eax
	testq	%rax, %rax
	jne	.L505
	.loc 2 1807 0 is_stmt 0 discriminator 1
	movl	$0, %edx
	movq	112(%rbp), %rcx
	call	_ZL18ucvector_push_backP8ucvectorh
.L505:
	.loc 2 1807 0 discriminator 3
	movq	112(%rbp), %rax
	movq	(%rax), %rdx
	movq	112(%rbp), %rax
	movq	8(%rax), %rax
	subq	$1, %rax
	addq	%rdx, %rax
	movzbl	(%rax), %eax
	movl	%eax, %r8d
	movq	120(%rbp), %rax
	movq	(%rax), %rax
	andl	$7, %eax
	movl	$1, %edx
	movl	%eax, %ecx
	sall	%cl, %edx
	movl	%edx, %eax
	movl	%r8d, %ecx
	orl	%eax, %ecx
	movq	112(%rbp), %rax
	movq	(%rax), %rdx
	movq	112(%rbp), %rax
	movq	8(%rax), %rax
	subq	$1, %rax
	addq	%rdx, %rax
	movl	%ecx, %edx
	movb	%dl, (%rax)
	movq	120(%rbp), %rax
	movq	(%rax), %rax
	leaq	1(%rax), %rdx
	movq	120(%rbp), %rax
	movq	%rdx, (%rax)
	.loc 2 1808 0 is_stmt 1 discriminator 3
	movq	120(%rbp), %rax
	movq	(%rax), %rax
	andl	$7, %eax
	testq	%rax, %rax
	jne	.L506
	.loc 2 1808 0 is_stmt 0 discriminator 1
	movl	$0, %edx
	movq	112(%rbp), %rcx
	call	_ZL18ucvector_push_backP8ucvectorh
.L506:
	.loc 2 1808 0 discriminator 3
	movq	112(%rbp), %rax
	movq	(%rax), %rdx
	movq	112(%rbp), %rax
	movq	8(%rax), %rax
	subq	$1, %rax
	leaq	(%rdx,%rax), %rcx
	movq	112(%rbp), %rax
	movq	(%rax), %rdx
	movq	112(%rbp), %rax
	movq	8(%rax), %rax
	subq	$1, %rax
	addq	%rax, %rdx
	movzbl	(%rcx), %eax
	movb	%al, (%rdx)
	movq	120(%rbp), %rax
	movq	(%rax), %rax
	leaq	1(%rax), %rdx
	movq	120(%rbp), %rax
	movq	%rdx, (%rax)
.LBB81:
	.loc 2 1810 0 is_stmt 1 discriminator 3
	movq	160(%rbp), %rax
	movl	4(%rax), %eax
	testl	%eax, %eax
	je	.L507
.LBB82:
	.loc 2 1812 0
	leaq	-48(%rbp), %rax
	movq	%rax, %rcx
	call	_ZL13uivector_initP8uivector
	.loc 2 1814 0
	movq	160(%rbp), %rax
	movl	20(%rax), %r10d
	movq	160(%rbp), %rax
	movl	16(%rax), %r9d
	movq	160(%rbp), %rax
	movl	12(%rax), %r8d
	.loc 2 1813 0
	movq	160(%rbp), %rax
	movl	8(%rax), %ecx
	movq	144(%rbp), %rbx
	movq	136(%rbp), %r11
	movq	128(%rbp), %rdx
	leaq	-48(%rbp), %rax
	movl	%r10d, 64(%rsp)
	movl	%r9d, 56(%rsp)
	movl	%r8d, 48(%rsp)
	movl	%ecx, 40(%rsp)
	movq	152(%rbp), %rcx
	movq	%rcx, 32(%rsp)
	movq	%rbx, %r9
	movq	%r11, %r8
	movq	%rax, %rcx
	call	_ZL10encodeLZ77P8uivectorP4HashPKhyyjjjj
	movl	%eax, 76(%rbp)
	.loc 2 1815 0
	cmpl	$0, 76(%rbp)
	jne	.L508
	.loc 2 1815 0 is_stmt 0 discriminator 1
	leaq	16(%rbp), %r8
	leaq	-48(%rbp), %rcx
	movq	120(%rbp), %rax
	leaq	-16(%rbp), %rdx
	movq	%rdx, 32(%rsp)
	movq	%r8, %r9
	movq	%rcx, %r8
	movq	112(%rbp), %rdx
	movq	%rax, %rcx
	call	_ZL13writeLZ77dataPyP8ucvectorPK8uivectorPK11HuffmanTreeS7_
.L508:
	.loc 2 1816 0 is_stmt 1
	leaq	-48(%rbp), %rax
	movq	%rax, %rcx
	call	_ZL16uivector_cleanupPv
.LBE82:
	jmp	.L509
.L507:
	.loc 2 1819 0
	movq	144(%rbp), %rax
	movq	%rax, 64(%rbp)
.L510:
	.loc 2 1819 0 is_stmt 0 discriminator 3
	movq	64(%rbp), %rax
	cmpq	152(%rbp), %rax
	jnb	.L509
	.loc 2 1820 0 is_stmt 1 discriminator 2
	movq	136(%rbp), %rdx
	movq	64(%rbp), %rax
	addq	%rdx, %rax
	movzbl	(%rax), %eax
	movzbl	%al, %edx
	leaq	16(%rbp), %rax
	movq	%rax, %rcx
	call	_ZL21HuffmanTree_getLengthPK11HuffmanTreej
	movl	%eax, %ebx
	movq	136(%rbp), %rdx
	movq	64(%rbp), %rax
	addq	%rdx, %rax
	movzbl	(%rax), %eax
	movzbl	%al, %edx
	leaq	16(%rbp), %rax
	movq	%rax, %rcx
	call	_ZL19HuffmanTree_getCodePK11HuffmanTreej
	movl	%eax, %edx
	movq	120(%rbp), %rax
	movl	%ebx, %r9d
	movl	%edx, %r8d
	movq	112(%rbp), %rdx
	movq	%rax, %rcx
	call	_ZL16addHuffmanSymbolPyP8ucvectorjj
	.loc 2 1819 0 discriminator 2
	addq	$1, 64(%rbp)
	jmp	.L510
.L509:
.LBE81:
	.loc 2 1824 0
	cmpl	$0, 76(%rbp)
	jne	.L511
	.loc 2 1824 0 is_stmt 0 discriminator 1
	leaq	16(%rbp), %rax
	movl	$256, %edx
	movq	%rax, %rcx
	call	_ZL21HuffmanTree_getLengthPK11HuffmanTreej
	movl	%eax, %ebx
	leaq	16(%rbp), %rax
	movl	$256, %edx
	movq	%rax, %rcx
	call	_ZL19HuffmanTree_getCodePK11HuffmanTreej
	movl	%eax, %edx
	movq	120(%rbp), %rax
	movl	%ebx, %r9d
	movl	%edx, %r8d
	movq	112(%rbp), %rdx
	movq	%rax, %rcx
	call	_ZL16addHuffmanSymbolPyP8ucvectorjj
.L511:
	.loc 2 1827 0 is_stmt 1
	leaq	16(%rbp), %rax
	movq	%rax, %rcx
	call	_ZL19HuffmanTree_cleanupP11HuffmanTree
	.loc 2 1828 0
	leaq	-16(%rbp), %rax
	movq	%rax, %rcx
	call	_ZL19HuffmanTree_cleanupP11HuffmanTree
	.loc 2 1830 0
	movl	76(%rbp), %eax
	.loc 2 1831 0
	addq	$216, %rsp
	popq	%rbx
	.cfi_restore 3
	popq	%rbp
	.cfi_restore 6
	.cfi_def_cfa 7, -200
	ret
	.cfi_endproc
.LFE1409:
	.seh_endproc
	.def	_ZL16lodepng_deflatevP8ucvectorPKhyPK23LodePNGCompressSettings;	.scl	3;	.type	32;	.endef
	.seh_proc	_ZL16lodepng_deflatevP8ucvectorPKhyPK23LodePNGCompressSettings
_ZL16lodepng_deflatevP8ucvectorPKhyPK23LodePNGCompressSettings:
.LFB1410:
	.loc 2 1834 0
	.cfi_startproc
	pushq	%rbp
	.seh_pushreg	%rbp
	.cfi_def_cfa_offset 16
	.cfi_offset 6, -16
	movq	%rsp, %rbp
	.seh_setframe	%rbp, 0
	.cfi_def_cfa_register 6
	subq	$176, %rsp
	.seh_stackalloc	176
	.seh_endprologue
	movq	%rcx, 16(%rbp)
	movq	%rdx, 24(%rbp)
	movq	%r8, 32(%rbp)
	movq	%r9, 40(%rbp)
	.loc 2 1835 0
	movl	$0, -4(%rbp)
	.loc 2 1837 0
	movq	$0, -64(%rbp)
	.loc 2 1840 0
	movq	40(%rbp), %rax
	movl	(%rax), %eax
	cmpl	$2, %eax
	jbe	.L514
	.loc 2 1840 0 is_stmt 0 discriminator 1
	movl	$61, %eax
	jmp	.L527
.L514:
	.loc 2 1841 0 is_stmt 1
	movq	40(%rbp), %rax
	movl	(%rax), %eax
	testl	%eax, %eax
	jne	.L516
	.loc 2 1841 0 is_stmt 0 discriminator 1
	movq	32(%rbp), %rdx
	movq	24(%rbp), %rax
	movq	%rdx, %r8
	movq	%rax, %rdx
	movq	16(%rbp), %rcx
	call	_ZL20deflateNoCompressionP8ucvectorPKhy
	jmp	.L527
.L516:
	.loc 2 1842 0 is_stmt 1
	movq	40(%rbp), %rax
	movl	(%rax), %eax
	cmpl	$1, %eax
	jne	.L517
	.loc 2 1842 0 is_stmt 0 discriminator 1
	movq	32(%rbp), %rax
	movq	%rax, -24(%rbp)
	jmp	.L518
.L517:
	.loc 2 1845 0 is_stmt 1
	movq	32(%rbp), %rax
	shrq	$3, %rax
	addq	$8, %rax
	movq	%rax, -24(%rbp)
	.loc 2 1846 0
	cmpq	$65535, -24(%rbp)
	ja	.L519
	.loc 2 1846 0 is_stmt 0 discriminator 1
	movq	$65536, -24(%rbp)
.L519:
	.loc 2 1847 0 is_stmt 1
	cmpq	$262144, -24(%rbp)
	jbe	.L518
	.loc 2 1847 0 is_stmt 0 discriminator 1
	movq	$262144, -24(%rbp)
.L518:
	.loc 2 1850 0 is_stmt 1
	movq	32(%rbp), %rdx
	movq	-24(%rbp), %rax
	addq	%rdx, %rax
	subq	$1, %rax
	movl	$0, %edx
	divq	-24(%rbp)
	movq	%rax, -32(%rbp)
	.loc 2 1851 0
	cmpq	$0, -32(%rbp)
	jne	.L520
	.loc 2 1851 0 is_stmt 0 discriminator 1
	movq	$1, -32(%rbp)
.L520:
	.loc 2 1853 0 is_stmt 1
	movq	40(%rbp), %rax
	movl	8(%rax), %edx
	leaq	-112(%rbp), %rax
	movq	%rax, %rcx
	call	_ZL9hash_initP4Hashj
	movl	%eax, -4(%rbp)
	.loc 2 1854 0
	cmpl	$0, -4(%rbp)
	je	.L521
	.loc 2 1854 0 is_stmt 0 discriminator 1
	movl	-4(%rbp), %eax
	jmp	.L527
.L521:
.LBB83:
	.loc 2 1856 0 is_stmt 1
	movq	$0, -16(%rbp)
.L526:
	.loc 2 1856 0 is_stmt 0 discriminator 1
	movq	-16(%rbp), %rax
	cmpq	-32(%rbp), %rax
	je	.L522
	.loc 2 1856 0 discriminator 2
	cmpl	$0, -4(%rbp)
	jne	.L522
.LBB84:
	.loc 2 1857 0 is_stmt 1
	movq	-32(%rbp), %rax
	subq	$1, %rax
	cmpq	%rax, -16(%rbp)
	sete	%al
	movzbl	%al, %eax
	movl	%eax, -44(%rbp)
	.loc 2 1858 0
	movq	-16(%rbp), %rax
	imulq	-24(%rbp), %rax
	movq	%rax, -56(%rbp)
	.loc 2 1859 0
	movq	-56(%rbp), %rdx
	movq	-24(%rbp), %rax
	addq	%rdx, %rax
	movq	%rax, -40(%rbp)
	.loc 2 1860 0
	movq	-40(%rbp), %rax
	cmpq	32(%rbp), %rax
	jbe	.L523
	.loc 2 1860 0 is_stmt 0 discriminator 1
	movq	32(%rbp), %rax
	movq	%rax, -40(%rbp)
.L523:
	.loc 2 1862 0 is_stmt 1
	movq	40(%rbp), %rax
	movl	(%rax), %eax
	cmpl	$1, %eax
	jne	.L524
	.loc 2 1862 0 is_stmt 0 discriminator 1
	movq	24(%rbp), %r8
	leaq	-112(%rbp), %rcx
	leaq	-64(%rbp), %rax
	movl	-44(%rbp), %edx
	movl	%edx, 56(%rsp)
	movq	40(%rbp), %rdx
	movq	%rdx, 48(%rsp)
	movq	-40(%rbp), %rdx
	movq	%rdx, 40(%rsp)
	movq	-56(%rbp), %rdx
	movq	%rdx, 32(%rsp)
	movq	%r8, %r9
	movq	%rcx, %r8
	movq	%rax, %rdx
	movq	16(%rbp), %rcx
	call	_ZL12deflateFixedP8ucvectorPyP4HashPKhyyPK23LodePNGCompressSettingsj
	movl	%eax, -4(%rbp)
	jmp	.L525
.L524:
	.loc 2 1863 0 is_stmt 1
	movq	40(%rbp), %rax
	movl	(%rax), %eax
	cmpl	$2, %eax
	jne	.L525
	.loc 2 1863 0 is_stmt 0 discriminator 1
	movq	24(%rbp), %r8
	leaq	-112(%rbp), %rcx
	leaq	-64(%rbp), %rax
	movl	-44(%rbp), %edx
	movl	%edx, 56(%rsp)
	movq	40(%rbp), %rdx
	movq	%rdx, 48(%rsp)
	movq	-40(%rbp), %rdx
	movq	%rdx, 40(%rsp)
	movq	-56(%rbp), %rdx
	movq	%rdx, 32(%rsp)
	movq	%r8, %r9
	movq	%rcx, %r8
	movq	%rax, %rdx
	movq	16(%rbp), %rcx
	call	_ZL14deflateDynamicP8ucvectorPyP4HashPKhyyPK23LodePNGCompressSettingsj
	movl	%eax, -4(%rbp)
.L525:
.LBE84:
	.loc 2 1856 0 is_stmt 1 discriminator 3
	addq	$1, -16(%rbp)
	jmp	.L526
.L522:
.LBE83:
	.loc 2 1866 0
	leaq	-112(%rbp), %rax
	movq	%rax, %rcx
	call	_ZL12hash_cleanupP4Hash
	.loc 2 1868 0
	movl	-4(%rbp), %eax
.L527:
	.loc 2 1869 0 discriminator 1
	addq	$176, %rsp
	popq	%rbp
	.cfi_restore 6
	.cfi_def_cfa 7, 8
	ret
	.cfi_endproc
.LFE1410:
	.seh_endproc
	.globl	_Z15lodepng_deflatePPhPyPKhyPK23LodePNGCompressSettings
	.def	_Z15lodepng_deflatePPhPyPKhyPK23LodePNGCompressSettings;	.scl	2;	.type	32;	.endef
	.seh_proc	_Z15lodepng_deflatePPhPyPKhyPK23LodePNGCompressSettings
_Z15lodepng_deflatePPhPyPKhyPK23LodePNGCompressSettings:
.LFB1411:
	.loc 2 1873 0
	.cfi_startproc
	pushq	%rbp
	.seh_pushreg	%rbp
	.cfi_def_cfa_offset 16
	.cfi_offset 6, -16
	movq	%rsp, %rbp
	.seh_setframe	%rbp, 0
	.cfi_def_cfa_register 6
	subq	$64, %rsp
	.seh_stackalloc	64
	.seh_endprologue
	movq	%rcx, 16(%rbp)
	movq	%rdx, 24(%rbp)
	movq	%r8, 32(%rbp)
	movq	%r9, 40(%rbp)
	.loc 2 1876 0
	movq	24(%rbp), %rax
	movq	(%rax), %rcx
	movq	16(%rbp), %rax
	movq	(%rax), %rdx
	leaq	-32(%rbp), %rax
	movq	%rcx, %r8
	movq	%rax, %rcx
	call	_ZL20ucvector_init_bufferP8ucvectorPhy
	.loc 2 1877 0
	movq	48(%rbp), %r8
	movq	40(%rbp), %rcx
	movq	32(%rbp), %rdx
	leaq	-32(%rbp), %rax
	movq	%r8, %r9
	movq	%rcx, %r8
	movq	%rax, %rcx
	call	_ZL16lodepng_deflatevP8ucvectorPKhyPK23LodePNGCompressSettings
	movl	%eax, -4(%rbp)
	.loc 2 1878 0
	movq	-32(%rbp), %rdx
	movq	16(%rbp), %rax
	movq	%rdx, (%rax)
	.loc 2 1879 0
	movq	-24(%rbp), %rdx
	movq	24(%rbp), %rax
	movq	%rdx, (%rax)
	.loc 2 1880 0
	movl	-4(%rbp), %eax
	.loc 2 1881 0
	addq	$64, %rsp
	popq	%rbp
	.cfi_restore 6
	.cfi_def_cfa 7, 8
	ret
	.cfi_endproc
.LFE1411:
	.seh_endproc
	.def	_ZL7deflatePPhPyPKhyPK23LodePNGCompressSettings;	.scl	3;	.type	32;	.endef
	.seh_proc	_ZL7deflatePPhPyPKhyPK23LodePNGCompressSettings
_ZL7deflatePPhPyPKhyPK23LodePNGCompressSettings:
.LFB1412:
	.loc 2 1885 0
	.cfi_startproc
	pushq	%rbp
	.seh_pushreg	%rbp
	.cfi_def_cfa_offset 16
	.cfi_offset 6, -16
	movq	%rsp, %rbp
	.seh_setframe	%rbp, 0
	.cfi_def_cfa_register 6
	subq	$48, %rsp
	.seh_stackalloc	48
	.seh_endprologue
	movq	%rcx, 16(%rbp)
	movq	%rdx, 24(%rbp)
	movq	%r8, 32(%rbp)
	movq	%r9, 40(%rbp)
	.loc 2 1886 0
	movq	48(%rbp), %rax
	movq	32(%rax), %rax
	testq	%rax, %rax
	je	.L531
	.loc 2 1887 0
	movq	48(%rbp), %rax
	movq	32(%rax), %rax
	movq	40(%rbp), %r9
	movq	32(%rbp), %r8
	movq	24(%rbp), %rdx
	movq	48(%rbp), %rcx
	movq	%rcx, 32(%rsp)
	movq	16(%rbp), %rcx
	call	*%rax
.LVL1:
	jmp	.L532
.L531:
	.loc 2 1890 0
	movq	40(%rbp), %r8
	movq	32(%rbp), %rcx
	movq	24(%rbp), %rax
	movq	48(%rbp), %rdx
	movq	%rdx, 32(%rsp)
	movq	%r8, %r9
	movq	%rcx, %r8
	movq	%rax, %rdx
	movq	16(%rbp), %rcx
	call	_Z15lodepng_deflatePPhPyPKhyPK23LodePNGCompressSettings
.L532:
	.loc 2 1892 0
	addq	$48, %rsp
	popq	%rbp
	.cfi_restore 6
	.cfi_def_cfa 7, 8
	ret
	.cfi_endproc
.LFE1412:
	.seh_endproc
	.def	_ZL14update_adler32jPKhj;	.scl	3;	.type	32;	.endef
	.seh_proc	_ZL14update_adler32jPKhj
_ZL14update_adler32jPKhj:
.LFB1413:
	.loc 2 1900 0
	.cfi_startproc
	pushq	%rbp
	.seh_pushreg	%rbp
	.cfi_def_cfa_offset 16
	.cfi_offset 6, -16
	movq	%rsp, %rbp
	.seh_setframe	%rbp, 0
	.cfi_def_cfa_register 6
	subq	$16, %rsp
	.seh_stackalloc	16
	.seh_endprologue
	movl	%ecx, 16(%rbp)
	movq	%rdx, 24(%rbp)
	movl	%r8d, 32(%rbp)
	.loc 2 1901 0
	movl	16(%rbp), %eax
	movzwl	%ax, %eax
	movl	%eax, -4(%rbp)
	.loc 2 1902 0
	movl	16(%rbp), %eax
	shrl	$16, %eax
	movl	%eax, -8(%rbp)
.L537:
	.loc 2 1904 0
	cmpl	$0, 32(%rbp)
	je	.L534
.LBB85:
	.loc 2 1906 0
	movl	$5552, %eax
	cmpl	$5552, 32(%rbp)
	cmovbe	32(%rbp), %eax
	movl	%eax, -12(%rbp)
	.loc 2 1907 0
	movl	-12(%rbp), %eax
	subl	%eax, 32(%rbp)
.L536:
	.loc 2 1908 0
	cmpl	$0, -12(%rbp)
	je	.L535
	.loc 2 1909 0
	movq	24(%rbp), %rax
	leaq	1(%rax), %rdx
	movq	%rdx, 24(%rbp)
	movzbl	(%rax), %eax
	movzbl	%al, %eax
	addl	%eax, -4(%rbp)
	.loc 2 1910 0
	movl	-4(%rbp), %eax
	addl	%eax, -8(%rbp)
	.loc 2 1911 0
	subl	$1, -12(%rbp)
	.loc 2 1908 0
	jmp	.L536
.L535:
	.loc 2 1913 0
	movl	-4(%rbp), %ecx
	movl	$-2146992015, %edx
	movl	%ecx, %eax
	mull	%edx
	movl	%edx, %eax
	shrl	$15, %eax
	imull	$65521, %eax, %eax
	subl	%eax, %ecx
	movl	%ecx, %eax
	movl	%eax, -4(%rbp)
	.loc 2 1914 0
	movl	-8(%rbp), %ecx
	movl	$-2146992015, %edx
	movl	%ecx, %eax
	mull	%edx
	movl	%edx, %eax
	shrl	$15, %eax
	imull	$65521, %eax, %eax
	subl	%eax, %ecx
	movl	%ecx, %eax
	movl	%eax, -8(%rbp)
.LBE85:
	.loc 2 1904 0
	jmp	.L537
.L534:
	.loc 2 1917 0
	movl	-8(%rbp), %eax
	sall	$16, %eax
	orl	-4(%rbp), %eax
	.loc 2 1918 0
	addq	$16, %rsp
	popq	%rbp
	.cfi_restore 6
	.cfi_def_cfa 7, 8
	ret
	.cfi_endproc
.LFE1413:
	.seh_endproc
	.def	_ZL7adler32PKhj;	.scl	3;	.type	32;	.endef
	.seh_proc	_ZL7adler32PKhj
_ZL7adler32PKhj:
.LFB1414:
	.loc 2 1921 0
	.cfi_startproc
	pushq	%rbp
	.seh_pushreg	%rbp
	.cfi_def_cfa_offset 16
	.cfi_offset 6, -16
	movq	%rsp, %rbp
	.seh_setframe	%rbp, 0
	.cfi_def_cfa_register 6
	subq	$32, %rsp
	.seh_stackalloc	32
	.seh_endprologue
	movq	%rcx, 16(%rbp)
	movl	%edx, 24(%rbp)
	.loc 2 1922 0
	movl	24(%rbp), %eax
	movl	%eax, %r8d
	movq	16(%rbp), %rdx
	movl	$1, %ecx
	call	_ZL14update_adler32jPKhj
	.loc 2 1923 0
	addq	$32, %rsp
	popq	%rbp
	.cfi_restore 6
	.cfi_def_cfa 7, 8
	ret
	.cfi_endproc
.LFE1414:
	.seh_endproc
	.globl	_Z23lodepng_zlib_decompressPPhPyPKhyPK25LodePNGDecompressSettings
	.def	_Z23lodepng_zlib_decompressPPhPyPKhyPK25LodePNGDecompressSettings;	.scl	2;	.type	32;	.endef
	.seh_proc	_Z23lodepng_zlib_decompressPPhPyPKhyPK25LodePNGDecompressSettings
_Z23lodepng_zlib_decompressPPhPyPKhyPK25LodePNGDecompressSettings:
.LFB1415:
	.loc 2 1932 0
	.cfi_startproc
	pushq	%rbp
	.seh_pushreg	%rbp
	.cfi_def_cfa_offset 16
	.cfi_offset 6, -16
	movq	%rsp, %rbp
	.seh_setframe	%rbp, 0
	.cfi_def_cfa_register 6
	subq	$80, %rsp
	.seh_stackalloc	80
	.seh_endprologue
	movq	%rcx, 16(%rbp)
	movq	%rdx, 24(%rbp)
	movq	%r8, 32(%rbp)
	movq	%r9, 40(%rbp)
	.loc 2 1933 0
	movl	$0, -4(%rbp)
	.loc 2 1936 0
	cmpq	$1, 40(%rbp)
	ja	.L542
	.loc 2 1936 0 is_stmt 0 discriminator 1
	movl	$53, %eax
	jmp	.L543
.L542:
	.loc 2 1938 0 is_stmt 1
	movq	32(%rbp), %rax
	movzbl	(%rax), %eax
	movzbl	%al, %eax
	sall	$8, %eax
	movl	%eax, %edx
	movq	32(%rbp), %rax
	addq	$1, %rax
	movzbl	(%rax), %eax
	movzbl	%al, %eax
	leal	(%rdx,%rax), %ecx
	movl	$-2078209981, %edx
	movl	%ecx, %eax
	imull	%edx
	leal	(%rdx,%rcx), %eax
	sarl	$4, %eax
	movl	%eax, %edx
	movl	%ecx, %eax
	sarl	$31, %eax
	subl	%eax, %edx
	movl	%edx, %eax
	movl	%eax, %edx
	sall	$5, %edx
	subl	%eax, %edx
	movl	%ecx, %eax
	subl	%edx, %eax
	testl	%eax, %eax
	je	.L544
	.loc 2 1940 0
	movl	$24, %eax
	jmp	.L543
.L544:
	.loc 2 1943 0
	movq	32(%rbp), %rax
	movzbl	(%rax), %eax
	movzbl	%al, %eax
	andl	$15, %eax
	movl	%eax, -8(%rbp)
	.loc 2 1944 0
	movq	32(%rbp), %rax
	movzbl	(%rax), %eax
	shrb	$4, %al
	movzbl	%al, %eax
	movl	%eax, -12(%rbp)
	.loc 2 1946 0
	movq	32(%rbp), %rax
	addq	$1, %rax
	movzbl	(%rax), %eax
	movzbl	%al, %eax
	sarl	$5, %eax
	andl	$1, %eax
	movl	%eax, -16(%rbp)
	.loc 2 1949 0
	cmpl	$8, -8(%rbp)
	jne	.L545
	.loc 2 1949 0 is_stmt 0 discriminator 1
	cmpl	$7, -12(%rbp)
	jbe	.L546
.L545:
	.loc 2 1951 0 is_stmt 1
	movl	$25, %eax
	jmp	.L543
.L546:
	.loc 2 1953 0
	cmpl	$0, -16(%rbp)
	je	.L547
	.loc 2 1956 0
	movl	$26, %eax
	jmp	.L543
.L547:
	.loc 2 1959 0
	movq	40(%rbp), %rax
	leaq	-2(%rax), %r8
	movq	32(%rbp), %rax
	leaq	2(%rax), %rcx
	movq	24(%rbp), %rax
	movq	48(%rbp), %rdx
	movq	%rdx, 32(%rsp)
	movq	%r8, %r9
	movq	%rcx, %r8
	movq	%rax, %rdx
	movq	16(%rbp), %rcx
	call	_ZL7inflatePPhPyPKhyPK25LodePNGDecompressSettings
	movl	%eax, -4(%rbp)
	.loc 2 1960 0
	cmpl	$0, -4(%rbp)
	je	.L548
	.loc 2 1960 0 is_stmt 0 discriminator 1
	movl	-4(%rbp), %eax
	jmp	.L543
.L548:
.LBB86:
	.loc 2 1962 0 is_stmt 1
	movq	48(%rbp), %rax
	movl	(%rax), %eax
	testl	%eax, %eax
	jne	.L549
.LBB87:
	.loc 2 1963 0
	movq	40(%rbp), %rax
	leaq	-4(%rax), %rdx
	movq	32(%rbp), %rax
	addq	%rdx, %rax
	movq	%rax, %rcx
	call	_Z20lodepng_read32bitIntPKh
	movl	%eax, -20(%rbp)
	.loc 2 1964 0
	movq	24(%rbp), %rax
	movq	(%rax), %rax
	movl	%eax, %edx
	movq	16(%rbp), %rax
	movq	(%rax), %rax
	movq	%rax, %rcx
	call	_ZL7adler32PKhj
	movl	%eax, -24(%rbp)
	.loc 2 1965 0
	movl	-24(%rbp), %eax
	cmpl	-20(%rbp), %eax
	je	.L549
	.loc 2 1965 0 is_stmt 0 discriminator 1
	movl	$58, %eax
	jmp	.L543
.L549:
.LBE87:
.LBE86:
	.loc 2 1968 0 is_stmt 1
	movl	$0, %eax
.L543:
	.loc 2 1969 0
	addq	$80, %rsp
	popq	%rbp
	.cfi_restore 6
	.cfi_def_cfa 7, 8
	ret
	.cfi_endproc
.LFE1415:
	.seh_endproc
	.def	_ZL15zlib_decompressPPhPyPKhyPK25LodePNGDecompressSettings;	.scl	3;	.type	32;	.endef
	.seh_proc	_ZL15zlib_decompressPPhPyPKhyPK25LodePNGDecompressSettings
_ZL15zlib_decompressPPhPyPKhyPK25LodePNGDecompressSettings:
.LFB1416:
	.loc 2 1972 0
	.cfi_startproc
	pushq	%rbp
	.seh_pushreg	%rbp
	.cfi_def_cfa_offset 16
	.cfi_offset 6, -16
	movq	%rsp, %rbp
	.seh_setframe	%rbp, 0
	.cfi_def_cfa_register 6
	subq	$48, %rsp
	.seh_stackalloc	48
	.seh_endprologue
	movq	%rcx, 16(%rbp)
	movq	%rdx, 24(%rbp)
	movq	%r8, 32(%rbp)
	movq	%r9, 40(%rbp)
	.loc 2 1973 0
	movq	48(%rbp), %rax
	movq	8(%rax), %rax
	testq	%rax, %rax
	je	.L552
	.loc 2 1974 0
	movq	48(%rbp), %rax
	movq	8(%rax), %rax
	movq	40(%rbp), %r9
	movq	32(%rbp), %r8
	movq	24(%rbp), %rdx
	movq	48(%rbp), %rcx
	movq	%rcx, 32(%rsp)
	movq	16(%rbp), %rcx
	call	*%rax
.LVL2:
	jmp	.L553
.L552:
	.loc 2 1977 0
	movq	40(%rbp), %r8
	movq	32(%rbp), %rcx
	movq	24(%rbp), %rax
	movq	48(%rbp), %rdx
	movq	%rdx, 32(%rsp)
	movq	%r8, %r9
	movq	%rcx, %r8
	movq	%rax, %rdx
	movq	16(%rbp), %rcx
	call	_Z23lodepng_zlib_decompressPPhPyPKhyPK25LodePNGDecompressSettings
.L553:
	.loc 2 1979 0
	addq	$48, %rsp
	popq	%rbp
	.cfi_restore 6
	.cfi_def_cfa 7, 8
	ret
	.cfi_endproc
.LFE1416:
	.seh_endproc
	.globl	_Z21lodepng_zlib_compressPPhPyPKhyPK23LodePNGCompressSettings
	.def	_Z21lodepng_zlib_compressPPhPyPKhyPK23LodePNGCompressSettings;	.scl	2;	.type	32;	.endef
	.seh_proc	_Z21lodepng_zlib_compressPPhPyPKhyPK23LodePNGCompressSettings
_Z21lodepng_zlib_compressPPhPyPKhyPK23LodePNGCompressSettings:
.LFB1417:
	.loc 2 1986 0
	.cfi_startproc
	pushq	%rbp
	.seh_pushreg	%rbp
	.cfi_def_cfa_offset 16
	.cfi_offset 6, -16
	movq	%rsp, %rbp
	.seh_setframe	%rbp, 0
	.cfi_def_cfa_register 6
	addq	$-128, %rsp
	.seh_stackalloc	128
	.seh_endprologue
	movq	%rcx, 16(%rbp)
	movq	%rdx, 24(%rbp)
	movq	%r8, 32(%rbp)
	movq	%r9, 40(%rbp)
	.loc 2 1992 0
	movq	$0, -72(%rbp)
	.loc 2 1993 0
	movq	$0, -80(%rbp)
	.loc 2 1996 0
	movl	$120, -12(%rbp)
	.loc 2 1997 0
	movl	$0, -16(%rbp)
	.loc 2 1998 0
	movl	$0, -20(%rbp)
	.loc 2 1999 0
	movl	-12(%rbp), %eax
	leal	0(,%rax,4), %edx
	movl	-16(%rbp), %eax
	addl	%edx, %eax
	leal	(%rax,%rax), %edx
	movl	-20(%rbp), %eax
	addl	%edx, %eax
	sall	$5, %eax
	movl	%eax, -24(%rbp)
	.loc 2 2000 0
	movl	-24(%rbp), %ecx
	movl	$138547333, %edx
	movl	%ecx, %eax
	mull	%edx
	movl	%ecx, %eax
	subl	%edx, %eax
	shrl	%eax
	addl	%edx, %eax
	shrl	$4, %eax
	movl	%eax, %edx
	sall	$5, %edx
	subl	%eax, %edx
	movl	%ecx, %eax
	subl	%edx, %eax
	movl	$31, %edx
	subl	%eax, %edx
	movl	%edx, %eax
	movl	%eax, -28(%rbp)
	.loc 2 2001 0
	movl	-28(%rbp), %eax
	addl	%eax, -24(%rbp)
	.loc 2 2004 0
	movq	24(%rbp), %rax
	movq	(%rax), %rcx
	movq	16(%rbp), %rax
	movq	(%rax), %rdx
	leaq	-64(%rbp), %rax
	movq	%rcx, %r8
	movq	%rax, %rcx
	call	_ZL20ucvector_init_bufferP8ucvectorPhy
	.loc 2 2006 0
	movl	-24(%rbp), %eax
	shrl	$8, %eax
	movzbl	%al, %edx
	leaq	-64(%rbp), %rax
	movq	%rax, %rcx
	call	_ZL18ucvector_push_backP8ucvectorh
	.loc 2 2007 0
	movl	-24(%rbp), %eax
	movzbl	%al, %edx
	leaq	-64(%rbp), %rax
	movq	%rax, %rcx
	call	_ZL18ucvector_push_backP8ucvectorh
	.loc 2 2009 0
	movq	40(%rbp), %r9
	movq	32(%rbp), %r8
	leaq	-80(%rbp), %rdx
	leaq	-72(%rbp), %rax
	movq	48(%rbp), %rcx
	movq	%rcx, 32(%rsp)
	movq	%rax, %rcx
	call	_ZL7deflatePPhPyPKhyPK23LodePNGCompressSettings
	movl	%eax, -32(%rbp)
.LBB88:
	.loc 2 2011 0
	cmpl	$0, -32(%rbp)
	jne	.L555
.LBB89:
	.loc 2 2012 0
	movq	40(%rbp), %rax
	movl	%eax, %edx
	movq	32(%rbp), %rax
	movq	%rax, %rcx
	call	_ZL7adler32PKhj
	movl	%eax, -36(%rbp)
	.loc 2 2013 0
	movq	$0, -8(%rbp)
.L557:
	.loc 2 2013 0 is_stmt 0 discriminator 3
	movq	-80(%rbp), %rax
	cmpq	%rax, -8(%rbp)
	je	.L556
	.loc 2 2013 0 discriminator 2
	movq	-72(%rbp), %rdx
	movq	-8(%rbp), %rax
	addq	%rdx, %rax
	movzbl	(%rax), %eax
	movzbl	%al, %edx
	leaq	-64(%rbp), %rax
	movq	%rax, %rcx
	call	_ZL18ucvector_push_backP8ucvectorh
	addq	$1, -8(%rbp)
	jmp	.L557
.L556:
	.loc 2 2014 0 is_stmt 1
	movq	-72(%rbp), %rax
	movq	%rax, %rcx
	call	_ZL12lodepng_freePv
	.loc 2 2015 0
	movl	-36(%rbp), %edx
	leaq	-64(%rbp), %rax
	movq	%rax, %rcx
	call	_ZL19lodepng_add32bitIntP8ucvectorj
.L555:
.LBE89:
.LBE88:
	.loc 2 2018 0
	movq	-64(%rbp), %rdx
	movq	16(%rbp), %rax
	movq	%rdx, (%rax)
	.loc 2 2019 0
	movq	-56(%rbp), %rdx
	movq	24(%rbp), %rax
	movq	%rdx, (%rax)
	.loc 2 2021 0
	movl	-32(%rbp), %eax
	.loc 2 2022 0
	subq	$-128, %rsp
	popq	%rbp
	.cfi_restore 6
	.cfi_def_cfa 7, 8
	ret
	.cfi_endproc
.LFE1417:
	.seh_endproc
	.def	_ZL13zlib_compressPPhPyPKhyPK23LodePNGCompressSettings;	.scl	3;	.type	32;	.endef
	.seh_proc	_ZL13zlib_compressPPhPyPKhyPK23LodePNGCompressSettings
_ZL13zlib_compressPPhPyPKhyPK23LodePNGCompressSettings:
.LFB1418:
	.loc 2 2026 0
	.cfi_startproc
	pushq	%rbp
	.seh_pushreg	%rbp
	.cfi_def_cfa_offset 16
	.cfi_offset 6, -16
	movq	%rsp, %rbp
	.seh_setframe	%rbp, 0
	.cfi_def_cfa_register 6
	subq	$48, %rsp
	.seh_stackalloc	48
	.seh_endprologue
	movq	%rcx, 16(%rbp)
	movq	%rdx, 24(%rbp)
	movq	%r8, 32(%rbp)
	movq	%r9, 40(%rbp)
	.loc 2 2027 0
	movq	48(%rbp), %rax
	movq	24(%rax), %rax
	testq	%rax, %rax
	je	.L560
	.loc 2 2028 0
	movq	48(%rbp), %rax
	movq	24(%rax), %rax
	movq	40(%rbp), %r9
	movq	32(%rbp), %r8
	movq	24(%rbp), %rdx
	movq	48(%rbp), %rcx
	movq	%rcx, 32(%rsp)
	movq	16(%rbp), %rcx
	call	*%rax
.LVL3:
	jmp	.L561
.L560:
	.loc 2 2031 0
	movq	40(%rbp), %r8
	movq	32(%rbp), %rcx
	movq	24(%rbp), %rax
	movq	48(%rbp), %rdx
	movq	%rdx, 32(%rsp)
	movq	%r8, %r9
	movq	%rcx, %r8
	movq	%rax, %rdx
	movq	16(%rbp), %rcx
	call	_Z21lodepng_zlib_compressPPhPyPKhyPK23LodePNGCompressSettings
.L561:
	.loc 2 2033 0
	addq	$48, %rsp
	popq	%rbp
	.cfi_restore 6
	.cfi_def_cfa 7, 8
	ret
	.cfi_endproc
.LFE1418:
	.seh_endproc
	.globl	_Z30lodepng_compress_settings_initP23LodePNGCompressSettings
	.def	_Z30lodepng_compress_settings_initP23LodePNGCompressSettings;	.scl	2;	.type	32;	.endef
	.seh_proc	_Z30lodepng_compress_settings_initP23LodePNGCompressSettings
_Z30lodepng_compress_settings_initP23LodePNGCompressSettings:
.LFB1419:
	.loc 2 2063 0
	.cfi_startproc
	pushq	%rbp
	.seh_pushreg	%rbp
	.cfi_def_cfa_offset 16
	.cfi_offset 6, -16
	movq	%rsp, %rbp
	.seh_setframe	%rbp, 0
	.cfi_def_cfa_register 6
	.seh_endprologue
	movq	%rcx, 16(%rbp)
	.loc 2 2065 0
	movq	16(%rbp), %rax
	movl	$2, (%rax)
	.loc 2 2066 0
	movq	16(%rbp), %rax
	movl	$1, 4(%rax)
	.loc 2 2067 0
	movq	16(%rbp), %rax
	movl	$2048, 8(%rax)
	.loc 2 2068 0
	movq	16(%rbp), %rax
	movl	$3, 12(%rax)
	.loc 2 2069 0
	movq	16(%rbp), %rax
	movl	$128, 16(%rax)
	.loc 2 2070 0
	movq	16(%rbp), %rax
	movl	$1, 20(%rax)
	.loc 2 2072 0
	movq	16(%rbp), %rax
	movq	$0, 24(%rax)
	.loc 2 2073 0
	movq	16(%rbp), %rax
	movq	$0, 32(%rax)
	.loc 2 2074 0
	movq	16(%rbp), %rax
	movq	$0, 40(%rax)
	.loc 2 2075 0
	nop
	popq	%rbp
	.cfi_restore 6
	.cfi_def_cfa 7, 8
	ret
	.cfi_endproc
.LFE1419:
	.seh_endproc
	.globl	lodepng_default_compress_settings
	.section .rdata,"dr"
	.align 32
lodepng_default_compress_settings:
	.long	2
	.long	1
	.long	2048
	.long	3
	.long	128
	.long	1
	.quad	0
	.quad	0
	.quad	0
	.text
	.globl	_Z32lodepng_decompress_settings_initP25LodePNGDecompressSettings
	.def	_Z32lodepng_decompress_settings_initP25LodePNGDecompressSettings;	.scl	2;	.type	32;	.endef
	.seh_proc	_Z32lodepng_decompress_settings_initP25LodePNGDecompressSettings
_Z32lodepng_decompress_settings_initP25LodePNGDecompressSettings:
.LFB1420:
	.loc 2 2084 0
	.cfi_startproc
	pushq	%rbp
	.seh_pushreg	%rbp
	.cfi_def_cfa_offset 16
	.cfi_offset 6, -16
	movq	%rsp, %rbp
	.seh_setframe	%rbp, 0
	.cfi_def_cfa_register 6
	.seh_endprologue
	movq	%rcx, 16(%rbp)
	.loc 2 2085 0
	movq	16(%rbp), %rax
	movl	$0, (%rax)
	.loc 2 2087 0
	movq	16(%rbp), %rax
	movq	$0, 8(%rax)
	.loc 2 2088 0
	movq	16(%rbp), %rax
	movq	$0, 16(%rax)
	.loc 2 2089 0
	movq	16(%rbp), %rax
	movq	$0, 24(%rax)
	.loc 2 2090 0
	nop
	popq	%rbp
	.cfi_restore 6
	.cfi_def_cfa 7, 8
	ret
	.cfi_endproc
.LFE1420:
	.seh_endproc
	.globl	lodepng_default_decompress_settings
	.section .rdata,"dr"
	.align 32
lodepng_default_decompress_settings:
	.space 32
	.data
	.align 32
_ZL19lodepng_crc32_table:
	.long	0
	.long	1996959894
	.long	-301047508
	.long	-1727442502
	.long	124634137
	.long	1886057615
	.long	-379345611
	.long	-1637575261
	.long	249268274
	.long	2044508324
	.long	-522852066
	.long	-1747789432
	.long	162941995
	.long	2125561021
	.long	-407360249
	.long	-1866523247
	.long	498536548
	.long	1789927666
	.long	-205950648
	.long	-2067906082
	.long	450548861
	.long	1843258603
	.long	-187386543
	.long	-2083289657
	.long	325883990
	.long	1684777152
	.long	-43845254
	.long	-1973040660
	.long	335633487
	.long	1661365465
	.long	-99664541
	.long	-1928851979
	.long	997073096
	.long	1281953886
	.long	-715111964
	.long	-1570279054
	.long	1006888145
	.long	1258607687
	.long	-770865667
	.long	-1526024853
	.long	901097722
	.long	1119000684
	.long	-608450090
	.long	-1396901568
	.long	853044451
	.long	1172266101
	.long	-589951537
	.long	-1412350631
	.long	651767980
	.long	1373503546
	.long	-925412992
	.long	-1076862698
	.long	565507253
	.long	1454621731
	.long	-809855591
	.long	-1195530993
	.long	671266974
	.long	1594198024
	.long	-972236366
	.long	-1324619484
	.long	795835527
	.long	1483230225
	.long	-1050600021
	.long	-1234817731
	.long	1994146192
	.long	31158534
	.long	-1731059524
	.long	-271249366
	.long	1907459465
	.long	112637215
	.long	-1614814043
	.long	-390540237
	.long	2013776290
	.long	251722036
	.long	-1777751922
	.long	-519137256
	.long	2137656763
	.long	141376813
	.long	-1855689577
	.long	-429695999
	.long	1802195444
	.long	476864866
	.long	-2056965928
	.long	-228458418
	.long	1812370925
	.long	453092731
	.long	-2113342271
	.long	-183516073
	.long	1706088902
	.long	314042704
	.long	-1950435094
	.long	-54949764
	.long	1658658271
	.long	366619977
	.long	-1932296973
	.long	-69972891
	.long	1303535960
	.long	984961486
	.long	-1547960204
	.long	-725929758
	.long	1256170817
	.long	1037604311
	.long	-1529756563
	.long	-740887301
	.long	1131014506
	.long	879679996
	.long	-1385723834
	.long	-631195440
	.long	1141124467
	.long	855842277
	.long	-1442165665
	.long	-586318647
	.long	1342533948
	.long	654459306
	.long	-1106571248
	.long	-921952122
	.long	1466479909
	.long	544179635
	.long	-1184443383
	.long	-832445281
	.long	1591671054
	.long	702138776
	.long	-1328506846
	.long	-942167884
	.long	1504918807
	.long	783551873
	.long	-1212326853
	.long	-1061524307
	.long	-306674912
	.long	-1698712650
	.long	62317068
	.long	1957810842
	.long	-355121351
	.long	-1647151185
	.long	81470997
	.long	1943803523
	.long	-480048366
	.long	-1805370492
	.long	225274430
	.long	2053790376
	.long	-468791541
	.long	-1828061283
	.long	167816743
	.long	2097651377
	.long	-267414716
	.long	-2029476910
	.long	503444072
	.long	1762050814
	.long	-144550051
	.long	-2140837941
	.long	426522225
	.long	1852507879
	.long	-19653770
	.long	-1982649376
	.long	282753626
	.long	1742555852
	.long	-105259153
	.long	-1900089351
	.long	397917763
	.long	1622183637
	.long	-690576408
	.long	-1580100738
	.long	953729732
	.long	1340076626
	.long	-776247311
	.long	-1497606297
	.long	1068828381
	.long	1219638859
	.long	-670225446
	.long	-1358292148
	.long	906185462
	.long	1090812512
	.long	-547295293
	.long	-1469587627
	.long	829329135
	.long	1181335161
	.long	-882789492
	.long	-1134132454
	.long	628085408
	.long	1382605366
	.long	-871598187
	.long	-1156888829
	.long	570562233
	.long	1426400815
	.long	-977650754
	.long	-1296233688
	.long	733239954
	.long	1555261956
	.long	-1026031705
	.long	-1244606671
	.long	752459403
	.long	1541320221
	.long	-1687895376
	.long	-328994266
	.long	1969922972
	.long	40735498
	.long	-1677130071
	.long	-351390145
	.long	1913087877
	.long	83908371
	.long	-1782625662
	.long	-491226604
	.long	2075208622
	.long	213261112
	.long	-1831694693
	.long	-438977011
	.long	2094854071
	.long	198958881
	.long	-2032938284
	.long	-237706686
	.long	1759359992
	.long	534414190
	.long	-2118248755
	.long	-155638181
	.long	1873836001
	.long	414664567
	.long	-2012718362
	.long	-15766928
	.long	1711684554
	.long	285281116
	.long	-1889165569
	.long	-127750551
	.long	1634467795
	.long	376229701
	.long	-1609899400
	.long	-686959890
	.long	1308918612
	.long	956543938
	.long	-1486412191
	.long	-799009033
	.long	1231636301
	.long	1047427035
	.long	-1362007478
	.long	-640263460
	.long	1088359270
	.long	936918000
	.long	-1447252397
	.long	-558129467
	.long	1202900863
	.long	817233897
	.long	-1111625188
	.long	-893730166
	.long	1404277552
	.long	615818150
	.long	-1160759803
	.long	-841546093
	.long	1423857449
	.long	601450431
	.long	-1285129682
	.long	-1000256840
	.long	1567103746
	.long	711928724
	.long	-1274298825
	.long	-1022587231
	.long	1510334235
	.long	755167117
	.text
	.globl	_Z13lodepng_crc32PKhy
	.def	_Z13lodepng_crc32PKhy;	.scl	2;	.type	32;	.endef
	.seh_proc	_Z13lodepng_crc32PKhy
_Z13lodepng_crc32PKhy:
.LFB1421:
	.loc 2 2147 0
	.cfi_startproc
	pushq	%rbp
	.seh_pushreg	%rbp
	.cfi_def_cfa_offset 16
	.cfi_offset 6, -16
	movq	%rsp, %rbp
	.seh_setframe	%rbp, 0
	.cfi_def_cfa_register 6
	subq	$16, %rsp
	.seh_stackalloc	16
	.seh_endprologue
	movq	%rcx, 16(%rbp)
	movq	%rdx, 24(%rbp)
	.loc 2 2148 0
	movl	$-1, -4(%rbp)
	.loc 2 2150 0
	movq	$0, -16(%rbp)
.L566:
	.loc 2 2150 0 is_stmt 0 discriminator 3
	movq	-16(%rbp), %rax
	cmpq	24(%rbp), %rax
	jnb	.L565
	.loc 2 2151 0 is_stmt 1 discriminator 2
	movq	16(%rbp), %rdx
	movq	-16(%rbp), %rax
	addq	%rdx, %rax
	movzbl	(%rax), %eax
	movzbl	%al, %eax
	xorl	-4(%rbp), %eax
	movzbl	%al, %eax
	movl	%eax, %eax
	leaq	0(,%rax,4), %rdx
	leaq	_ZL19lodepng_crc32_table(%rip), %rax
	movl	(%rdx,%rax), %eax
	movl	-4(%rbp), %edx
	shrl	$8, %edx
	xorl	%edx, %eax
	movl	%eax, -4(%rbp)
	.loc 2 2150 0 discriminator 2
	addq	$1, -16(%rbp)
	jmp	.L566
.L565:
	.loc 2 2153 0
	movl	-4(%rbp), %eax
	notl	%eax
	.loc 2 2154 0
	addq	$16, %rsp
	popq	%rbp
	.cfi_restore 6
	.cfi_def_cfa 7, 8
	ret
	.cfi_endproc
.LFE1421:
	.seh_endproc
	.def	_ZL25readBitFromReversedStreamPyPKh;	.scl	3;	.type	32;	.endef
	.seh_proc	_ZL25readBitFromReversedStreamPyPKh
_ZL25readBitFromReversedStreamPyPKh:
.LFB1422:
	.loc 2 2163 0
	.cfi_startproc
	pushq	%rbp
	.seh_pushreg	%rbp
	.cfi_def_cfa_offset 16
	.cfi_offset 6, -16
	movq	%rsp, %rbp
	.seh_setframe	%rbp, 0
	.cfi_def_cfa_register 6
	subq	$16, %rsp
	.seh_stackalloc	16
	.seh_endprologue
	movq	%rcx, 16(%rbp)
	movq	%rdx, 24(%rbp)
	.loc 2 2164 0
	movq	16(%rbp), %rax
	movq	(%rax), %rax
	shrq	$3, %rax
	movq	%rax, %rdx
	movq	24(%rbp), %rax
	addq	%rdx, %rax
	movzbl	(%rax), %eax
	movzbl	%al, %edx
	movq	16(%rbp), %rax
	movq	(%rax), %rax
	notl	%eax
	andl	$7, %eax
	movl	%eax, %ecx
	sarl	%cl, %edx
	movl	%edx, %eax
	andl	$1, %eax
	movb	%al, -1(%rbp)
	.loc 2 2165 0
	movq	16(%rbp), %rax
	movq	(%rax), %rax
	leaq	1(%rax), %rdx
	movq	16(%rbp), %rax
	movq	%rdx, (%rax)
	.loc 2 2166 0
	movzbl	-1(%rbp), %eax
	.loc 2 2167 0
	addq	$16, %rsp
	popq	%rbp
	.cfi_restore 6
	.cfi_def_cfa 7, 8
	ret
	.cfi_endproc
.LFE1422:
	.seh_endproc
	.def	_ZL26readBitsFromReversedStreamPyPKhy;	.scl	3;	.type	32;	.endef
	.seh_proc	_ZL26readBitsFromReversedStreamPyPKhy
_ZL26readBitsFromReversedStreamPyPKhy:
.LFB1423:
	.loc 2 2169 0
	.cfi_startproc
	pushq	%rbp
	.seh_pushreg	%rbp
	.cfi_def_cfa_offset 16
	.cfi_offset 6, -16
	movq	%rsp, %rbp
	.seh_setframe	%rbp, 0
	.cfi_def_cfa_register 6
	subq	$48, %rsp
	.seh_stackalloc	48
	.seh_endprologue
	movq	%rcx, 16(%rbp)
	movq	%rdx, 24(%rbp)
	movq	%r8, 32(%rbp)
	.loc 2 2170 0
	movl	$0, -4(%rbp)
	.loc 2 2172 0
	movq	$0, -16(%rbp)
.L572:
	.loc 2 2172 0 is_stmt 0 discriminator 3
	movq	-16(%rbp), %rax
	cmpq	32(%rbp), %rax
	jnb	.L571
	.loc 2 2173 0 is_stmt 1 discriminator 2
	sall	-4(%rbp)
	.loc 2 2174 0 discriminator 2
	movq	24(%rbp), %rax
	movq	%rax, %rdx
	movq	16(%rbp), %rcx
	call	_ZL25readBitFromReversedStreamPyPKh
	movzbl	%al, %eax
	orl	%eax, -4(%rbp)
	.loc 2 2172 0 discriminator 2
	addq	$1, -16(%rbp)
	jmp	.L572
.L571:
	.loc 2 2176 0
	movl	-4(%rbp), %eax
	.loc 2 2177 0
	addq	$48, %rsp
	popq	%rbp
	.cfi_restore 6
	.cfi_def_cfa 7, 8
	ret
	.cfi_endproc
.LFE1423:
	.seh_endproc
	.def	_ZL23setBitOfReversedStream0PyPhh;	.scl	3;	.type	32;	.endef
	.seh_proc	_ZL23setBitOfReversedStream0PyPhh
_ZL23setBitOfReversedStream0PyPhh:
.LFB1424:
	.loc 2 2180 0
	.cfi_startproc
	pushq	%rbp
	.seh_pushreg	%rbp
	.cfi_def_cfa_offset 16
	.cfi_offset 6, -16
	movq	%rsp, %rbp
	.seh_setframe	%rbp, 0
	.cfi_def_cfa_register 6
	.seh_endprologue
	movq	%rcx, 16(%rbp)
	movq	%rdx, 24(%rbp)
	movl	%r8d, %eax
	movb	%al, 32(%rbp)
	.loc 2 2182 0
	cmpb	$0, 32(%rbp)
	je	.L575
	.loc 2 2184 0
	movq	16(%rbp), %rax
	movq	(%rax), %rax
	shrq	$3, %rax
	movq	%rax, %rdx
	movq	24(%rbp), %rax
	addq	%rdx, %rax
	movzbl	(%rax), %eax
	movl	%eax, %r8d
	movzbl	32(%rbp), %edx
	movq	16(%rbp), %rax
	movq	(%rax), %rax
	notl	%eax
	andl	$7, %eax
	movl	%eax, %ecx
	sall	%cl, %edx
	movl	%edx, %eax
	movl	%r8d, %ecx
	orl	%eax, %ecx
	movq	16(%rbp), %rax
	movq	(%rax), %rax
	shrq	$3, %rax
	movq	%rax, %rdx
	movq	24(%rbp), %rax
	addq	%rdx, %rax
	movl	%ecx, %edx
	movb	%dl, (%rax)
.L575:
	.loc 2 2186 0
	movq	16(%rbp), %rax
	movq	(%rax), %rax
	leaq	1(%rax), %rdx
	movq	16(%rbp), %rax
	movq	%rdx, (%rax)
	.loc 2 2187 0
	nop
	popq	%rbp
	.cfi_restore 6
	.cfi_def_cfa 7, 8
	ret
	.cfi_endproc
.LFE1424:
	.seh_endproc
	.def	_ZL22setBitOfReversedStreamPyPhh;	.scl	3;	.type	32;	.endef
	.seh_proc	_ZL22setBitOfReversedStreamPyPhh
_ZL22setBitOfReversedStreamPyPhh:
.LFB1425:
	.loc 2 2190 0
	.cfi_startproc
	pushq	%rbp
	.seh_pushreg	%rbp
	.cfi_def_cfa_offset 16
	.cfi_offset 6, -16
	movq	%rsp, %rbp
	.seh_setframe	%rbp, 0
	.cfi_def_cfa_register 6
	.seh_endprologue
	movq	%rcx, 16(%rbp)
	movq	%rdx, 24(%rbp)
	movl	%r8d, %eax
	movb	%al, 32(%rbp)
	.loc 2 2192 0
	cmpb	$0, 32(%rbp)
	jne	.L577
	.loc 2 2192 0 is_stmt 0 discriminator 1
	movq	16(%rbp), %rax
	movq	(%rax), %rax
	shrq	$3, %rax
	movq	%rax, %rdx
	movq	24(%rbp), %rax
	addq	%rdx, %rax
	movzbl	(%rax), %edx
	movq	16(%rbp), %rax
	movq	(%rax), %rax
	notl	%eax
	andl	$7, %eax
	movl	$1, %r8d
	movl	%eax, %ecx
	sall	%cl, %r8d
	movl	%r8d, %eax
	notl	%eax
	movl	%eax, %ecx
	movq	16(%rbp), %rax
	movq	(%rax), %rax
	shrq	$3, %rax
	movq	%rax, %r8
	movq	24(%rbp), %rax
	addq	%r8, %rax
	andl	%ecx, %edx
	movb	%dl, (%rax)
	jmp	.L578
.L577:
	.loc 2 2193 0 is_stmt 1
	movq	16(%rbp), %rax
	movq	(%rax), %rax
	shrq	$3, %rax
	movq	%rax, %rdx
	movq	24(%rbp), %rax
	addq	%rdx, %rax
	movzbl	(%rax), %eax
	movl	%eax, %r8d
	movq	16(%rbp), %rax
	movq	(%rax), %rax
	notl	%eax
	andl	$7, %eax
	movl	$1, %edx
	movl	%eax, %ecx
	sall	%cl, %edx
	movl	%edx, %eax
	movl	%r8d, %ecx
	orl	%eax, %ecx
	movq	16(%rbp), %rax
	movq	(%rax), %rax
	shrq	$3, %rax
	movq	%rax, %rdx
	movq	24(%rbp), %rax
	addq	%rdx, %rax
	movl	%ecx, %edx
	movb	%dl, (%rax)
.L578:
	.loc 2 2194 0
	movq	16(%rbp), %rax
	movq	(%rax), %rax
	leaq	1(%rax), %rdx
	movq	16(%rbp), %rax
	movq	%rdx, (%rax)
	.loc 2 2195 0
	nop
	popq	%rbp
	.cfi_restore 6
	.cfi_def_cfa 7, 8
	ret
	.cfi_endproc
.LFE1425:
	.seh_endproc
	.globl	_Z20lodepng_chunk_lengthPKh
	.def	_Z20lodepng_chunk_lengthPKh;	.scl	2;	.type	32;	.endef
	.seh_proc	_Z20lodepng_chunk_lengthPKh
_Z20lodepng_chunk_lengthPKh:
.LFB1426:
	.loc 2 2201 0
	.cfi_startproc
	pushq	%rbp
	.seh_pushreg	%rbp
	.cfi_def_cfa_offset 16
	.cfi_offset 6, -16
	movq	%rsp, %rbp
	.seh_setframe	%rbp, 0
	.cfi_def_cfa_register 6
	subq	$32, %rsp
	.seh_stackalloc	32
	.seh_endprologue
	movq	%rcx, 16(%rbp)
	.loc 2 2202 0
	movq	16(%rbp), %rcx
	call	_Z20lodepng_read32bitIntPKh
	.loc 2 2203 0
	addq	$32, %rsp
	popq	%rbp
	.cfi_restore 6
	.cfi_def_cfa 7, 8
	ret
	.cfi_endproc
.LFE1426:
	.seh_endproc
	.globl	_Z18lodepng_chunk_typePcPKh
	.def	_Z18lodepng_chunk_typePcPKh;	.scl	2;	.type	32;	.endef
	.seh_proc	_Z18lodepng_chunk_typePcPKh
_Z18lodepng_chunk_typePcPKh:
.LFB1427:
	.loc 2 2205 0
	.cfi_startproc
	pushq	%rbp
	.seh_pushreg	%rbp
	.cfi_def_cfa_offset 16
	.cfi_offset 6, -16
	movq	%rsp, %rbp
	.seh_setframe	%rbp, 0
	.cfi_def_cfa_register 6
	subq	$16, %rsp
	.seh_stackalloc	16
	.seh_endprologue
	movq	%rcx, 16(%rbp)
	movq	%rdx, 24(%rbp)
	.loc 2 2207 0
	movl	$0, -4(%rbp)
.L583:
	.loc 2 2207 0 is_stmt 0 discriminator 3
	cmpl	$4, -4(%rbp)
	je	.L582
	.loc 2 2207 0 discriminator 2
	movl	-4(%rbp), %eax
	addl	$4, %eax
	movl	%eax, %edx
	movq	24(%rbp), %rax
	addq	%rdx, %rax
	movzbl	(%rax), %edx
	movl	-4(%rbp), %ecx
	movq	16(%rbp), %rax
	addq	%rcx, %rax
	movb	%dl, (%rax)
	addl	$1, -4(%rbp)
	jmp	.L583
.L582:
	.loc 2 2208 0 is_stmt 1
	movq	16(%rbp), %rax
	addq	$4, %rax
	movb	$0, (%rax)
	.loc 2 2209 0
	nop
	addq	$16, %rsp
	popq	%rbp
	.cfi_restore 6
	.cfi_def_cfa 7, 8
	ret
	.cfi_endproc
.LFE1427:
	.seh_endproc
	.globl	_Z25lodepng_chunk_type_equalsPKhPKc
	.def	_Z25lodepng_chunk_type_equalsPKhPKc;	.scl	2;	.type	32;	.endef
	.seh_proc	_Z25lodepng_chunk_type_equalsPKhPKc
_Z25lodepng_chunk_type_equalsPKhPKc:
.LFB1428:
	.loc 2 2211 0
	.cfi_startproc
	pushq	%rbp
	.seh_pushreg	%rbp
	.cfi_def_cfa_offset 16
	.cfi_offset 6, -16
	movq	%rsp, %rbp
	.seh_setframe	%rbp, 0
	.cfi_def_cfa_register 6
	subq	$32, %rsp
	.seh_stackalloc	32
	.seh_endprologue
	movq	%rcx, 16(%rbp)
	movq	%rdx, 24(%rbp)
	.loc 2 2212 0
	movq	24(%rbp), %rax
	movq	%rax, %rcx
	call	strlen
	cmpq	$4, %rax
	je	.L585
	.loc 2 2212 0 is_stmt 0 discriminator 1
	movl	$0, %eax
	jmp	.L586
.L585:
	.loc 2 2213 0 is_stmt 1
	movq	16(%rbp), %rax
	addq	$4, %rax
	movzbl	(%rax), %eax
	movzbl	%al, %edx
	movq	24(%rbp), %rax
	movzbl	(%rax), %eax
	movsbl	%al, %eax
	cmpl	%eax, %edx
	jne	.L587
	.loc 2 2213 0 is_stmt 0 discriminator 1
	movq	16(%rbp), %rax
	addq	$5, %rax
	movzbl	(%rax), %eax
	movzbl	%al, %edx
	movq	24(%rbp), %rax
	addq	$1, %rax
	movzbl	(%rax), %eax
	movsbl	%al, %eax
	cmpl	%eax, %edx
	jne	.L587
	.loc 2 2213 0 discriminator 3
	movq	16(%rbp), %rax
	addq	$6, %rax
	movzbl	(%rax), %eax
	movzbl	%al, %edx
	movq	24(%rbp), %rax
	addq	$2, %rax
	movzbl	(%rax), %eax
	movsbl	%al, %eax
	cmpl	%eax, %edx
	jne	.L587
	.loc 2 2213 0 discriminator 5
	movq	16(%rbp), %rax
	addq	$7, %rax
	movzbl	(%rax), %eax
	movzbl	%al, %edx
	movq	24(%rbp), %rax
	addq	$3, %rax
	movzbl	(%rax), %eax
	movsbl	%al, %eax
	cmpl	%eax, %edx
	jne	.L587
	.loc 2 2213 0 discriminator 7
	movl	$1, %eax
	jmp	.L588
.L587:
	.loc 2 2213 0 discriminator 8
	movl	$0, %eax
.L588:
.L586:
	.loc 2 2214 0 is_stmt 1
	addq	$32, %rsp
	popq	%rbp
	.cfi_restore 6
	.cfi_def_cfa 7, 8
	ret
	.cfi_endproc
.LFE1428:
	.seh_endproc
	.globl	_Z23lodepng_chunk_ancillaryPKh
	.def	_Z23lodepng_chunk_ancillaryPKh;	.scl	2;	.type	32;	.endef
	.seh_proc	_Z23lodepng_chunk_ancillaryPKh
_Z23lodepng_chunk_ancillaryPKh:
.LFB1429:
	.loc 2 2216 0
	.cfi_startproc
	pushq	%rbp
	.seh_pushreg	%rbp
	.cfi_def_cfa_offset 16
	.cfi_offset 6, -16
	movq	%rsp, %rbp
	.seh_setframe	%rbp, 0
	.cfi_def_cfa_register 6
	.seh_endprologue
	movq	%rcx, 16(%rbp)
	.loc 2 2217 0
	movq	16(%rbp), %rax
	addq	$4, %rax
	movzbl	(%rax), %eax
	movzbl	%al, %eax
	andl	$32, %eax
	testl	%eax, %eax
	setne	%al
	.loc 2 2218 0
	popq	%rbp
	.cfi_restore 6
	.cfi_def_cfa 7, 8
	ret
	.cfi_endproc
.LFE1429:
	.seh_endproc
	.globl	_Z21lodepng_chunk_privatePKh
	.def	_Z21lodepng_chunk_privatePKh;	.scl	2;	.type	32;	.endef
	.seh_proc	_Z21lodepng_chunk_privatePKh
_Z21lodepng_chunk_privatePKh:
.LFB1430:
	.loc 2 2220 0
	.cfi_startproc
	pushq	%rbp
	.seh_pushreg	%rbp
	.cfi_def_cfa_offset 16
	.cfi_offset 6, -16
	movq	%rsp, %rbp
	.seh_setframe	%rbp, 0
	.cfi_def_cfa_register 6
	.seh_endprologue
	movq	%rcx, 16(%rbp)
	.loc 2 2221 0
	movq	16(%rbp), %rax
	addq	$6, %rax
	movzbl	(%rax), %eax
	movzbl	%al, %eax
	andl	$32, %eax
	testl	%eax, %eax
	setne	%al
	.loc 2 2222 0
	popq	%rbp
	.cfi_restore 6
	.cfi_def_cfa 7, 8
	ret
	.cfi_endproc
.LFE1430:
	.seh_endproc
	.globl	_Z24lodepng_chunk_safetocopyPKh
	.def	_Z24lodepng_chunk_safetocopyPKh;	.scl	2;	.type	32;	.endef
	.seh_proc	_Z24lodepng_chunk_safetocopyPKh
_Z24lodepng_chunk_safetocopyPKh:
.LFB1431:
	.loc 2 2224 0
	.cfi_startproc
	pushq	%rbp
	.seh_pushreg	%rbp
	.cfi_def_cfa_offset 16
	.cfi_offset 6, -16
	movq	%rsp, %rbp
	.seh_setframe	%rbp, 0
	.cfi_def_cfa_register 6
	.seh_endprologue
	movq	%rcx, 16(%rbp)
	.loc 2 2225 0
	movq	16(%rbp), %rax
	addq	$7, %rax
	movzbl	(%rax), %eax
	movzbl	%al, %eax
	andl	$32, %eax
	testl	%eax, %eax
	setne	%al
	.loc 2 2226 0
	popq	%rbp
	.cfi_restore 6
	.cfi_def_cfa 7, 8
	ret
	.cfi_endproc
.LFE1431:
	.seh_endproc
	.globl	_Z18lodepng_chunk_dataPh
	.def	_Z18lodepng_chunk_dataPh;	.scl	2;	.type	32;	.endef
	.seh_proc	_Z18lodepng_chunk_dataPh
_Z18lodepng_chunk_dataPh:
.LFB1432:
	.loc 2 2228 0
	.cfi_startproc
	pushq	%rbp
	.seh_pushreg	%rbp
	.cfi_def_cfa_offset 16
	.cfi_offset 6, -16
	movq	%rsp, %rbp
	.seh_setframe	%rbp, 0
	.cfi_def_cfa_register 6
	.seh_endprologue
	movq	%rcx, 16(%rbp)
	.loc 2 2229 0
	movq	16(%rbp), %rax
	addq	$8, %rax
	.loc 2 2230 0
	popq	%rbp
	.cfi_restore 6
	.cfi_def_cfa 7, 8
	ret
	.cfi_endproc
.LFE1432:
	.seh_endproc
	.globl	_Z24lodepng_chunk_data_constPKh
	.def	_Z24lodepng_chunk_data_constPKh;	.scl	2;	.type	32;	.endef
	.seh_proc	_Z24lodepng_chunk_data_constPKh
_Z24lodepng_chunk_data_constPKh:
.LFB1433:
	.loc 2 2232 0
	.cfi_startproc
	pushq	%rbp
	.seh_pushreg	%rbp
	.cfi_def_cfa_offset 16
	.cfi_offset 6, -16
	movq	%rsp, %rbp
	.seh_setframe	%rbp, 0
	.cfi_def_cfa_register 6
	.seh_endprologue
	movq	%rcx, 16(%rbp)
	.loc 2 2233 0
	movq	16(%rbp), %rax
	addq	$8, %rax
	.loc 2 2234 0
	popq	%rbp
	.cfi_restore 6
	.cfi_def_cfa 7, 8
	ret
	.cfi_endproc
.LFE1433:
	.seh_endproc
	.globl	_Z23lodepng_chunk_check_crcPKh
	.def	_Z23lodepng_chunk_check_crcPKh;	.scl	2;	.type	32;	.endef
	.seh_proc	_Z23lodepng_chunk_check_crcPKh
_Z23lodepng_chunk_check_crcPKh:
.LFB1434:
	.loc 2 2236 0
	.cfi_startproc
	pushq	%rbp
	.seh_pushreg	%rbp
	.cfi_def_cfa_offset 16
	.cfi_offset 6, -16
	movq	%rsp, %rbp
	.seh_setframe	%rbp, 0
	.cfi_def_cfa_register 6
	subq	$48, %rsp
	.seh_stackalloc	48
	.seh_endprologue
	movq	%rcx, 16(%rbp)
	.loc 2 2237 0
	movq	16(%rbp), %rcx
	call	_Z20lodepng_chunk_lengthPKh
	movl	%eax, -4(%rbp)
	.loc 2 2238 0
	movl	-4(%rbp), %eax
	addl	$8, %eax
	movl	%eax, %edx
	movq	16(%rbp), %rax
	addq	%rdx, %rax
	movq	%rax, %rcx
	call	_Z20lodepng_read32bitIntPKh
	movl	%eax, -8(%rbp)
	.loc 2 2240 0
	movl	-4(%rbp), %eax
	addl	$4, %eax
	movl	%eax, %edx
	movq	16(%rbp), %rax
	addq	$4, %rax
	movq	%rax, %rcx
	call	_Z13lodepng_crc32PKhy
	movl	%eax, -12(%rbp)
	.loc 2 2241 0
	movl	-8(%rbp), %eax
	cmpl	-12(%rbp), %eax
	je	.L600
	.loc 2 2241 0 is_stmt 0 discriminator 1
	movl	$1, %eax
	jmp	.L601
.L600:
	.loc 2 2242 0 is_stmt 1
	movl	$0, %eax
.L601:
	.loc 2 2243 0
	addq	$48, %rsp
	popq	%rbp
	.cfi_restore 6
	.cfi_def_cfa 7, 8
	ret
	.cfi_endproc
.LFE1434:
	.seh_endproc
	.globl	_Z26lodepng_chunk_generate_crcPh
	.def	_Z26lodepng_chunk_generate_crcPh;	.scl	2;	.type	32;	.endef
	.seh_proc	_Z26lodepng_chunk_generate_crcPh
_Z26lodepng_chunk_generate_crcPh:
.LFB1435:
	.loc 2 2245 0
	.cfi_startproc
	pushq	%rbp
	.seh_pushreg	%rbp
	.cfi_def_cfa_offset 16
	.cfi_offset 6, -16
	movq	%rsp, %rbp
	.seh_setframe	%rbp, 0
	.cfi_def_cfa_register 6
	subq	$48, %rsp
	.seh_stackalloc	48
	.seh_endprologue
	movq	%rcx, 16(%rbp)
	.loc 2 2246 0
	movq	16(%rbp), %rcx
	call	_Z20lodepng_chunk_lengthPKh
	movl	%eax, -4(%rbp)
	.loc 2 2247 0
	movl	-4(%rbp), %eax
	addl	$4, %eax
	movl	%eax, %edx
	movq	16(%rbp), %rax
	addq	$4, %rax
	movq	%rax, %rcx
	call	_Z13lodepng_crc32PKhy
	movl	%eax, -8(%rbp)
	.loc 2 2248 0
	movl	-4(%rbp), %eax
	leaq	8(%rax), %rdx
	movq	16(%rbp), %rax
	leaq	(%rdx,%rax), %rcx
	movl	-8(%rbp), %eax
	movl	%eax, %edx
	call	_ZL19lodepng_set32bitIntPhj
	.loc 2 2249 0
	nop
	addq	$48, %rsp
	popq	%rbp
	.cfi_restore 6
	.cfi_def_cfa 7, 8
	ret
	.cfi_endproc
.LFE1435:
	.seh_endproc
	.globl	_Z18lodepng_chunk_nextPh
	.def	_Z18lodepng_chunk_nextPh;	.scl	2;	.type	32;	.endef
	.seh_proc	_Z18lodepng_chunk_nextPh
_Z18lodepng_chunk_nextPh:
.LFB1436:
	.loc 2 2251 0
	.cfi_startproc
	pushq	%rbp
	.seh_pushreg	%rbp
	.cfi_def_cfa_offset 16
	.cfi_offset 6, -16
	movq	%rsp, %rbp
	.seh_setframe	%rbp, 0
	.cfi_def_cfa_register 6
	subq	$48, %rsp
	.seh_stackalloc	48
	.seh_endprologue
	movq	%rcx, 16(%rbp)
.LBB90:
	.loc 2 2252 0
	movq	16(%rbp), %rax
	movzbl	(%rax), %eax
	cmpb	$-119, %al
	jne	.L604
	.loc 2 2252 0 is_stmt 0 discriminator 1
	movq	16(%rbp), %rax
	addq	$1, %rax
	movzbl	(%rax), %eax
	cmpb	$80, %al
	jne	.L604
	.loc 2 2252 0 discriminator 2
	movq	16(%rbp), %rax
	addq	$2, %rax
	movzbl	(%rax), %eax
	cmpb	$78, %al
	jne	.L604
	.loc 2 2252 0 discriminator 3
	movq	16(%rbp), %rax
	addq	$3, %rax
	movzbl	(%rax), %eax
	cmpb	$71, %al
	jne	.L604
	.loc 2 2253 0 is_stmt 1
	movq	16(%rbp), %rax
	addq	$4, %rax
	movzbl	(%rax), %eax
	cmpb	$13, %al
	jne	.L604
	.loc 2 2253 0 is_stmt 0 discriminator 1
	movq	16(%rbp), %rax
	addq	$5, %rax
	movzbl	(%rax), %eax
	cmpb	$10, %al
	jne	.L604
	.loc 2 2253 0 discriminator 2
	movq	16(%rbp), %rax
	addq	$6, %rax
	movzbl	(%rax), %eax
	cmpb	$26, %al
	jne	.L604
	.loc 2 2253 0 discriminator 3
	movq	16(%rbp), %rax
	addq	$7, %rax
	movzbl	(%rax), %eax
	cmpb	$10, %al
	jne	.L604
	.loc 2 2255 0 is_stmt 1
	movq	16(%rbp), %rax
	addq	$8, %rax
	jmp	.L605
.L604:
.LBB91:
	.loc 2 2258 0
	movq	16(%rbp), %rcx
	call	_Z20lodepng_chunk_lengthPKh
	addl	$12, %eax
	movl	%eax, -4(%rbp)
	.loc 2 2259 0
	movl	-4(%rbp), %edx
	movq	16(%rbp), %rax
	addq	%rdx, %rax
.L605:
.LBE91:
.LBE90:
	.loc 2 2261 0
	addq	$48, %rsp
	popq	%rbp
	.cfi_restore 6
	.cfi_def_cfa 7, 8
	ret
	.cfi_endproc
.LFE1436:
	.seh_endproc
	.globl	_Z24lodepng_chunk_next_constPKh
	.def	_Z24lodepng_chunk_next_constPKh;	.scl	2;	.type	32;	.endef
	.seh_proc	_Z24lodepng_chunk_next_constPKh
_Z24lodepng_chunk_next_constPKh:
.LFB1437:
	.loc 2 2263 0
	.cfi_startproc
	pushq	%rbp
	.seh_pushreg	%rbp
	.cfi_def_cfa_offset 16
	.cfi_offset 6, -16
	movq	%rsp, %rbp
	.seh_setframe	%rbp, 0
	.cfi_def_cfa_register 6
	subq	$48, %rsp
	.seh_stackalloc	48
	.seh_endprologue
	movq	%rcx, 16(%rbp)
.LBB92:
	.loc 2 2264 0
	movq	16(%rbp), %rax
	movzbl	(%rax), %eax
	cmpb	$-119, %al
	jne	.L607
	.loc 2 2264 0 is_stmt 0 discriminator 1
	movq	16(%rbp), %rax
	addq	$1, %rax
	movzbl	(%rax), %eax
	cmpb	$80, %al
	jne	.L607
	.loc 2 2264 0 discriminator 2
	movq	16(%rbp), %rax
	addq	$2, %rax
	movzbl	(%rax), %eax
	cmpb	$78, %al
	jne	.L607
	.loc 2 2264 0 discriminator 3
	movq	16(%rbp), %rax
	addq	$3, %rax
	movzbl	(%rax), %eax
	cmpb	$71, %al
	jne	.L607
	.loc 2 2265 0 is_stmt 1
	movq	16(%rbp), %rax
	addq	$4, %rax
	movzbl	(%rax), %eax
	cmpb	$13, %al
	jne	.L607
	.loc 2 2265 0 is_stmt 0 discriminator 1
	movq	16(%rbp), %rax
	addq	$5, %rax
	movzbl	(%rax), %eax
	cmpb	$10, %al
	jne	.L607
	.loc 2 2265 0 discriminator 2
	movq	16(%rbp), %rax
	addq	$6, %rax
	movzbl	(%rax), %eax
	cmpb	$26, %al
	jne	.L607
	.loc 2 2265 0 discriminator 3
	movq	16(%rbp), %rax
	addq	$7, %rax
	movzbl	(%rax), %eax
	cmpb	$10, %al
	jne	.L607
	.loc 2 2267 0 is_stmt 1
	movq	16(%rbp), %rax
	addq	$8, %rax
	jmp	.L608
.L607:
.LBB93:
	.loc 2 2270 0
	movq	16(%rbp), %rcx
	call	_Z20lodepng_chunk_lengthPKh
	addl	$12, %eax
	movl	%eax, -4(%rbp)
	.loc 2 2271 0
	movl	-4(%rbp), %edx
	movq	16(%rbp), %rax
	addq	%rdx, %rax
.L608:
.LBE93:
.LBE92:
	.loc 2 2273 0
	addq	$48, %rsp
	popq	%rbp
	.cfi_restore 6
	.cfi_def_cfa 7, 8
	ret
	.cfi_endproc
.LFE1437:
	.seh_endproc
	.globl	_Z18lodepng_chunk_findPhPKhPKc
	.def	_Z18lodepng_chunk_findPhPKhPKc;	.scl	2;	.type	32;	.endef
	.seh_proc	_Z18lodepng_chunk_findPhPKhPKc
_Z18lodepng_chunk_findPhPKhPKc:
.LFB1438:
	.loc 2 2275 0
	.cfi_startproc
	pushq	%rbp
	.seh_pushreg	%rbp
	.cfi_def_cfa_offset 16
	.cfi_offset 6, -16
	movq	%rsp, %rbp
	.seh_setframe	%rbp, 0
	.cfi_def_cfa_register 6
	subq	$32, %rsp
	.seh_stackalloc	32
	.seh_endprologue
	movq	%rcx, 16(%rbp)
	movq	%rdx, 24(%rbp)
	movq	%r8, 32(%rbp)
.L613:
	.loc 2 2277 0
	movq	16(%rbp), %rax
	addq	$12, %rax
	cmpq	%rax, 24(%rbp)
	ja	.L610
	.loc 2 2277 0 is_stmt 0 discriminator 1
	movl	$0, %eax
	jmp	.L611
.L610:
	.loc 2 2278 0 is_stmt 1
	movq	32(%rbp), %rax
	movq	%rax, %rdx
	movq	16(%rbp), %rcx
	call	_Z25lodepng_chunk_type_equalsPKhPKc
	testb	%al, %al
	setne	%al
	testb	%al, %al
	je	.L612
	.loc 2 2278 0 is_stmt 0 discriminator 1
	movq	16(%rbp), %rax
	jmp	.L611
.L612:
	.loc 2 2279 0 is_stmt 1
	movq	16(%rbp), %rcx
	call	_Z18lodepng_chunk_nextPh
	movq	%rax, 16(%rbp)
	.loc 2 2277 0
	jmp	.L613
.L611:
	.loc 2 2281 0
	addq	$32, %rsp
	popq	%rbp
	.cfi_restore 6
	.cfi_def_cfa 7, 8
	ret
	.cfi_endproc
.LFE1438:
	.seh_endproc
	.globl	_Z24lodepng_chunk_find_constPKhS0_PKc
	.def	_Z24lodepng_chunk_find_constPKhS0_PKc;	.scl	2;	.type	32;	.endef
	.seh_proc	_Z24lodepng_chunk_find_constPKhS0_PKc
_Z24lodepng_chunk_find_constPKhS0_PKc:
.LFB1439:
	.loc 2 2283 0
	.cfi_startproc
	pushq	%rbp
	.seh_pushreg	%rbp
	.cfi_def_cfa_offset 16
	.cfi_offset 6, -16
	movq	%rsp, %rbp
	.seh_setframe	%rbp, 0
	.cfi_def_cfa_register 6
	subq	$32, %rsp
	.seh_stackalloc	32
	.seh_endprologue
	movq	%rcx, 16(%rbp)
	movq	%rdx, 24(%rbp)
	movq	%r8, 32(%rbp)
.L618:
	.loc 2 2285 0
	movq	16(%rbp), %rax
	addq	$12, %rax
	cmpq	%rax, 24(%rbp)
	ja	.L615
	.loc 2 2285 0 is_stmt 0 discriminator 1
	movl	$0, %eax
	jmp	.L616
.L615:
	.loc 2 2286 0 is_stmt 1
	movq	32(%rbp), %rax
	movq	%rax, %rdx
	movq	16(%rbp), %rcx
	call	_Z25lodepng_chunk_type_equalsPKhPKc
	testb	%al, %al
	setne	%al
	testb	%al, %al
	je	.L617
	.loc 2 2286 0 is_stmt 0 discriminator 1
	movq	16(%rbp), %rax
	jmp	.L616
.L617:
	.loc 2 2287 0 is_stmt 1
	movq	16(%rbp), %rcx
	call	_Z24lodepng_chunk_next_constPKh
	movq	%rax, 16(%rbp)
	.loc 2 2285 0
	jmp	.L618
.L616:
	.loc 2 2289 0
	addq	$32, %rsp
	popq	%rbp
	.cfi_restore 6
	.cfi_def_cfa 7, 8
	ret
	.cfi_endproc
.LFE1439:
	.seh_endproc
	.globl	_Z20lodepng_chunk_appendPPhPyPKh
	.def	_Z20lodepng_chunk_appendPPhPyPKh;	.scl	2;	.type	32;	.endef
	.seh_proc	_Z20lodepng_chunk_appendPPhPyPKh
_Z20lodepng_chunk_appendPPhPyPKh:
.LFB1440:
	.loc 2 2291 0
	.cfi_startproc
	pushq	%rbp
	.seh_pushreg	%rbp
	.cfi_def_cfa_offset 16
	.cfi_offset 6, -16
	movq	%rsp, %rbp
	.seh_setframe	%rbp, 0
	.cfi_def_cfa_register 6
	subq	$64, %rsp
	.seh_stackalloc	64
	.seh_endprologue
	movq	%rcx, 16(%rbp)
	movq	%rdx, 24(%rbp)
	movq	%r8, 32(%rbp)
	.loc 2 2293 0
	movq	32(%rbp), %rax
	movq	%rax, %rcx
	call	_Z20lodepng_chunk_lengthPKh
	addl	$12, %eax
	movl	%eax, -8(%rbp)
	.loc 2 2295 0
	movq	24(%rbp), %rax
	movq	(%rax), %rdx
	movl	-8(%rbp), %eax
	addq	%rdx, %rax
	movq	%rax, -16(%rbp)
	.loc 2 2296 0
	movl	-8(%rbp), %eax
	cmpq	%rax, -16(%rbp)
	jb	.L620
	.loc 2 2296 0 is_stmt 0 discriminator 2
	movq	24(%rbp), %rax
	movq	(%rax), %rax
	cmpq	%rax, -16(%rbp)
	jnb	.L621
.L620:
	.loc 2 2296 0 discriminator 3
	movl	$77, %eax
	jmp	.L622
.L621:
	.loc 2 2298 0 is_stmt 1
	movq	16(%rbp), %rax
	movq	(%rax), %rax
	movq	-16(%rbp), %rdx
	movq	%rax, %rcx
	call	_ZL15lodepng_reallocPvy
	movq	%rax, -24(%rbp)
	.loc 2 2299 0
	cmpq	$0, -24(%rbp)
	jne	.L623
	.loc 2 2299 0 is_stmt 0 discriminator 1
	movl	$83, %eax
	jmp	.L622
.L623:
	.loc 2 2300 0 is_stmt 1
	movq	16(%rbp), %rax
	movq	-24(%rbp), %rdx
	movq	%rdx, (%rax)
	.loc 2 2301 0
	movq	24(%rbp), %rax
	movq	-16(%rbp), %rdx
	movq	%rdx, (%rax)
	.loc 2 2302 0
	movq	16(%rbp), %rax
	movq	(%rax), %rax
	movl	-8(%rbp), %edx
	movq	-16(%rbp), %rcx
	subq	%rdx, %rcx
	movq	%rcx, %rdx
	addq	%rdx, %rax
	movq	%rax, -32(%rbp)
	.loc 2 2304 0
	movl	$0, -4(%rbp)
.L625:
	.loc 2 2304 0 is_stmt 0 discriminator 3
	movl	-4(%rbp), %eax
	cmpl	-8(%rbp), %eax
	je	.L624
	.loc 2 2304 0 discriminator 2
	movl	-4(%rbp), %edx
	movq	32(%rbp), %rax
	addq	%rdx, %rax
	movl	-4(%rbp), %ecx
	movq	-32(%rbp), %rdx
	addq	%rcx, %rdx
	movzbl	(%rax), %eax
	movb	%al, (%rdx)
	addl	$1, -4(%rbp)
	jmp	.L625
.L624:
	.loc 2 2306 0 is_stmt 1
	movl	$0, %eax
.L622:
	.loc 2 2307 0
	addq	$64, %rsp
	popq	%rbp
	.cfi_restore 6
	.cfi_def_cfa 7, 8
	ret
	.cfi_endproc
.LFE1440:
	.seh_endproc
	.globl	_Z20lodepng_chunk_createPPhPyjPKcPKh
	.def	_Z20lodepng_chunk_createPPhPyjPKcPKh;	.scl	2;	.type	32;	.endef
	.seh_proc	_Z20lodepng_chunk_createPPhPyjPKcPKh
_Z20lodepng_chunk_createPPhPyjPKcPKh:
.LFB1441:
	.loc 2 2310 0
	.cfi_startproc
	pushq	%rbp
	.seh_pushreg	%rbp
	.cfi_def_cfa_offset 16
	.cfi_offset 6, -16
	movq	%rsp, %rbp
	.seh_setframe	%rbp, 0
	.cfi_def_cfa_register 6
	subq	$64, %rsp
	.seh_stackalloc	64
	.seh_endprologue
	movq	%rcx, 16(%rbp)
	movq	%rdx, 24(%rbp)
	movl	%r8d, 32(%rbp)
	movq	%r9, 40(%rbp)
	.loc 2 2313 0
	movq	24(%rbp), %rax
	movq	(%rax), %rdx
	movl	32(%rbp), %eax
	addq	%rdx, %rax
	addq	$12, %rax
	movq	%rax, -16(%rbp)
	.loc 2 2314 0
	movl	32(%rbp), %eax
	addl	$12, %eax
	movl	%eax, %eax
	cmpq	%rax, -16(%rbp)
	jb	.L627
	.loc 2 2314 0 is_stmt 0 discriminator 2
	movq	24(%rbp), %rax
	movq	(%rax), %rax
	cmpq	%rax, -16(%rbp)
	jnb	.L628
.L627:
	.loc 2 2314 0 discriminator 3
	movl	$77, %eax
	jmp	.L629
.L628:
	.loc 2 2315 0 is_stmt 1
	movq	16(%rbp), %rax
	movq	(%rax), %rax
	movq	-16(%rbp), %rdx
	movq	%rax, %rcx
	call	_ZL15lodepng_reallocPvy
	movq	%rax, -24(%rbp)
	.loc 2 2316 0
	cmpq	$0, -24(%rbp)
	jne	.L630
	.loc 2 2316 0 is_stmt 0 discriminator 1
	movl	$83, %eax
	jmp	.L629
.L630:
	.loc 2 2317 0 is_stmt 1
	movq	16(%rbp), %rax
	movq	-24(%rbp), %rdx
	movq	%rdx, (%rax)
	.loc 2 2318 0
	movq	24(%rbp), %rax
	movq	-16(%rbp), %rdx
	movq	%rdx, (%rax)
	.loc 2 2319 0
	movq	16(%rbp), %rax
	movq	(%rax), %rdx
	movq	24(%rbp), %rax
	movq	(%rax), %rcx
	movl	32(%rbp), %eax
	subq	%rax, %rcx
	movq	%rcx, %rax
	subq	$12, %rax
	addq	%rdx, %rax
	movq	%rax, -32(%rbp)
	.loc 2 2322 0
	movl	32(%rbp), %edx
	movq	-32(%rbp), %rax
	movq	%rax, %rcx
	call	_ZL19lodepng_set32bitIntPhj
	.loc 2 2325 0
	movq	40(%rbp), %rax
	movzbl	(%rax), %edx
	movq	-32(%rbp), %rax
	addq	$4, %rax
	movb	%dl, (%rax)
	.loc 2 2326 0
	movq	40(%rbp), %rax
	addq	$1, %rax
	movzbl	(%rax), %edx
	movq	-32(%rbp), %rax
	addq	$5, %rax
	movb	%dl, (%rax)
	.loc 2 2327 0
	movq	40(%rbp), %rax
	addq	$2, %rax
	movzbl	(%rax), %edx
	movq	-32(%rbp), %rax
	addq	$6, %rax
	movb	%dl, (%rax)
	.loc 2 2328 0
	movq	40(%rbp), %rax
	addq	$3, %rax
	movzbl	(%rax), %edx
	movq	-32(%rbp), %rax
	addq	$7, %rax
	movb	%dl, (%rax)
	.loc 2 2331 0
	movl	$0, -4(%rbp)
.L632:
	.loc 2 2331 0 is_stmt 0 discriminator 3
	movl	-4(%rbp), %eax
	cmpl	32(%rbp), %eax
	je	.L631
	.loc 2 2331 0 discriminator 2
	movl	-4(%rbp), %edx
	movq	48(%rbp), %rax
	addq	%rdx, %rax
	movl	-4(%rbp), %edx
	addl	$8, %edx
	movl	%edx, %ecx
	movq	-32(%rbp), %rdx
	addq	%rcx, %rdx
	movzbl	(%rax), %eax
	movb	%al, (%rdx)
	addl	$1, -4(%rbp)
	jmp	.L632
.L631:
	.loc 2 2334 0 is_stmt 1
	movq	-32(%rbp), %rax
	movq	%rax, %rcx
	call	_Z26lodepng_chunk_generate_crcPh
	.loc 2 2336 0
	movl	$0, %eax
.L629:
	.loc 2 2337 0
	addq	$64, %rsp
	popq	%rbp
	.cfi_restore 6
	.cfi_def_cfa 7, 8
	ret
	.cfi_endproc
.LFE1441:
	.seh_endproc
	.def	_ZL18checkColorValidity16LodePNGColorTypej;	.scl	3;	.type	32;	.endef
	.seh_proc	_ZL18checkColorValidity16LodePNGColorTypej
_ZL18checkColorValidity16LodePNGColorTypej:
.LFB1442:
	.loc 2 2344 0
	.cfi_startproc
	pushq	%rbp
	.seh_pushreg	%rbp
	.cfi_def_cfa_offset 16
	.cfi_offset 6, -16
	movq	%rsp, %rbp
	.seh_setframe	%rbp, 0
	.cfi_def_cfa_register 6
	.seh_endprologue
	movl	%ecx, 16(%rbp)
	movl	%edx, 24(%rbp)
	.loc 2 2345 0
	movl	16(%rbp), %eax
	cmpl	$6, %eax
	ja	.L634
	movl	%eax, %eax
	leaq	0(,%rax,4), %rdx
	leaq	.L636(%rip), %rax
	movl	(%rdx,%rax), %eax
	movslq	%eax, %rdx
	leaq	.L636(%rip), %rax
	addq	%rdx, %rax
	jmp	*%rax
	.section .rdata,"dr"
	.align 4
.L636:
	.long	.L635-.L636
	.long	.L634-.L636
	.long	.L637-.L636
	.long	.L638-.L636
	.long	.L639-.L636
	.long	.L634-.L636
	.long	.L640-.L636
	.text
.L635:
	.loc 2 2346 0
	cmpl	$1, 24(%rbp)
	je	.L648
	.loc 2 2346 0 is_stmt 0 discriminator 1
	cmpl	$2, 24(%rbp)
	je	.L648
	.loc 2 2346 0 discriminator 2
	cmpl	$4, 24(%rbp)
	je	.L648
	.loc 2 2346 0 discriminator 3
	cmpl	$8, 24(%rbp)
	je	.L648
	.loc 2 2346 0 discriminator 4
	cmpl	$16, 24(%rbp)
	je	.L648
	.loc 2 2346 0 discriminator 5
	movl	$37, %eax
	jmp	.L642
.L637:
	.loc 2 2347 0 is_stmt 1
	cmpl	$8, 24(%rbp)
	je	.L649
	.loc 2 2347 0 is_stmt 0 discriminator 1
	cmpl	$16, 24(%rbp)
	je	.L649
	.loc 2 2347 0 discriminator 2
	movl	$37, %eax
	jmp	.L642
.L638:
	.loc 2 2348 0 is_stmt 1
	cmpl	$1, 24(%rbp)
	je	.L650
	.loc 2 2348 0 is_stmt 0 discriminator 1
	cmpl	$2, 24(%rbp)
	je	.L650
	.loc 2 2348 0 discriminator 2
	cmpl	$4, 24(%rbp)
	je	.L650
	.loc 2 2348 0 discriminator 3
	cmpl	$8, 24(%rbp)
	je	.L650
	.loc 2 2348 0 discriminator 4
	movl	$37, %eax
	jmp	.L642
.L639:
	.loc 2 2349 0 is_stmt 1
	cmpl	$8, 24(%rbp)
	je	.L651
	.loc 2 2349 0 is_stmt 0 discriminator 1
	cmpl	$16, 24(%rbp)
	je	.L651
	.loc 2 2349 0 discriminator 2
	movl	$37, %eax
	jmp	.L642
.L640:
	.loc 2 2350 0 is_stmt 1
	cmpl	$8, 24(%rbp)
	je	.L652
	.loc 2 2350 0 is_stmt 0 discriminator 1
	cmpl	$16, 24(%rbp)
	je	.L652
	.loc 2 2350 0 discriminator 2
	movl	$37, %eax
	jmp	.L642
.L634:
	.loc 2 2351 0 is_stmt 1
	movl	$31, %eax
	jmp	.L642
.L648:
	.loc 2 2346 0
	nop
	jmp	.L643
.L649:
	.loc 2 2347 0
	nop
	jmp	.L643
.L650:
	.loc 2 2348 0
	nop
	jmp	.L643
.L651:
	.loc 2 2349 0
	nop
	jmp	.L643
.L652:
	.loc 2 2350 0
	nop
.L643:
	.loc 2 2353 0
	movl	$0, %eax
.L642:
	.loc 2 2354 0
	popq	%rbp
	.cfi_restore 6
	.cfi_def_cfa 7, 8
	ret
	.cfi_endproc
.LFE1442:
	.seh_endproc
	.def	_ZL19getNumColorChannels16LodePNGColorType;	.scl	3;	.type	32;	.endef
	.seh_proc	_ZL19getNumColorChannels16LodePNGColorType
_ZL19getNumColorChannels16LodePNGColorType:
.LFB1443:
	.loc 2 2356 0
	.cfi_startproc
	pushq	%rbp
	.seh_pushreg	%rbp
	.cfi_def_cfa_offset 16
	.cfi_offset 6, -16
	movq	%rsp, %rbp
	.seh_setframe	%rbp, 0
	.cfi_def_cfa_register 6
	.seh_endprologue
	movl	%ecx, 16(%rbp)
	.loc 2 2357 0
	movl	16(%rbp), %eax
	cmpl	$6, %eax
	ja	.L654
	movl	%eax, %eax
	leaq	0(,%rax,4), %rdx
	leaq	.L656(%rip), %rax
	movl	(%rdx,%rax), %eax
	movslq	%eax, %rdx
	leaq	.L656(%rip), %rax
	addq	%rdx, %rax
	jmp	*%rax
	.section .rdata,"dr"
	.align 4
.L656:
	.long	.L655-.L656
	.long	.L654-.L656
	.long	.L657-.L656
	.long	.L658-.L656
	.long	.L659-.L656
	.long	.L654-.L656
	.long	.L660-.L656
	.text
.L655:
	.loc 2 2358 0
	movl	$1, %eax
	jmp	.L661
.L657:
	.loc 2 2359 0
	movl	$3, %eax
	jmp	.L661
.L658:
	.loc 2 2360 0
	movl	$1, %eax
	jmp	.L661
.L659:
	.loc 2 2361 0
	movl	$2, %eax
	jmp	.L661
.L660:
	.loc 2 2362 0
	movl	$4, %eax
	jmp	.L661
.L654:
	.loc 2 2364 0
	movl	$0, %eax
.L661:
	.loc 2 2365 0
	popq	%rbp
	.cfi_restore 6
	.cfi_def_cfa 7, 8
	ret
	.cfi_endproc
.LFE1443:
	.seh_endproc
	.def	_ZL19lodepng_get_bpp_lct16LodePNGColorTypej;	.scl	3;	.type	32;	.endef
	.seh_proc	_ZL19lodepng_get_bpp_lct16LodePNGColorTypej
_ZL19lodepng_get_bpp_lct16LodePNGColorTypej:
.LFB1444:
	.loc 2 2367 0
	.cfi_startproc
	pushq	%rbp
	.seh_pushreg	%rbp
	.cfi_def_cfa_offset 16
	.cfi_offset 6, -16
	movq	%rsp, %rbp
	.seh_setframe	%rbp, 0
	.cfi_def_cfa_register 6
	subq	$32, %rsp
	.seh_stackalloc	32
	.seh_endprologue
	movl	%ecx, 16(%rbp)
	movl	%edx, 24(%rbp)
	.loc 2 2369 0
	movl	16(%rbp), %ecx
	call	_ZL19getNumColorChannels16LodePNGColorType
	imull	24(%rbp), %eax
	.loc 2 2370 0
	addq	$32, %rsp
	popq	%rbp
	.cfi_restore 6
	.cfi_def_cfa 7, 8
	ret
	.cfi_endproc
.LFE1444:
	.seh_endproc
	.globl	_Z23lodepng_color_mode_initP16LodePNGColorMode
	.def	_Z23lodepng_color_mode_initP16LodePNGColorMode;	.scl	2;	.type	32;	.endef
	.seh_proc	_Z23lodepng_color_mode_initP16LodePNGColorMode
_Z23lodepng_color_mode_initP16LodePNGColorMode:
.LFB1445:
	.loc 2 2374 0
	.cfi_startproc
	pushq	%rbp
	.seh_pushreg	%rbp
	.cfi_def_cfa_offset 16
	.cfi_offset 6, -16
	movq	%rsp, %rbp
	.seh_setframe	%rbp, 0
	.cfi_def_cfa_register 6
	.seh_endprologue
	movq	%rcx, 16(%rbp)
	.loc 2 2375 0
	movq	16(%rbp), %rax
	movl	$0, 24(%rax)
	.loc 2 2376 0
	movq	16(%rbp), %rax
	movl	$0, 36(%rax)
	movq	16(%rbp), %rax
	movl	36(%rax), %edx
	movq	16(%rbp), %rax
	movl	%edx, 32(%rax)
	movq	16(%rbp), %rax
	movl	32(%rax), %edx
	movq	16(%rbp), %rax
	movl	%edx, 28(%rax)
	.loc 2 2377 0
	movq	16(%rbp), %rax
	movl	$6, (%rax)
	.loc 2 2378 0
	movq	16(%rbp), %rax
	movl	$8, 4(%rax)
	.loc 2 2379 0
	movq	16(%rbp), %rax
	movq	$0, 8(%rax)
	.loc 2 2380 0
	movq	16(%rbp), %rax
	movq	$0, 16(%rax)
	.loc 2 2381 0
	nop
	popq	%rbp
	.cfi_restore 6
	.cfi_def_cfa 7, 8
	ret
	.cfi_endproc
.LFE1445:
	.seh_endproc
	.globl	_Z26lodepng_color_mode_cleanupP16LodePNGColorMode
	.def	_Z26lodepng_color_mode_cleanupP16LodePNGColorMode;	.scl	2;	.type	32;	.endef
	.seh_proc	_Z26lodepng_color_mode_cleanupP16LodePNGColorMode
_Z26lodepng_color_mode_cleanupP16LodePNGColorMode:
.LFB1446:
	.loc 2 2383 0
	.cfi_startproc
	pushq	%rbp
	.seh_pushreg	%rbp
	.cfi_def_cfa_offset 16
	.cfi_offset 6, -16
	movq	%rsp, %rbp
	.seh_setframe	%rbp, 0
	.cfi_def_cfa_register 6
	subq	$32, %rsp
	.seh_stackalloc	32
	.seh_endprologue
	movq	%rcx, 16(%rbp)
	.loc 2 2384 0
	movq	16(%rbp), %rcx
	call	_Z21lodepng_palette_clearP16LodePNGColorMode
	.loc 2 2385 0
	nop
	addq	$32, %rsp
	popq	%rbp
	.cfi_restore 6
	.cfi_def_cfa 7, 8
	ret
	.cfi_endproc
.LFE1446:
	.seh_endproc
	.globl	_Z23lodepng_color_mode_copyP16LodePNGColorModePKS_
	.def	_Z23lodepng_color_mode_copyP16LodePNGColorModePKS_;	.scl	2;	.type	32;	.endef
	.seh_proc	_Z23lodepng_color_mode_copyP16LodePNGColorModePKS_
_Z23lodepng_color_mode_copyP16LodePNGColorModePKS_:
.LFB1447:
	.loc 2 2387 0
	.cfi_startproc
	pushq	%rbp
	.seh_pushreg	%rbp
	.cfi_def_cfa_offset 16
	.cfi_offset 6, -16
	movq	%rsp, %rbp
	.seh_setframe	%rbp, 0
	.cfi_def_cfa_register 6
	subq	$48, %rsp
	.seh_stackalloc	48
	.seh_endprologue
	movq	%rcx, 16(%rbp)
	movq	%rdx, 24(%rbp)
	.loc 2 2389 0
	movq	16(%rbp), %rcx
	call	_Z26lodepng_color_mode_cleanupP16LodePNGColorMode
	.loc 2 2390 0
	movq	16(%rbp), %rcx
	movq	24(%rbp), %r8
	movq	(%r8), %rax
	movq	8(%r8), %rdx
	movq	%rax, (%rcx)
	movq	%rdx, 8(%rcx)
	movq	16(%r8), %rax
	movq	24(%r8), %rdx
	movq	%rax, 16(%rcx)
	movq	%rdx, 24(%rcx)
	movq	32(%r8), %rax
	movq	%rax, 32(%rcx)
	.loc 2 2391 0
	movq	24(%rbp), %rax
	movq	8(%rax), %rax
	testq	%rax, %rax
	je	.L667
	.loc 2 2392 0
	movl	$1024, %ecx
	call	_ZL14lodepng_mallocy
	movq	%rax, %rdx
	movq	16(%rbp), %rax
	movq	%rdx, 8(%rax)
	.loc 2 2393 0
	movq	16(%rbp), %rax
	movq	8(%rax), %rax
	testq	%rax, %rax
	jne	.L668
	.loc 2 2393 0 is_stmt 0 discriminator 1
	movq	24(%rbp), %rax
	movq	16(%rax), %rax
	testq	%rax, %rax
	je	.L668
	.loc 2 2393 0 discriminator 2
	movl	$83, %eax
	jmp	.L669
.L668:
	.loc 2 2394 0 is_stmt 1
	movq	$0, -8(%rbp)
.L670:
	.loc 2 2394 0 is_stmt 0 discriminator 3
	movq	24(%rbp), %rax
	movq	16(%rax), %rax
	salq	$2, %rax
	cmpq	%rax, -8(%rbp)
	je	.L667
	.loc 2 2394 0 discriminator 2
	movq	24(%rbp), %rax
	movq	8(%rax), %rdx
	movq	-8(%rbp), %rax
	leaq	(%rdx,%rax), %rcx
	movq	16(%rbp), %rax
	movq	8(%rax), %rdx
	movq	-8(%rbp), %rax
	addq	%rax, %rdx
	movzbl	(%rcx), %eax
	movb	%al, (%rdx)
	addq	$1, -8(%rbp)
	jmp	.L670
.L667:
	.loc 2 2396 0 is_stmt 1
	movl	$0, %eax
.L669:
	.loc 2 2397 0
	addq	$48, %rsp
	popq	%rbp
	.cfi_restore 6
	.cfi_def_cfa 7, 8
	ret
	.cfi_endproc
.LFE1447:
	.seh_endproc
	.globl	_Z23lodepng_color_mode_make16LodePNGColorTypej
	.def	_Z23lodepng_color_mode_make16LodePNGColorTypej;	.scl	2;	.type	32;	.endef
	.seh_proc	_Z23lodepng_color_mode_make16LodePNGColorTypej
_Z23lodepng_color_mode_make16LodePNGColorTypej:
.LFB1448:
	.loc 2 2399 0
	.cfi_startproc
	pushq	%rbp
	.seh_pushreg	%rbp
	.cfi_def_cfa_offset 16
	.cfi_offset 6, -16
	movq	%rsp, %rbp
	.seh_setframe	%rbp, 0
	.cfi_def_cfa_register 6
	subq	$32, %rsp
	.seh_stackalloc	32
	.seh_endprologue
	movq	%rcx, 16(%rbp)
	movl	%edx, 24(%rbp)
	movl	%r8d, 32(%rbp)
	.loc 2 2401 0
	movq	16(%rbp), %rcx
	call	_Z23lodepng_color_mode_initP16LodePNGColorMode
	.loc 2 2402 0
	movq	16(%rbp), %rax
	movl	24(%rbp), %edx
	movl	%edx, (%rax)
	.loc 2 2403 0
	movq	16(%rbp), %rax
	movl	32(%rbp), %edx
	movl	%edx, 4(%rax)
	.loc 2 2404 0
	nop
	.loc 2 2405 0
	movq	16(%rbp), %rax
	addq	$32, %rsp
	popq	%rbp
	.cfi_restore 6
	.cfi_def_cfa 7, 8
	ret
	.cfi_endproc
.LFE1448:
	.seh_endproc
	.def	_ZL24lodepng_color_mode_equalPK16LodePNGColorModeS1_;	.scl	3;	.type	32;	.endef
	.seh_proc	_ZL24lodepng_color_mode_equalPK16LodePNGColorModeS1_
_ZL24lodepng_color_mode_equalPK16LodePNGColorModeS1_:
.LFB1449:
	.loc 2 2407 0
	.cfi_startproc
	pushq	%rbp
	.seh_pushreg	%rbp
	.cfi_def_cfa_offset 16
	.cfi_offset 6, -16
	movq	%rsp, %rbp
	.seh_setframe	%rbp, 0
	.cfi_def_cfa_register 6
	subq	$16, %rsp
	.seh_stackalloc	16
	.seh_endprologue
	movq	%rcx, 16(%rbp)
	movq	%rdx, 24(%rbp)
	.loc 2 2409 0
	movq	16(%rbp), %rax
	movl	(%rax), %edx
	movq	24(%rbp), %rax
	movl	(%rax), %eax
	cmpl	%eax, %edx
	je	.L674
	.loc 2 2409 0 is_stmt 0 discriminator 1
	movl	$0, %eax
	jmp	.L675
.L674:
	.loc 2 2410 0 is_stmt 1
	movq	16(%rbp), %rax
	movl	4(%rax), %edx
	movq	24(%rbp), %rax
	movl	4(%rax), %eax
	cmpl	%eax, %edx
	je	.L676
	.loc 2 2410 0 is_stmt 0 discriminator 1
	movl	$0, %eax
	jmp	.L675
.L676:
	.loc 2 2411 0 is_stmt 1
	movq	16(%rbp), %rax
	movl	24(%rax), %edx
	movq	24(%rbp), %rax
	movl	24(%rax), %eax
	cmpl	%eax, %edx
	je	.L677
	.loc 2 2411 0 is_stmt 0 discriminator 1
	movl	$0, %eax
	jmp	.L675
.L677:
	.loc 2 2412 0 is_stmt 1
	movq	16(%rbp), %rax
	movl	24(%rax), %eax
	testl	%eax, %eax
	je	.L678
	.loc 2 2413 0
	movq	16(%rbp), %rax
	movl	28(%rax), %edx
	movq	24(%rbp), %rax
	movl	28(%rax), %eax
	cmpl	%eax, %edx
	je	.L679
	.loc 2 2413 0 is_stmt 0 discriminator 1
	movl	$0, %eax
	jmp	.L675
.L679:
	.loc 2 2414 0 is_stmt 1
	movq	16(%rbp), %rax
	movl	32(%rax), %edx
	movq	24(%rbp), %rax
	movl	32(%rax), %eax
	cmpl	%eax, %edx
	je	.L680
	.loc 2 2414 0 is_stmt 0 discriminator 1
	movl	$0, %eax
	jmp	.L675
.L680:
	.loc 2 2415 0 is_stmt 1
	movq	16(%rbp), %rax
	movl	36(%rax), %edx
	movq	24(%rbp), %rax
	movl	36(%rax), %eax
	cmpl	%eax, %edx
	je	.L678
	.loc 2 2415 0 is_stmt 0 discriminator 1
	movl	$0, %eax
	jmp	.L675
.L678:
	.loc 2 2417 0 is_stmt 1
	movq	16(%rbp), %rax
	movq	16(%rax), %rdx
	movq	24(%rbp), %rax
	movq	16(%rax), %rax
	cmpq	%rax, %rdx
	je	.L681
	.loc 2 2417 0 is_stmt 0 discriminator 1
	movl	$0, %eax
	jmp	.L675
.L681:
	.loc 2 2418 0 is_stmt 1
	movq	$0, -8(%rbp)
.L684:
	.loc 2 2418 0 is_stmt 0 discriminator 1
	movq	16(%rbp), %rax
	movq	16(%rax), %rax
	salq	$2, %rax
	cmpq	%rax, -8(%rbp)
	je	.L682
	.loc 2 2419 0 is_stmt 1
	movq	16(%rbp), %rax
	movq	8(%rax), %rdx
	movq	-8(%rbp), %rax
	addq	%rdx, %rax
	movzbl	(%rax), %edx
	movq	24(%rbp), %rax
	movq	8(%rax), %rcx
	movq	-8(%rbp), %rax
	addq	%rcx, %rax
	movzbl	(%rax), %eax
	cmpb	%al, %dl
	je	.L683
	.loc 2 2419 0 is_stmt 0 discriminator 1
	movl	$0, %eax
	jmp	.L675
.L683:
	.loc 2 2418 0 is_stmt 1 discriminator 2
	addq	$1, -8(%rbp)
	jmp	.L684
.L682:
	.loc 2 2421 0
	movl	$1, %eax
.L675:
	.loc 2 2422 0
	addq	$16, %rsp
	popq	%rbp
	.cfi_restore 6
	.cfi_def_cfa 7, 8
	ret
	.cfi_endproc
.LFE1449:
	.seh_endproc
	.globl	_Z21lodepng_palette_clearP16LodePNGColorMode
	.def	_Z21lodepng_palette_clearP16LodePNGColorMode;	.scl	2;	.type	32;	.endef
	.seh_proc	_Z21lodepng_palette_clearP16LodePNGColorMode
_Z21lodepng_palette_clearP16LodePNGColorMode:
.LFB1450:
	.loc 2 2424 0
	.cfi_startproc
	pushq	%rbp
	.seh_pushreg	%rbp
	.cfi_def_cfa_offset 16
	.cfi_offset 6, -16
	movq	%rsp, %rbp
	.seh_setframe	%rbp, 0
	.cfi_def_cfa_register 6
	subq	$32, %rsp
	.seh_stackalloc	32
	.seh_endprologue
	movq	%rcx, 16(%rbp)
	.loc 2 2425 0
	movq	16(%rbp), %rax
	movq	8(%rax), %rax
	testq	%rax, %rax
	je	.L686
	.loc 2 2425 0 is_stmt 0 discriminator 1
	movq	16(%rbp), %rax
	movq	8(%rax), %rax
	movq	%rax, %rcx
	call	_ZL12lodepng_freePv
.L686:
	.loc 2 2426 0 is_stmt 1
	movq	16(%rbp), %rax
	movq	$0, 8(%rax)
	.loc 2 2427 0
	movq	16(%rbp), %rax
	movq	$0, 16(%rax)
	.loc 2 2428 0
	nop
	addq	$32, %rsp
	popq	%rbp
	.cfi_restore 6
	.cfi_def_cfa 7, 8
	ret
	.cfi_endproc
.LFE1450:
	.seh_endproc
	.globl	_Z19lodepng_palette_addP16LodePNGColorModehhhh
	.def	_Z19lodepng_palette_addP16LodePNGColorModehhhh;	.scl	2;	.type	32;	.endef
	.seh_proc	_Z19lodepng_palette_addP16LodePNGColorModehhhh
_Z19lodepng_palette_addP16LodePNGColorModehhhh:
.LFB1451:
	.loc 2 2431 0
	.cfi_startproc
	pushq	%rbp
	.seh_pushreg	%rbp
	.cfi_def_cfa_offset 16
	.cfi_offset 6, -16
	movq	%rsp, %rbp
	.seh_setframe	%rbp, 0
	.cfi_def_cfa_register 6
	subq	$64, %rsp
	.seh_stackalloc	64
	.seh_endprologue
	movq	%rcx, 16(%rbp)
	movl	%r9d, %ecx
	movl	48(%rbp), %eax
	movb	%dl, 24(%rbp)
	movl	%r8d, %edx
	movb	%dl, 32(%rbp)
	movl	%ecx, %edx
	movb	%dl, 40(%rbp)
	movb	%al, -20(%rbp)
	.loc 2 2435 0
	movq	16(%rbp), %rax
	movq	8(%rax), %rax
	testq	%rax, %rax
	jne	.L688
	.loc 2 2437 0
	movq	16(%rbp), %rax
	movq	8(%rax), %rax
	movl	$1024, %edx
	movq	%rax, %rcx
	call	_ZL15lodepng_reallocPvy
	movq	%rax, -8(%rbp)
	.loc 2 2438 0
	cmpq	$0, -8(%rbp)
	jne	.L689
	.loc 2 2438 0 is_stmt 0 discriminator 1
	movl	$83, %eax
	jmp	.L690
.L689:
	.loc 2 2439 0 is_stmt 1
	movq	16(%rbp), %rax
	movq	-8(%rbp), %rdx
	movq	%rdx, 8(%rax)
.L688:
	.loc 2 2441 0
	movq	16(%rbp), %rax
	movq	8(%rax), %rdx
	movq	16(%rbp), %rax
	movq	16(%rax), %rax
	salq	$2, %rax
	addq	%rax, %rdx
	movzbl	24(%rbp), %eax
	movb	%al, (%rdx)
	.loc 2 2442 0
	movq	16(%rbp), %rax
	movq	8(%rax), %rdx
	movq	16(%rbp), %rax
	movq	16(%rax), %rax
	salq	$2, %rax
	addq	$1, %rax
	addq	%rax, %rdx
	movzbl	32(%rbp), %eax
	movb	%al, (%rdx)
	.loc 2 2443 0
	movq	16(%rbp), %rax
	movq	8(%rax), %rdx
	movq	16(%rbp), %rax
	movq	16(%rax), %rax
	salq	$2, %rax
	addq	$2, %rax
	addq	%rax, %rdx
	movzbl	40(%rbp), %eax
	movb	%al, (%rdx)
	.loc 2 2444 0
	movq	16(%rbp), %rax
	movq	8(%rax), %rdx
	movq	16(%rbp), %rax
	movq	16(%rax), %rax
	salq	$2, %rax
	addq	$3, %rax
	addq	%rax, %rdx
	movzbl	-20(%rbp), %eax
	movb	%al, (%rdx)
	.loc 2 2445 0
	movq	16(%rbp), %rax
	movq	16(%rax), %rax
	leaq	1(%rax), %rdx
	movq	16(%rbp), %rax
	movq	%rdx, 16(%rax)
	.loc 2 2446 0
	movl	$0, %eax
.L690:
	.loc 2 2447 0
	addq	$64, %rsp
	popq	%rbp
	.cfi_restore 6
	.cfi_def_cfa 7, 8
	ret
	.cfi_endproc
.LFE1451:
	.seh_endproc
	.globl	_Z15lodepng_get_bppPK16LodePNGColorMode
	.def	_Z15lodepng_get_bppPK16LodePNGColorMode;	.scl	2;	.type	32;	.endef
	.seh_proc	_Z15lodepng_get_bppPK16LodePNGColorMode
_Z15lodepng_get_bppPK16LodePNGColorMode:
.LFB1452:
	.loc 2 2450 0
	.cfi_startproc
	pushq	%rbp
	.seh_pushreg	%rbp
	.cfi_def_cfa_offset 16
	.cfi_offset 6, -16
	movq	%rsp, %rbp
	.seh_setframe	%rbp, 0
	.cfi_def_cfa_register 6
	subq	$32, %rsp
	.seh_stackalloc	32
	.seh_endprologue
	movq	%rcx, 16(%rbp)
	.loc 2 2451 0
	movq	16(%rbp), %rax
	movl	4(%rax), %edx
	movq	16(%rbp), %rax
	movl	(%rax), %eax
	movl	%eax, %ecx
	call	_ZL19lodepng_get_bpp_lct16LodePNGColorTypej
	.loc 2 2452 0
	addq	$32, %rsp
	popq	%rbp
	.cfi_restore 6
	.cfi_def_cfa 7, 8
	ret
	.cfi_endproc
.LFE1452:
	.seh_endproc
	.globl	_Z20lodepng_get_channelsPK16LodePNGColorMode
	.def	_Z20lodepng_get_channelsPK16LodePNGColorMode;	.scl	2;	.type	32;	.endef
	.seh_proc	_Z20lodepng_get_channelsPK16LodePNGColorMode
_Z20lodepng_get_channelsPK16LodePNGColorMode:
.LFB1453:
	.loc 2 2454 0
	.cfi_startproc
	pushq	%rbp
	.seh_pushreg	%rbp
	.cfi_def_cfa_offset 16
	.cfi_offset 6, -16
	movq	%rsp, %rbp
	.seh_setframe	%rbp, 0
	.cfi_def_cfa_register 6
	subq	$32, %rsp
	.seh_stackalloc	32
	.seh_endprologue
	movq	%rcx, 16(%rbp)
	.loc 2 2455 0
	movq	16(%rbp), %rax
	movl	(%rax), %eax
	movl	%eax, %ecx
	call	_ZL19getNumColorChannels16LodePNGColorType
	.loc 2 2456 0
	addq	$32, %rsp
	popq	%rbp
	.cfi_restore 6
	.cfi_def_cfa 7, 8
	ret
	.cfi_endproc
.LFE1453:
	.seh_endproc
	.globl	_Z25lodepng_is_greyscale_typePK16LodePNGColorMode
	.def	_Z25lodepng_is_greyscale_typePK16LodePNGColorMode;	.scl	2;	.type	32;	.endef
	.seh_proc	_Z25lodepng_is_greyscale_typePK16LodePNGColorMode
_Z25lodepng_is_greyscale_typePK16LodePNGColorMode:
.LFB1454:
	.loc 2 2458 0
	.cfi_startproc
	pushq	%rbp
	.seh_pushreg	%rbp
	.cfi_def_cfa_offset 16
	.cfi_offset 6, -16
	movq	%rsp, %rbp
	.seh_setframe	%rbp, 0
	.cfi_def_cfa_register 6
	.seh_endprologue
	movq	%rcx, 16(%rbp)
	.loc 2 2459 0
	movq	16(%rbp), %rax
	movl	(%rax), %eax
	testl	%eax, %eax
	je	.L696
	.loc 2 2459 0 is_stmt 0 discriminator 2
	movq	16(%rbp), %rax
	movl	(%rax), %eax
	cmpl	$4, %eax
	jne	.L697
.L696:
	.loc 2 2459 0 discriminator 3
	movl	$1, %eax
	jmp	.L698
.L697:
	.loc 2 2459 0 discriminator 4
	movl	$0, %eax
.L698:
	.loc 2 2459 0 discriminator 6
	movzbl	%al, %eax
	.loc 2 2460 0 is_stmt 1 discriminator 6
	popq	%rbp
	.cfi_restore 6
	.cfi_def_cfa 7, 8
	ret
	.cfi_endproc
.LFE1454:
	.seh_endproc
	.globl	_Z21lodepng_is_alpha_typePK16LodePNGColorMode
	.def	_Z21lodepng_is_alpha_typePK16LodePNGColorMode;	.scl	2;	.type	32;	.endef
	.seh_proc	_Z21lodepng_is_alpha_typePK16LodePNGColorMode
_Z21lodepng_is_alpha_typePK16LodePNGColorMode:
.LFB1455:
	.loc 2 2462 0
	.cfi_startproc
	pushq	%rbp
	.seh_pushreg	%rbp
	.cfi_def_cfa_offset 16
	.cfi_offset 6, -16
	movq	%rsp, %rbp
	.seh_setframe	%rbp, 0
	.cfi_def_cfa_register 6
	.seh_endprologue
	movq	%rcx, 16(%rbp)
	.loc 2 2463 0
	movq	16(%rbp), %rax
	movl	(%rax), %eax
	andl	$4, %eax
	testl	%eax, %eax
	setne	%al
	movzbl	%al, %eax
	.loc 2 2464 0
	popq	%rbp
	.cfi_restore 6
	.cfi_def_cfa 7, 8
	ret
	.cfi_endproc
.LFE1455:
	.seh_endproc
	.globl	_Z23lodepng_is_palette_typePK16LodePNGColorMode
	.def	_Z23lodepng_is_palette_typePK16LodePNGColorMode;	.scl	2;	.type	32;	.endef
	.seh_proc	_Z23lodepng_is_palette_typePK16LodePNGColorMode
_Z23lodepng_is_palette_typePK16LodePNGColorMode:
.LFB1456:
	.loc 2 2466 0
	.cfi_startproc
	pushq	%rbp
	.seh_pushreg	%rbp
	.cfi_def_cfa_offset 16
	.cfi_offset 6, -16
	movq	%rsp, %rbp
	.seh_setframe	%rbp, 0
	.cfi_def_cfa_register 6
	.seh_endprologue
	movq	%rcx, 16(%rbp)
	.loc 2 2467 0
	movq	16(%rbp), %rax
	movl	(%rax), %eax
	cmpl	$3, %eax
	sete	%al
	movzbl	%al, %eax
	.loc 2 2468 0
	popq	%rbp
	.cfi_restore 6
	.cfi_def_cfa 7, 8
	ret
	.cfi_endproc
.LFE1456:
	.seh_endproc
	.globl	_Z25lodepng_has_palette_alphaPK16LodePNGColorMode
	.def	_Z25lodepng_has_palette_alphaPK16LodePNGColorMode;	.scl	2;	.type	32;	.endef
	.seh_proc	_Z25lodepng_has_palette_alphaPK16LodePNGColorMode
_Z25lodepng_has_palette_alphaPK16LodePNGColorMode:
.LFB1457:
	.loc 2 2470 0
	.cfi_startproc
	pushq	%rbp
	.seh_pushreg	%rbp
	.cfi_def_cfa_offset 16
	.cfi_offset 6, -16
	movq	%rsp, %rbp
	.seh_setframe	%rbp, 0
	.cfi_def_cfa_register 6
	subq	$16, %rsp
	.seh_stackalloc	16
	.seh_endprologue
	movq	%rcx, 16(%rbp)
	.loc 2 2472 0
	movq	$0, -8(%rbp)
.L708:
	.loc 2 2472 0 is_stmt 0 discriminator 1
	movq	16(%rbp), %rax
	movq	16(%rax), %rax
	cmpq	%rax, -8(%rbp)
	je	.L705
	.loc 2 2473 0 is_stmt 1
	movq	16(%rbp), %rax
	movq	8(%rax), %rax
	movq	-8(%rbp), %rdx
	salq	$2, %rdx
	addq	$3, %rdx
	addq	%rdx, %rax
	movzbl	(%rax), %eax
	cmpb	$-1, %al
	je	.L706
	.loc 2 2473 0 is_stmt 0 discriminator 1
	movl	$1, %eax
	jmp	.L707
.L706:
	.loc 2 2472 0 is_stmt 1 discriminator 2
	addq	$1, -8(%rbp)
	jmp	.L708
.L705:
	.loc 2 2475 0
	movl	$0, %eax
.L707:
	.loc 2 2476 0
	addq	$16, %rsp
	popq	%rbp
	.cfi_restore 6
	.cfi_def_cfa 7, 8
	ret
	.cfi_endproc
.LFE1457:
	.seh_endproc
	.globl	_Z22lodepng_can_have_alphaPK16LodePNGColorMode
	.def	_Z22lodepng_can_have_alphaPK16LodePNGColorMode;	.scl	2;	.type	32;	.endef
	.seh_proc	_Z22lodepng_can_have_alphaPK16LodePNGColorMode
_Z22lodepng_can_have_alphaPK16LodePNGColorMode:
.LFB1458:
	.loc 2 2478 0
	.cfi_startproc
	pushq	%rbp
	.seh_pushreg	%rbp
	.cfi_def_cfa_offset 16
	.cfi_offset 6, -16
	movq	%rsp, %rbp
	.seh_setframe	%rbp, 0
	.cfi_def_cfa_register 6
	subq	$32, %rsp
	.seh_stackalloc	32
	.seh_endprologue
	movq	%rcx, 16(%rbp)
	.loc 2 2479 0
	movq	16(%rbp), %rax
	movl	24(%rax), %eax
	.loc 2 2481 0
	testl	%eax, %eax
	jne	.L710
	.loc 2 2480 0
	movq	16(%rbp), %rcx
	call	_Z21lodepng_is_alpha_typePK16LodePNGColorMode
	testl	%eax, %eax
	jne	.L710
	.loc 2 2481 0 discriminator 2
	movq	16(%rbp), %rcx
	call	_Z25lodepng_has_palette_alphaPK16LodePNGColorMode
	testl	%eax, %eax
	je	.L711
.L710:
	.loc 2 2481 0 is_stmt 0 discriminator 1
	movl	$1, %eax
	jmp	.L712
.L711:
	.loc 2 2481 0 discriminator 3
	movl	$0, %eax
.L712:
	.loc 2 2481 0 discriminator 5
	movzbl	%al, %eax
	.loc 2 2482 0 is_stmt 1 discriminator 5
	addq	$32, %rsp
	popq	%rbp
	.cfi_restore 6
	.cfi_def_cfa 7, 8
	ret
	.cfi_endproc
.LFE1458:
	.seh_endproc
	.globl	_Z24lodepng_get_raw_size_lctjj16LodePNGColorTypej
	.def	_Z24lodepng_get_raw_size_lctjj16LodePNGColorTypej;	.scl	2;	.type	32;	.endef
	.seh_proc	_Z24lodepng_get_raw_size_lctjj16LodePNGColorTypej
_Z24lodepng_get_raw_size_lctjj16LodePNGColorTypej:
.LFB1459:
	.loc 2 2484 0
	.cfi_startproc
	pushq	%rbp
	.seh_pushreg	%rbp
	.cfi_def_cfa_offset 16
	.cfi_offset 6, -16
	movq	%rsp, %rbp
	.seh_setframe	%rbp, 0
	.cfi_def_cfa_register 6
	subq	$48, %rsp
	.seh_stackalloc	48
	.seh_endprologue
	movl	%ecx, 16(%rbp)
	movl	%edx, 24(%rbp)
	movl	%r8d, 32(%rbp)
	movl	%r9d, 40(%rbp)
	.loc 2 2485 0
	movl	40(%rbp), %edx
	movl	32(%rbp), %eax
	movl	%eax, %ecx
	call	_ZL19lodepng_get_bpp_lct16LodePNGColorTypej
	movl	%eax, %eax
	movq	%rax, -8(%rbp)
	.loc 2 2486 0
	movl	16(%rbp), %edx
	movl	24(%rbp), %eax
	imulq	%rdx, %rax
	movq	%rax, -16(%rbp)
	.loc 2 2487 0
	movq	-16(%rbp), %rax
	shrq	$3, %rax
	imulq	-8(%rbp), %rax
	movq	-16(%rbp), %rdx
	andl	$7, %edx
	imulq	-8(%rbp), %rdx
	addq	$7, %rdx
	shrq	$3, %rdx
	addq	%rdx, %rax
	.loc 2 2488 0
	addq	$48, %rsp
	popq	%rbp
	.cfi_restore 6
	.cfi_def_cfa 7, 8
	ret
	.cfi_endproc
.LFE1459:
	.seh_endproc
	.globl	_Z20lodepng_get_raw_sizejjPK16LodePNGColorMode
	.def	_Z20lodepng_get_raw_sizejjPK16LodePNGColorMode;	.scl	2;	.type	32;	.endef
	.seh_proc	_Z20lodepng_get_raw_sizejjPK16LodePNGColorMode
_Z20lodepng_get_raw_sizejjPK16LodePNGColorMode:
.LFB1460:
	.loc 2 2490 0
	.cfi_startproc
	pushq	%rbp
	.seh_pushreg	%rbp
	.cfi_def_cfa_offset 16
	.cfi_offset 6, -16
	movq	%rsp, %rbp
	.seh_setframe	%rbp, 0
	.cfi_def_cfa_register 6
	subq	$32, %rsp
	.seh_stackalloc	32
	.seh_endprologue
	movl	%ecx, 16(%rbp)
	movl	%edx, 24(%rbp)
	movq	%r8, 32(%rbp)
	.loc 2 2491 0
	movq	32(%rbp), %rax
	movl	4(%rax), %ecx
	movq	32(%rbp), %rax
	movl	(%rax), %edx
	movl	24(%rbp), %eax
	movl	%ecx, %r9d
	movl	%edx, %r8d
	movl	%eax, %edx
	movl	16(%rbp), %ecx
	call	_Z24lodepng_get_raw_size_lctjj16LodePNGColorTypej
	.loc 2 2492 0
	addq	$32, %rsp
	popq	%rbp
	.cfi_restore 6
	.cfi_def_cfa 7, 8
	ret
	.cfi_endproc
.LFE1460:
	.seh_endproc
	.def	_ZL25lodepng_get_raw_size_idatjjPK16LodePNGColorMode;	.scl	3;	.type	32;	.endef
	.seh_proc	_ZL25lodepng_get_raw_size_idatjjPK16LodePNGColorMode
_ZL25lodepng_get_raw_size_idatjjPK16LodePNGColorMode:
.LFB1461:
	.loc 2 2501 0
	.cfi_startproc
	pushq	%rbp
	.seh_pushreg	%rbp
	.cfi_def_cfa_offset 16
	.cfi_offset 6, -16
	movq	%rsp, %rbp
	.seh_setframe	%rbp, 0
	.cfi_def_cfa_register 6
	subq	$48, %rsp
	.seh_stackalloc	48
	.seh_endprologue
	movl	%ecx, 16(%rbp)
	movl	%edx, 24(%rbp)
	movq	%r8, 32(%rbp)
	.loc 2 2502 0
	movq	32(%rbp), %rax
	movq	%rax, %rcx
	call	_Z15lodepng_get_bppPK16LodePNGColorMode
	movl	%eax, %eax
	movq	%rax, -8(%rbp)
	.loc 2 2504 0
	movl	16(%rbp), %eax
	shrl	$3, %eax
	movl	%eax, %eax
	imulq	-8(%rbp), %rax
	movl	16(%rbp), %edx
	andl	$7, %edx
	imulq	-8(%rbp), %rdx
	addq	$7, %rdx
	shrq	$3, %rdx
	addq	%rdx, %rax
	addq	$1, %rax
	movq	%rax, -16(%rbp)
	.loc 2 2505 0
	movl	24(%rbp), %eax
	imulq	-16(%rbp), %rax
	.loc 2 2506 0
	addq	$48, %rsp
	popq	%rbp
	.cfi_restore 6
	.cfi_def_cfa 7, 8
	ret
	.cfi_endproc
.LFE1461:
	.seh_endproc
	.def	_ZL14lodepng_muloflyyPy;	.scl	3;	.type	32;	.endef
	.seh_proc	_ZL14lodepng_muloflyyPy
_ZL14lodepng_muloflyyPy:
.LFB1462:
	.loc 2 2510 0
	.cfi_startproc
	pushq	%rbp
	.seh_pushreg	%rbp
	.cfi_def_cfa_offset 16
	.cfi_offset 6, -16
	movq	%rsp, %rbp
	.seh_setframe	%rbp, 0
	.cfi_def_cfa_register 6
	.seh_endprologue
	movq	%rcx, 16(%rbp)
	movq	%rdx, 24(%rbp)
	movq	%r8, 32(%rbp)
	.loc 2 2511 0
	movq	16(%rbp), %rax
	imulq	24(%rbp), %rax
	movq	%rax, %rdx
	movq	32(%rbp), %rax
	movq	%rdx, (%rax)
	.loc 2 2512 0
	cmpq	$0, 16(%rbp)
	je	.L721
	.loc 2 2512 0 is_stmt 0 discriminator 1
	movq	32(%rbp), %rax
	movq	(%rax), %rax
	movl	$0, %edx
	divq	16(%rbp)
	cmpq	%rax, 24(%rbp)
	je	.L721
	.loc 2 2512 0 discriminator 3
	movl	$1, %eax
	jmp	.L722
.L721:
	.loc 2 2512 0 discriminator 4
	movl	$0, %eax
.L722:
	.loc 2 2512 0 discriminator 6
	movzbl	%al, %eax
	.loc 2 2513 0 is_stmt 1 discriminator 6
	popq	%rbp
	.cfi_restore 6
	.cfi_def_cfa 7, 8
	ret
	.cfi_endproc
.LFE1462:
	.seh_endproc
	.def	_ZL14lodepng_addoflyyPy;	.scl	3;	.type	32;	.endef
	.seh_proc	_ZL14lodepng_addoflyyPy
_ZL14lodepng_addoflyyPy:
.LFB1463:
	.loc 2 2517 0
	.cfi_startproc
	pushq	%rbp
	.seh_pushreg	%rbp
	.cfi_def_cfa_offset 16
	.cfi_offset 6, -16
	movq	%rsp, %rbp
	.seh_setframe	%rbp, 0
	.cfi_def_cfa_register 6
	.seh_endprologue
	movq	%rcx, 16(%rbp)
	movq	%rdx, 24(%rbp)
	movq	%r8, 32(%rbp)
	.loc 2 2518 0
	movq	16(%rbp), %rdx
	movq	24(%rbp), %rax
	addq	%rax, %rdx
	movq	32(%rbp), %rax
	movq	%rdx, (%rax)
	.loc 2 2519 0
	movq	32(%rbp), %rax
	movq	(%rax), %rax
	cmpq	%rax, 16(%rbp)
	seta	%al
	movzbl	%al, %eax
	.loc 2 2520 0
	popq	%rbp
	.cfi_restore 6
	.cfi_def_cfa 7, 8
	ret
	.cfi_endproc
.LFE1463:
	.seh_endproc
	.def	_ZL22lodepng_pixel_overflowjjPK16LodePNGColorModeS1_;	.scl	3;	.type	32;	.endef
	.seh_proc	_ZL22lodepng_pixel_overflowjjPK16LodePNGColorModeS1_
_ZL22lodepng_pixel_overflowjjPK16LodePNGColorModeS1_:
.LFB1464:
	.loc 2 2531 0
	.cfi_startproc
	pushq	%rbp
	.seh_pushreg	%rbp
	.cfi_def_cfa_offset 16
	.cfi_offset 6, -16
	pushq	%rbx
	.seh_pushreg	%rbx
	.cfi_def_cfa_offset 24
	.cfi_offset 3, -24
	subq	$72, %rsp
	.seh_stackalloc	72
	.cfi_def_cfa_offset 96
	leaq	128(%rsp), %rbp
	.seh_setframe	%rbp, 128
	.cfi_def_cfa 6, -32
	.seh_endprologue
	movl	%ecx, -32(%rbp)
	movl	%edx, -24(%rbp)
	movq	%r8, -16(%rbp)
	movq	%r9, -8(%rbp)
	.loc 2 2532 0
	movq	-16(%rbp), %rax
	movq	%rax, %rcx
	call	_Z15lodepng_get_bppPK16LodePNGColorMode
	movl	%eax, %ebx
	movq	-8(%rbp), %rax
	movq	%rax, %rcx
	call	_Z15lodepng_get_bppPK16LodePNGColorMode
	cmpl	%eax, %ebx
	jbe	.L727
	.loc 2 2532 0 is_stmt 0 discriminator 1
	movq	-16(%rbp), %rax
	movq	%rax, %rcx
	call	_Z15lodepng_get_bppPK16LodePNGColorMode
	movl	%eax, %eax
	jmp	.L728
.L727:
	.loc 2 2532 0 discriminator 2
	movq	-8(%rbp), %rax
	movq	%rax, %rcx
	call	_Z15lodepng_get_bppPK16LodePNGColorMode
	movl	%eax, %eax
.L728:
	.loc 2 2532 0 discriminator 4
	movq	%rax, -72(%rbp)
	.loc 2 2536 0 is_stmt 1 discriminator 4
	movl	-24(%rbp), %edx
	movl	-32(%rbp), %eax
	leaq	-80(%rbp), %rcx
	movq	%rcx, %r8
	movq	%rax, %rcx
	call	_ZL14lodepng_muloflyyPy
	testl	%eax, %eax
	setne	%al
	testb	%al, %al
	je	.L729
	.loc 2 2536 0 is_stmt 0 discriminator 1
	movl	$1, %eax
	jmp	.L736
.L729:
	.loc 2 2537 0 is_stmt 1
	movq	-80(%rbp), %rax
	leaq	-88(%rbp), %rdx
	movq	%rdx, %r8
	movl	$8, %edx
	movq	%rax, %rcx
	call	_ZL14lodepng_muloflyyPy
	testl	%eax, %eax
	setne	%al
	testb	%al, %al
	je	.L731
	.loc 2 2537 0 is_stmt 0 discriminator 1
	movl	$1, %eax
	jmp	.L736
.L731:
	.loc 2 2540 0 is_stmt 1
	movl	-32(%rbp), %eax
	shrl	$3, %eax
	movl	%eax, %ecx
	leaq	-96(%rbp), %rdx
	movq	-72(%rbp), %rax
	movq	%rdx, %r8
	movq	%rax, %rdx
	call	_ZL14lodepng_muloflyyPy
	testl	%eax, %eax
	setne	%al
	testb	%al, %al
	je	.L732
	.loc 2 2540 0 is_stmt 0 discriminator 1
	movl	$1, %eax
	jmp	.L736
.L732:
	.loc 2 2541 0 is_stmt 1
	movl	-32(%rbp), %eax
	andl	$7, %eax
	imulq	-72(%rbp), %rax
	addq	$7, %rax
	shrq	$3, %rax
	movq	%rax, %rdx
	movq	-96(%rbp), %rax
	leaq	-96(%rbp), %rcx
	movq	%rcx, %r8
	movq	%rax, %rcx
	call	_ZL14lodepng_addoflyyPy
	testl	%eax, %eax
	setne	%al
	testb	%al, %al
	je	.L733
	.loc 2 2541 0 is_stmt 0 discriminator 1
	movl	$1, %eax
	jmp	.L736
.L733:
	.loc 2 2543 0 is_stmt 1
	movq	-96(%rbp), %rax
	leaq	-96(%rbp), %rdx
	movq	%rdx, %r8
	movl	$5, %edx
	movq	%rax, %rcx
	call	_ZL14lodepng_addoflyyPy
	testl	%eax, %eax
	setne	%al
	testb	%al, %al
	je	.L734
	.loc 2 2543 0 is_stmt 0 discriminator 1
	movl	$1, %eax
	jmp	.L736
.L734:
	.loc 2 2544 0 is_stmt 1
	movl	-24(%rbp), %edx
	movq	-96(%rbp), %rax
	leaq	-88(%rbp), %rcx
	movq	%rcx, %r8
	movq	%rax, %rcx
	call	_ZL14lodepng_muloflyyPy
	testl	%eax, %eax
	setne	%al
	testb	%al, %al
	je	.L735
	.loc 2 2544 0 is_stmt 0 discriminator 1
	movl	$1, %eax
	jmp	.L736
.L735:
	.loc 2 2546 0 is_stmt 1
	movl	$0, %eax
.L736:
	.loc 2 2547 0 discriminator 1
	addq	$72, %rsp
	popq	%rbx
	.cfi_restore 3
	popq	%rbp
	.cfi_restore 6
	.cfi_def_cfa 7, -56
	ret
	.cfi_endproc
.LFE1464:
	.seh_endproc
	.def	_ZL25LodePNGUnknownChunks_initP11LodePNGInfo;	.scl	3;	.type	32;	.endef
	.seh_proc	_ZL25LodePNGUnknownChunks_initP11LodePNGInfo
_ZL25LodePNGUnknownChunks_initP11LodePNGInfo:
.LFB1465:
	.loc 2 2553 0
	.cfi_startproc
	pushq	%rbp
	.seh_pushreg	%rbp
	.cfi_def_cfa_offset 16
	.cfi_offset 6, -16
	movq	%rsp, %rbp
	.seh_setframe	%rbp, 0
	.cfi_def_cfa_register 6
	subq	$16, %rsp
	.seh_stackalloc	16
	.seh_endprologue
	movq	%rcx, 16(%rbp)
	.loc 2 2555 0
	movl	$0, -4(%rbp)
.L739:
	.loc 2 2555 0 is_stmt 0 discriminator 3
	cmpl	$3, -4(%rbp)
	je	.L738
	.loc 2 2555 0 discriminator 2
	movq	16(%rbp), %rax
	movl	-4(%rbp), %edx
	addq	$32, %rdx
	movq	$0, 8(%rax,%rdx,8)
	addl	$1, -4(%rbp)
	jmp	.L739
.L738:
	.loc 2 2556 0 is_stmt 1
	movl	$0, -4(%rbp)
.L741:
	.loc 2 2556 0 is_stmt 0 discriminator 3
	cmpl	$3, -4(%rbp)
	je	.L742
	.loc 2 2556 0 discriminator 2
	movq	16(%rbp), %rax
	movl	-4(%rbp), %edx
	addq	$36, %rdx
	movq	$0, (%rax,%rdx,8)
	addl	$1, -4(%rbp)
	jmp	.L741
.L742:
	.loc 2 2557 0 is_stmt 1
	nop
	addq	$16, %rsp
	popq	%rbp
	.cfi_restore 6
	.cfi_def_cfa 7, 8
	ret
	.cfi_endproc
.LFE1465:
	.seh_endproc
	.def	_ZL28LodePNGUnknownChunks_cleanupP11LodePNGInfo;	.scl	3;	.type	32;	.endef
	.seh_proc	_ZL28LodePNGUnknownChunks_cleanupP11LodePNGInfo
_ZL28LodePNGUnknownChunks_cleanupP11LodePNGInfo:
.LFB1466:
	.loc 2 2559 0
	.cfi_startproc
	pushq	%rbp
	.seh_pushreg	%rbp
	.cfi_def_cfa_offset 16
	.cfi_offset 6, -16
	movq	%rsp, %rbp
	.seh_setframe	%rbp, 0
	.cfi_def_cfa_register 6
	subq	$48, %rsp
	.seh_stackalloc	48
	.seh_endprologue
	movq	%rcx, 16(%rbp)
	.loc 2 2561 0
	movl	$0, -4(%rbp)
.L745:
	.loc 2 2561 0 is_stmt 0 discriminator 3
	cmpl	$3, -4(%rbp)
	je	.L746
	.loc 2 2561 0 discriminator 2
	movq	16(%rbp), %rax
	movl	-4(%rbp), %edx
	addq	$32, %rdx
	movq	8(%rax,%rdx,8), %rax
	movq	%rax, %rcx
	call	_ZL12lodepng_freePv
	addl	$1, -4(%rbp)
	jmp	.L745
.L746:
	.loc 2 2562 0 is_stmt 1
	nop
	addq	$48, %rsp
	popq	%rbp
	.cfi_restore 6
	.cfi_def_cfa 7, 8
	ret
	.cfi_endproc
.LFE1466:
	.seh_endproc
	.def	_ZL25LodePNGUnknownChunks_copyP11LodePNGInfoPKS_;	.scl	3;	.type	32;	.endef
	.seh_proc	_ZL25LodePNGUnknownChunks_copyP11LodePNGInfoPKS_
_ZL25LodePNGUnknownChunks_copyP11LodePNGInfoPKS_:
.LFB1467:
	.loc 2 2564 0
	.cfi_startproc
	pushq	%rbp
	.seh_pushreg	%rbp
	.cfi_def_cfa_offset 16
	.cfi_offset 6, -16
	movq	%rsp, %rbp
	.seh_setframe	%rbp, 0
	.cfi_def_cfa_register 6
	subq	$48, %rsp
	.seh_stackalloc	48
	.seh_endprologue
	movq	%rcx, 16(%rbp)
	movq	%rdx, 24(%rbp)
	.loc 2 2567 0
	movq	16(%rbp), %rcx
	call	_ZL28LodePNGUnknownChunks_cleanupP11LodePNGInfo
.LBB94:
	.loc 2 2569 0
	movl	$0, -4(%rbp)
.L753:
	.loc 2 2569 0 is_stmt 0 discriminator 1
	cmpl	$3, -4(%rbp)
	je	.L748
.LBB95:
	.loc 2 2571 0 is_stmt 1
	movq	24(%rbp), %rax
	movl	-4(%rbp), %edx
	addq	$36, %rdx
	movq	(%rax,%rdx,8), %rdx
	movq	16(%rbp), %rax
	movl	-4(%rbp), %ecx
	addq	$36, %rcx
	movq	%rdx, (%rax,%rcx,8)
	.loc 2 2572 0
	movq	24(%rbp), %rax
	movl	-4(%rbp), %edx
	addq	$36, %rdx
	movq	(%rax,%rdx,8), %rax
	movq	%rax, %rcx
	call	_ZL14lodepng_mallocy
	movq	%rax, %rcx
	movq	16(%rbp), %rax
	movl	-4(%rbp), %edx
	addq	$32, %rdx
	movq	%rcx, 8(%rax,%rdx,8)
	.loc 2 2573 0
	movq	16(%rbp), %rax
	movl	-4(%rbp), %edx
	addq	$32, %rdx
	movq	8(%rax,%rdx,8), %rax
	testq	%rax, %rax
	jne	.L749
	.loc 2 2573 0 is_stmt 0 discriminator 1
	movq	16(%rbp), %rax
	movl	-4(%rbp), %edx
	addq	$36, %rdx
	movq	(%rax,%rdx,8), %rax
	testq	%rax, %rax
	je	.L749
	.loc 2 2573 0 discriminator 2
	movl	$83, %eax
	jmp	.L750
.L749:
	.loc 2 2574 0 is_stmt 1
	movq	$0, -16(%rbp)
.L752:
	.loc 2 2574 0 is_stmt 0 discriminator 3
	movq	24(%rbp), %rax
	movl	-4(%rbp), %edx
	addq	$36, %rdx
	movq	(%rax,%rdx,8), %rax
	cmpq	%rax, -16(%rbp)
	jnb	.L751
	.loc 2 2575 0 is_stmt 1 discriminator 2
	movq	24(%rbp), %rax
	movl	-4(%rbp), %edx
	addq	$32, %rdx
	movq	8(%rax,%rdx,8), %rdx
	movq	-16(%rbp), %rax
	leaq	(%rdx,%rax), %rcx
	movq	16(%rbp), %rax
	movl	-4(%rbp), %edx
	addq	$32, %rdx
	movq	8(%rax,%rdx,8), %rdx
	movq	-16(%rbp), %rax
	addq	%rax, %rdx
	movzbl	(%rcx), %eax
	movb	%al, (%rdx)
	.loc 2 2574 0 discriminator 2
	addq	$1, -16(%rbp)
	jmp	.L752
.L751:
.LBE95:
	.loc 2 2569 0 discriminator 2
	addl	$1, -4(%rbp)
	jmp	.L753
.L748:
.LBE94:
	.loc 2 2579 0
	movl	$0, %eax
.L750:
	.loc 2 2580 0
	addq	$48, %rsp
	popq	%rbp
	.cfi_restore 6
	.cfi_def_cfa 7, 8
	ret
	.cfi_endproc
.LFE1467:
	.seh_endproc
	.def	_ZL16LodePNGText_initP11LodePNGInfo;	.scl	3;	.type	32;	.endef
	.seh_proc	_ZL16LodePNGText_initP11LodePNGInfo
_ZL16LodePNGText_initP11LodePNGInfo:
.LFB1468:
	.loc 2 2584 0
	.cfi_startproc
	pushq	%rbp
	.seh_pushreg	%rbp
	.cfi_def_cfa_offset 16
	.cfi_offset 6, -16
	movq	%rsp, %rbp
	.seh_setframe	%rbp, 0
	.cfi_def_cfa_register 6
	.seh_endprologue
	movq	%rcx, 16(%rbp)
	.loc 2 2585 0
	movq	16(%rbp), %rax
	movq	$0, 72(%rax)
	.loc 2 2586 0
	movq	16(%rbp), %rax
	movq	$0, 80(%rax)
	.loc 2 2587 0
	movq	16(%rbp), %rax
	movq	$0, 88(%rax)
	.loc 2 2588 0
	nop
	popq	%rbp
	.cfi_restore 6
	.cfi_def_cfa 7, 8
	ret
	.cfi_endproc
.LFE1468:
	.seh_endproc
	.def	_ZL19LodePNGText_cleanupP11LodePNGInfo;	.scl	3;	.type	32;	.endef
	.seh_proc	_ZL19LodePNGText_cleanupP11LodePNGInfo
_ZL19LodePNGText_cleanupP11LodePNGInfo:
.LFB1469:
	.loc 2 2590 0
	.cfi_startproc
	pushq	%rbp
	.seh_pushreg	%rbp
	.cfi_def_cfa_offset 16
	.cfi_offset 6, -16
	movq	%rsp, %rbp
	.seh_setframe	%rbp, 0
	.cfi_def_cfa_register 6
	subq	$48, %rsp
	.seh_stackalloc	48
	.seh_endprologue
	movq	%rcx, 16(%rbp)
	.loc 2 2592 0
	movq	$0, -8(%rbp)
.L757:
	.loc 2 2592 0 is_stmt 0 discriminator 3
	movq	16(%rbp), %rax
	movq	72(%rax), %rax
	cmpq	%rax, -8(%rbp)
	je	.L756
	.loc 2 2593 0 is_stmt 1 discriminator 2
	movq	16(%rbp), %rax
	movq	80(%rax), %rax
	movq	-8(%rbp), %rdx
	salq	$3, %rdx
	addq	%rdx, %rax
	movq	%rax, %rcx
	call	_ZL14string_cleanupPPc
	.loc 2 2594 0 discriminator 2
	movq	16(%rbp), %rax
	movq	88(%rax), %rax
	movq	-8(%rbp), %rdx
	salq	$3, %rdx
	addq	%rdx, %rax
	movq	%rax, %rcx
	call	_ZL14string_cleanupPPc
	.loc 2 2592 0 discriminator 2
	addq	$1, -8(%rbp)
	jmp	.L757
.L756:
	.loc 2 2596 0
	movq	16(%rbp), %rax
	movq	80(%rax), %rax
	movq	%rax, %rcx
	call	_ZL12lodepng_freePv
	.loc 2 2597 0
	movq	16(%rbp), %rax
	movq	88(%rax), %rax
	movq	%rax, %rcx
	call	_ZL12lodepng_freePv
	.loc 2 2598 0
	nop
	addq	$48, %rsp
	popq	%rbp
	.cfi_restore 6
	.cfi_def_cfa 7, 8
	ret
	.cfi_endproc
.LFE1469:
	.seh_endproc
	.def	_ZL16LodePNGText_copyP11LodePNGInfoPKS_;	.scl	3;	.type	32;	.endef
	.seh_proc	_ZL16LodePNGText_copyP11LodePNGInfoPKS_
_ZL16LodePNGText_copyP11LodePNGInfoPKS_:
.LFB1470:
	.loc 2 2600 0
	.cfi_startproc
	pushq	%rbp
	.seh_pushreg	%rbp
	.cfi_def_cfa_offset 16
	.cfi_offset 6, -16
	movq	%rsp, %rbp
	.seh_setframe	%rbp, 0
	.cfi_def_cfa_register 6
	subq	$48, %rsp
	.seh_stackalloc	48
	.seh_endprologue
	movq	%rcx, 16(%rbp)
	movq	%rdx, 24(%rbp)
	.loc 2 2601 0
	movq	$0, -8(%rbp)
	.loc 2 2602 0
	movq	16(%rbp), %rax
	movq	$0, 80(%rax)
	.loc 2 2603 0
	movq	16(%rbp), %rax
	movq	$0, 88(%rax)
	.loc 2 2604 0
	movq	16(%rbp), %rax
	movq	$0, 72(%rax)
.LBB96:
	.loc 2 2605 0
	movq	$0, -8(%rbp)
.L762:
	.loc 2 2605 0 is_stmt 0 discriminator 1
	movq	24(%rbp), %rax
	movq	72(%rax), %rax
	cmpq	%rax, -8(%rbp)
	je	.L759
.LBB97:
.LBB98:
	.loc 2 2606 0 is_stmt 1
	movq	24(%rbp), %rax
	movq	88(%rax), %rax
	movq	-8(%rbp), %rdx
	salq	$3, %rdx
	addq	%rdx, %rax
	movq	(%rax), %rdx
	movq	24(%rbp), %rax
	movq	80(%rax), %rax
	movq	-8(%rbp), %rcx
	salq	$3, %rcx
	addq	%rcx, %rax
	movq	(%rax), %rax
	movq	%rdx, %r8
	movq	%rax, %rdx
	movq	16(%rbp), %rcx
	call	_Z16lodepng_add_textP11LodePNGInfoPKcS2_
	movl	%eax, -12(%rbp)
	cmpl	$0, -12(%rbp)
	je	.L760
	.loc 2 2606 0 is_stmt 0 discriminator 1
	movl	-12(%rbp), %eax
	jmp	.L761
.L760:
.LBE98:
.LBE97:
