	.file	"playerOrb.cpp"
	.text
.Ltext0:
	.cfi_sections	.debug_frame
	.section	.text$_ZN7boxsize3getEii,"x"
	.linkonce discard
	.align 2
	.globl	_ZN7boxsize3getEii
	.def	_ZN7boxsize3getEii;	.scl	2;	.type	32;	.endef
	.seh_proc	_ZN7boxsize3getEii
_ZN7boxsize3getEii:
.LFB248:
	.file 1 "boxsize.h"
	.loc 1 33 0
	.cfi_startproc
	pushq	%rbp
	.seh_pushreg	%rbp
	.cfi_def_cfa_offset 16
	.cfi_offset 6, -16
	movq	%rsp, %rbp
	.seh_setframe	%rbp, 0
	.cfi_def_cfa_register 6
	.seh_endprologue
	movq	%rcx, 16(%rbp)
	movl	%edx, 24(%rbp)
	movl	%r8d, 32(%rbp)
	.loc 1 34 0
	movq	16(%rbp), %rax
	movl	8(%rax), %eax
	imull	32(%rbp), %eax
	movl	%eax, %edx
	movl	24(%rbp), %eax
	addl	%edx, %eax
	.loc 1 35 0
	popq	%rbp
	.cfi_restore 6
	.cfi_def_cfa 7, 8
	ret
	.cfi_endproc
.LFE248:
	.seh_endproc
	.section .rdata,"dr"
_ZStL19piecewise_construct:
	.space 1
	.section	.text$_ZN3box14getFramebufferEv,"x"
	.linkonce discard
	.align 2
	.globl	_ZN3box14getFramebufferEv
	.def	_ZN3box14getFramebufferEv;	.scl	2;	.type	32;	.endef
	.seh_proc	_ZN3box14getFramebufferEv
_ZN3box14getFramebufferEv:
.LFB1263:
	.file 2 "box.h"
	.loc 2 181 0
	.cfi_startproc
	pushq	%rbp
	.seh_pushreg	%rbp
	.cfi_def_cfa_offset 16
	.cfi_offset 6, -16
	movq	%rsp, %rbp
	.seh_setframe	%rbp, 0
	.cfi_def_cfa_register 6
	.seh_endprologue
	movq	%rcx, 16(%rbp)
	.loc 2 181 0
	movq	16(%rbp), %rax
	movq	40(%rax), %rax
	popq	%rbp
	.cfi_restore 6
	.cfi_def_cfa 7, 8
	ret
	.cfi_endproc
.LFE1263:
	.seh_endproc
	.section	.text$_ZN13agarioGameMap10getMapSizeEv,"x"
	.linkonce discard
	.align 2
	.globl	_ZN13agarioGameMap10getMapSizeEv
	.def	_ZN13agarioGameMap10getMapSizeEv;	.scl	2;	.type	32;	.endef
	.seh_proc	_ZN13agarioGameMap10getMapSizeEv
_ZN13agarioGameMap10getMapSizeEv:
.LFB1268:
	.file 3 "agarioGameMap.h"
	.loc 3 7 0
	.cfi_startproc
	pushq	%rbp
	.seh_pushreg	%rbp
	.cfi_def_cfa_offset 16
	.cfi_offset 6, -16
	movq	%rsp, %rbp
	.seh_setframe	%rbp, 0
	.cfi_def_cfa_register 6
	.seh_endprologue
	movq	%rcx, 16(%rbp)
	.loc 3 7 0
	movq	16(%rbp), %rax
	movl	(%rax), %eax
	popq	%rbp
	.cfi_restore 6
	.cfi_def_cfa 7, 8
	ret
	.cfi_endproc
.LFE1268:
	.seh_endproc
.lcomm _ZStL8__ioinit,1,1
	.section	.text$_ZN9rigidbody8degtoradEf,"x"
	.linkonce discard
	.globl	_ZN9rigidbody8degtoradEf
	.def	_ZN9rigidbody8degtoradEf;	.scl	2;	.type	32;	.endef
	.seh_proc	_ZN9rigidbody8degtoradEf
_ZN9rigidbody8degtoradEf:
.LFB6197:
	.file 4 "rigidbody.h"
	.loc 4 74 0
	.cfi_startproc
	pushq	%rbp
	.seh_pushreg	%rbp
	.cfi_def_cfa_offset 16
	.cfi_offset 6, -16
	movq	%rsp, %rbp
	.seh_setframe	%rbp, 0
	.cfi_def_cfa_register 6
	.seh_endprologue
	movss	%xmm0, 16(%rbp)
	.loc 4 74 0
	movss	16(%rbp), %xmm1
	movss	.LC0(%rip), %xmm0
	mulss	%xmm1, %xmm0
	movss	.LC1(%rip), %xmm1
	divss	%xmm1, %xmm0
	popq	%rbp
	.cfi_restore 6
	.cfi_def_cfa 7, 8
	ret
	.cfi_endproc
.LFE6197:
	.seh_endproc
	.section	.text$_ZN10gamecamera11framebufferEv,"x"
	.linkonce discard
	.align 2
	.globl	_ZN10gamecamera11framebufferEv
	.def	_ZN10gamecamera11framebufferEv;	.scl	2;	.type	32;	.endef
	.seh_proc	_ZN10gamecamera11framebufferEv
_ZN10gamecamera11framebufferEv:
.LFB6210:
	.file 5 "gamecamera.h"
	.loc 5 29 0
	.cfi_startproc
	pushq	%rbp
	.seh_pushreg	%rbp
	.cfi_def_cfa_offset 16
	.cfi_offset 6, -16
	movq	%rsp, %rbp
	.seh_setframe	%rbp, 0
	.cfi_def_cfa_register 6
	subq	$32, %rsp
	.seh_stackalloc	32
	.seh_endprologue
	movq	%rcx, 16(%rbp)
	.loc 5 29 0
	movq	16(%rbp), %rax
	movq	(%rax), %rax
	movq	%rax, %rcx
	call	_ZN3box14getFramebufferEv
	addq	$32, %rsp
	popq	%rbp
	.cfi_restore 6
	.cfi_def_cfa 7, 8
	ret
	.cfi_endproc
.LFE6210:
	.seh_endproc
	.section	.text$_ZN10gamecamera3getEii,"x"
	.linkonce discard
	.align 2
	.globl	_ZN10gamecamera3getEii
	.def	_ZN10gamecamera3getEii;	.scl	2;	.type	32;	.endef
	.seh_proc	_ZN10gamecamera3getEii
_ZN10gamecamera3getEii:
.LFB6211:
	.loc 5 30 0
	.cfi_startproc
	pushq	%rbp
	.seh_pushreg	%rbp
	.cfi_def_cfa_offset 16
	.cfi_offset 6, -16
	movq	%rsp, %rbp
	.seh_setframe	%rbp, 0
	.cfi_def_cfa_register 6
	subq	$32, %rsp
	.seh_stackalloc	32
	.seh_endprologue
	movq	%rcx, 16(%rbp)
	movl	%edx, 24(%rbp)
	movl	%r8d, 32(%rbp)
	.loc 5 30 0
	movq	16(%rbp), %rax
	movq	(%rax), %rax
	movq	%rax, %rcx
	movl	32(%rbp), %edx
	movl	24(%rbp), %eax
	movl	%edx, %r8d
	movl	%eax, %edx
	call	_ZN7boxsize3getEii
	addq	$32, %rsp
	popq	%rbp
	.cfi_restore 6
	.cfi_def_cfa 7, 8
	ret
	.cfi_endproc
.LFE6211:
	.seh_endproc
	.text
	.align 2
	.globl	_ZN9playerOrbC2ER10gamecameraR13agarioGameMapR10agarioGame
	.def	_ZN9playerOrbC2ER10gamecameraR13agarioGameMapR10agarioGame;	.scl	2;	.type	32;	.endef
	.seh_proc	_ZN9playerOrbC2ER10gamecameraR13agarioGameMapR10agarioGame
_ZN9playerOrbC2ER10gamecameraR13agarioGameMapR10agarioGame:
.LFB6213:
	.file 6 "playerOrb.cpp"
	.loc 6 12 0
	.cfi_startproc
	pushq	%rbp
	.seh_pushreg	%rbp
	.cfi_def_cfa_offset 16
	.cfi_offset 6, -16
	movq	%rsp, %rbp
	.seh_setframe	%rbp, 0
	.cfi_def_cfa_register 6
	.seh_endprologue
	movq	%rcx, 16(%rbp)
	movq	%rdx, 24(%rbp)
	movq	%r8, 32(%rbp)
	movq	%r9, 40(%rbp)
.LBB2:
	.loc 6 14 0
	movq	16(%rbp), %rax
	movq	24(%rbp), %rdx
	movq	%rdx, 16(%rax)
	.loc 6 15 0
	movq	16(%rbp), %rax
	movq	32(%rbp), %rdx
	movq	%rdx, 24(%rax)
	.loc 6 16 0
	movq	16(%rbp), %rax
	movq	40(%rbp), %rdx
	movq	%rdx, 32(%rax)
	.loc 6 17 0
	movq	16(%rbp), %rax
	pxor	%xmm0, %xmm0
	movss	%xmm0, (%rax)
	.loc 6 18 0
	movq	16(%rbp), %rax
	pxor	%xmm0, %xmm0
	movss	%xmm0, 4(%rax)
	.loc 6 19 0
	movq	16(%rbp), %rax
	movss	.LC3(%rip), %xmm0
	movss	%xmm0, 8(%rax)
	.loc 6 20 0
	movq	16(%rbp), %rax
	pxor	%xmm0, %xmm0
	movss	%xmm0, 12(%rax)
.LBE2:
	.loc 6 21 0
	nop
	popq	%rbp
	.cfi_restore 6
	.cfi_def_cfa 7, 8
	ret
	.cfi_endproc
.LFE6213:
	.seh_endproc
	.globl	_ZN9playerOrbC1ER10gamecameraR13agarioGameMapR10agarioGame
	.def	_ZN9playerOrbC1ER10gamecameraR13agarioGameMapR10agarioGame;	.scl	2;	.type	32;	.endef
	.set	_ZN9playerOrbC1ER10gamecameraR13agarioGameMapR10agarioGame,_ZN9playerOrbC2ER10gamecameraR13agarioGameMapR10agarioGame
	.align 2
	.globl	_ZN9playerOrbC2Ev
	.def	_ZN9playerOrbC2Ev;	.scl	2;	.type	32;	.endef
	.seh_proc	_ZN9playerOrbC2Ev
_ZN9playerOrbC2Ev:
.LFB6216:
	.loc 6 23 0
	.cfi_startproc
	pushq	%rbp
	.seh_pushreg	%rbp
	.cfi_def_cfa_offset 16
	.cfi_offset 6, -16
	movq	%rsp, %rbp
	.seh_setframe	%rbp, 0
	.cfi_def_cfa_register 6
	.seh_endprologue
	movq	%rcx, 16(%rbp)
	.loc 6 25 0
	nop
	popq	%rbp
	.cfi_restore 6
	.cfi_def_cfa 7, 8
	ret
	.cfi_endproc
.LFE6216:
	.seh_endproc
	.globl	_ZN9playerOrbC1Ev
	.def	_ZN9playerOrbC1Ev;	.scl	2;	.type	32;	.endef
	.set	_ZN9playerOrbC1Ev,_ZN9playerOrbC2Ev
	.align 2
	.globl	_ZN9playerOrbD2Ev
	.def	_ZN9playerOrbD2Ev;	.scl	2;	.type	32;	.endef
	.seh_proc	_ZN9playerOrbD2Ev
_ZN9playerOrbD2Ev:
.LFB6219:
	.loc 6 27 0
	.cfi_startproc
	pushq	%rbp
	.seh_pushreg	%rbp
	.cfi_def_cfa_offset 16
	.cfi_offset 6, -16
	movq	%rsp, %rbp
	.seh_setframe	%rbp, 0
	.cfi_def_cfa_register 6
	.seh_endprologue
	movq	%rcx, 16(%rbp)
	.loc 6 29 0
	nop
	popq	%rbp
	.cfi_restore 6
	.cfi_def_cfa 7, 8
	ret
	.cfi_endproc
.LFE6219:
	.seh_endproc
	.globl	_ZN9playerOrbD1Ev
	.def	_ZN9playerOrbD1Ev;	.scl	2;	.type	32;	.endef
	.set	_ZN9playerOrbD1Ev,_ZN9playerOrbD2Ev
	.align 2
	.globl	_ZN9playerOrb9getRadiusEf
	.def	_ZN9playerOrb9getRadiusEf;	.scl	2;	.type	32;	.endef
	.seh_proc	_ZN9playerOrb9getRadiusEf
_ZN9playerOrb9getRadiusEf:
.LFB6221:
	.loc 6 32 0
	.cfi_startproc
	pushq	%rbp
	.seh_pushreg	%rbp
	.cfi_def_cfa_offset 16
	.cfi_offset 6, -16
	movq	%rsp, %rbp
	.seh_setframe	%rbp, 0
	.cfi_def_cfa_register 6
	subq	$32, %rsp
	.seh_stackalloc	32
	.seh_endprologue
	movq	%rcx, 16(%rbp)
	movss	%xmm1, 24(%rbp)
	.loc 6 33 0
	movss	24(%rbp), %xmm0
	movaps	%xmm0, %xmm1
	movq	16(%rbp), %rcx
	call	_ZN9playerOrb11getDiameterEf
	movaps	%xmm0, %xmm1
	movss	.LC4(%rip), %xmm0
	divss	%xmm0, %xmm1
	movaps	%xmm1, %xmm0
	.loc 6 34 0
	addq	$32, %rsp
	popq	%rbp
	.cfi_restore 6
	.cfi_def_cfa 7, 8
	ret
	.cfi_endproc
.LFE6221:
	.seh_endproc
	.align 2
	.globl	_ZN9playerOrb9getRadiusEv
	.def	_ZN9playerOrb9getRadiusEv;	.scl	2;	.type	32;	.endef
	.seh_proc	_ZN9playerOrb9getRadiusEv
_ZN9playerOrb9getRadiusEv:
.LFB6222:
	.loc 6 37 0
	.cfi_startproc
	pushq	%rbp
	.seh_pushreg	%rbp
	.cfi_def_cfa_offset 16
	.cfi_offset 6, -16
	movq	%rsp, %rbp
	.seh_setframe	%rbp, 0
	.cfi_def_cfa_register 6
	subq	$32, %rsp
	.seh_stackalloc	32
	.seh_endprologue
	movq	%rcx, 16(%rbp)
	.loc 6 38 0
	movq	16(%rbp), %rcx
	call	_ZN9playerOrb11getDiameterEv
	movaps	%xmm0, %xmm1
	movss	.LC4(%rip), %xmm0
	divss	%xmm0, %xmm1
	movaps	%xmm1, %xmm0
	.loc 6 39 0
	addq	$32, %rsp
	popq	%rbp
	.cfi_restore 6
	.cfi_def_cfa 7, 8
	ret
	.cfi_endproc
.LFE6222:
	.seh_endproc
	.align 2
	.globl	_ZN9playerOrb11getDiameterEf
	.def	_ZN9playerOrb11getDiameterEf;	.scl	2;	.type	32;	.endef
	.seh_proc	_ZN9playerOrb11getDiameterEf
_ZN9playerOrb11getDiameterEf:
.LFB6223:
	.loc 6 42 0
	.cfi_startproc
	pushq	%rbp
	.seh_pushreg	%rbp
	.cfi_def_cfa_offset 16
	.cfi_offset 6, -16
	movq	%rsp, %rbp
	.seh_setframe	%rbp, 0
	.cfi_def_cfa_register 6
	.seh_endprologue
	movq	%rcx, 16(%rbp)
	movss	%xmm1, 24(%rbp)
	.loc 6 43 0
	movq	16(%rbp), %rax
	movss	8(%rax), %xmm0
	movss	.LC0(%rip), %xmm1
	divss	%xmm1, %xmm0
	divss	24(%rbp), %xmm0
	.loc 6 44 0
	popq	%rbp
	.cfi_restore 6
	.cfi_def_cfa 7, 8
	ret
	.cfi_endproc
.LFE6223:
	.seh_endproc
	.align 2
	.globl	_ZN9playerOrb11getDiameterEv
	.def	_ZN9playerOrb11getDiameterEv;	.scl	2;	.type	32;	.endef
	.seh_proc	_ZN9playerOrb11getDiameterEv
_ZN9playerOrb11getDiameterEv:
.LFB6224:
	.loc 6 47 0
	.cfi_startproc
	pushq	%rbp
	.seh_pushreg	%rbp
	.cfi_def_cfa_offset 16
	.cfi_offset 6, -16
	movq	%rsp, %rbp
	.seh_setframe	%rbp, 0
	.cfi_def_cfa_register 6
	.seh_endprologue
	movq	%rcx, 16(%rbp)
	.loc 6 48 0
	movq	16(%rbp), %rax
	movss	8(%rax), %xmm0
	movss	.LC0(%rip), %xmm1
	divss	%xmm1, %xmm0
	.loc 6 49 0
	popq	%rbp
	.cfi_restore 6
	.cfi_def_cfa 7, 8
	ret
	.cfi_endproc
.LFE6224:
	.seh_endproc
	.align 2
	.globl	_ZN9playerOrb7centerXEv
	.def	_ZN9playerOrb7centerXEv;	.scl	2;	.type	32;	.endef
	.seh_proc	_ZN9playerOrb7centerXEv
_ZN9playerOrb7centerXEv:
.LFB6225:
	.loc 6 52 0
	.cfi_startproc
	pushq	%rbp
	.seh_pushreg	%rbp
	.cfi_def_cfa_offset 16
	.cfi_offset 6, -16
	movq	%rsp, %rbp
	.seh_setframe	%rbp, 0
	.cfi_def_cfa_register 6
	subq	$48, %rsp
	.seh_stackalloc	48
	movaps	%xmm6, -16(%rbp)
	.seh_savexmm	%xmm6, 32
	.cfi_offset 23, -32
	.seh_endprologue
	movq	%rcx, 16(%rbp)
	.loc 6 53 0
	movq	16(%rbp), %rax
	movss	(%rax), %xmm6
	movq	16(%rbp), %rcx
	call	_ZN9playerOrb9getRadiusEv
	addss	%xmm6, %xmm0
	.loc 6 54 0
	movaps	-16(%rbp), %xmm6
	addq	$48, %rsp
	.cfi_restore 23
	popq	%rbp
	.cfi_restore 6
	.cfi_def_cfa 7, 8
	ret
	.cfi_endproc
.LFE6225:
	.seh_endproc
	.align 2
	.globl	_ZN9playerOrb7centerYEv
	.def	_ZN9playerOrb7centerYEv;	.scl	2;	.type	32;	.endef
	.seh_proc	_ZN9playerOrb7centerYEv
_ZN9playerOrb7centerYEv:
.LFB6226:
	.loc 6 57 0
	.cfi_startproc
	pushq	%rbp
	.seh_pushreg	%rbp
	.cfi_def_cfa_offset 16
	.cfi_offset 6, -16
	movq	%rsp, %rbp
	.seh_setframe	%rbp, 0
	.cfi_def_cfa_register 6
	subq	$48, %rsp
	.seh_stackalloc	48
	movaps	%xmm6, -16(%rbp)
	.seh_savexmm	%xmm6, 32
	.cfi_offset 23, -32
	.seh_endprologue
	movq	%rcx, 16(%rbp)
	.loc 6 58 0
	movq	16(%rbp), %rax
	movss	4(%rax), %xmm6
	movq	16(%rbp), %rcx
	call	_ZN9playerOrb9getRadiusEv
	addss	%xmm6, %xmm0
	.loc 6 59 0
	movaps	-16(%rbp), %xmm6
	addq	$48, %rsp
	.cfi_restore 23
	popq	%rbp
	.cfi_restore 6
	.cfi_def_cfa 7, 8
	ret
	.cfi_endproc
.LFE6226:
	.seh_endproc
	.align 2
	.globl	_ZN9playerOrb7centerXEf
	.def	_ZN9playerOrb7centerXEf;	.scl	2;	.type	32;	.endef
	.seh_proc	_ZN9playerOrb7centerXEf
_ZN9playerOrb7centerXEf:
.LFB6227:
	.loc 6 62 0
	.cfi_startproc
	pushq	%rbp
	.seh_pushreg	%rbp
	.cfi_def_cfa_offset 16
	.cfi_offset 6, -16
	movq	%rsp, %rbp
	.seh_setframe	%rbp, 0
	.cfi_def_cfa_register 6
	subq	$32, %rsp
	.seh_stackalloc	32
	.seh_endprologue
	movq	%rcx, 16(%rbp)
	movss	%xmm1, 24(%rbp)
	.loc 6 63 0
	movq	16(%rbp), %rcx
	call	_ZN9playerOrb7centerXEv
	divss	24(%rbp), %xmm0
	.loc 6 64 0
	addq	$32, %rsp
	popq	%rbp
	.cfi_restore 6
	.cfi_def_cfa 7, 8
	ret
	.cfi_endproc
.LFE6227:
	.seh_endproc
	.align 2
	.globl	_ZN9playerOrb7centerYEf
	.def	_ZN9playerOrb7centerYEf;	.scl	2;	.type	32;	.endef
	.seh_proc	_ZN9playerOrb7centerYEf
_ZN9playerOrb7centerYEf:
.LFB6228:
	.loc 6 67 0
	.cfi_startproc
	pushq	%rbp
	.seh_pushreg	%rbp
	.cfi_def_cfa_offset 16
	.cfi_offset 6, -16
	movq	%rsp, %rbp
	.seh_setframe	%rbp, 0
	.cfi_def_cfa_register 6
	subq	$32, %rsp
	.seh_stackalloc	32
	.seh_endprologue
	movq	%rcx, 16(%rbp)
	movss	%xmm1, 24(%rbp)
	.loc 6 68 0
	movq	16(%rbp), %rcx
	call	_ZN9playerOrb7centerYEv
	divss	24(%rbp), %xmm0
	.loc 6 69 0
	addq	$32, %rsp
	popq	%rbp
	.cfi_restore 6
	.cfi_def_cfa 7, 8
	ret
	.cfi_endproc
.LFE6228:
	.seh_endproc
	.align 2
	.globl	_ZN9playerOrb4maxXEv
	.def	_ZN9playerOrb4maxXEv;	.scl	2;	.type	32;	.endef
	.seh_proc	_ZN9playerOrb4maxXEv
_ZN9playerOrb4maxXEv:
.LFB6229:
	.loc 6 72 0
	.cfi_startproc
	pushq	%rbp
	.seh_pushreg	%rbp
	.cfi_def_cfa_offset 16
	.cfi_offset 6, -16
	movq	%rsp, %rbp
	.seh_setframe	%rbp, 0
	.cfi_def_cfa_register 6
	subq	$48, %rsp
	.seh_stackalloc	48
	movaps	%xmm6, -16(%rbp)
	.seh_savexmm	%xmm6, 32
	.cfi_offset 23, -32
	.seh_endprologue
	movq	%rcx, 16(%rbp)
	.loc 6 73 0
	movq	16(%rbp), %rax
	movss	(%rax), %xmm6
	movq	16(%rbp), %rcx
	call	_ZN9playerOrb11getDiameterEv
	addss	%xmm6, %xmm0
	.loc 6 74 0
	movaps	-16(%rbp), %xmm6
	addq	$48, %rsp
	.cfi_restore 23
	popq	%rbp
	.cfi_restore 6
	.cfi_def_cfa 7, 8
	ret
	.cfi_endproc
.LFE6229:
	.seh_endproc
	.align 2
	.globl	_ZN9playerOrb4maxYEv
	.def	_ZN9playerOrb4maxYEv;	.scl	2;	.type	32;	.endef
	.seh_proc	_ZN9playerOrb4maxYEv
_ZN9playerOrb4maxYEv:
.LFB6230:
	.loc 6 77 0
	.cfi_startproc
	pushq	%rbp
	.seh_pushreg	%rbp
	.cfi_def_cfa_offset 16
	.cfi_offset 6, -16
	movq	%rsp, %rbp
	.seh_setframe	%rbp, 0
	.cfi_def_cfa_register 6
	subq	$48, %rsp
	.seh_stackalloc	48
	movaps	%xmm6, -16(%rbp)
	.seh_savexmm	%xmm6, 32
	.cfi_offset 23, -32
	.seh_endprologue
	movq	%rcx, 16(%rbp)
	.loc 6 78 0
	movq	16(%rbp), %rax
	movss	4(%rax), %xmm6
	movq	16(%rbp), %rcx
	call	_ZN9playerOrb11getDiameterEv
	addss	%xmm6, %xmm0
	.loc 6 79 0
	movaps	-16(%rbp), %xmm6
	addq	$48, %rsp
	.cfi_restore 23
	popq	%rbp
	.cfi_restore 6
	.cfi_def_cfa 7, 8
	ret
	.cfi_endproc
.LFE6230:
	.seh_endproc
	.align 2
	.globl	_ZN9playerOrb4minXEv
	.def	_ZN9playerOrb4minXEv;	.scl	2;	.type	32;	.endef
	.seh_proc	_ZN9playerOrb4minXEv
_ZN9playerOrb4minXEv:
.LFB6231:
	.loc 6 82 0
	.cfi_startproc
	pushq	%rbp
	.seh_pushreg	%rbp
	.cfi_def_cfa_offset 16
	.cfi_offset 6, -16
	movq	%rsp, %rbp
	.seh_setframe	%rbp, 0
	.cfi_def_cfa_register 6
	.seh_endprologue
	movq	%rcx, 16(%rbp)
	.loc 6 83 0
	movq	16(%rbp), %rax
	movss	(%rax), %xmm0
	.loc 6 84 0
	popq	%rbp
	.cfi_restore 6
	.cfi_def_cfa 7, 8
	ret
	.cfi_endproc
.LFE6231:
	.seh_endproc
	.align 2
	.globl	_ZN9playerOrb4minYEv
	.def	_ZN9playerOrb4minYEv;	.scl	2;	.type	32;	.endef
	.seh_proc	_ZN9playerOrb4minYEv
_ZN9playerOrb4minYEv:
.LFB6232:
	.loc 6 87 0
	.cfi_startproc
	pushq	%rbp
	.seh_pushreg	%rbp
	.cfi_def_cfa_offset 16
	.cfi_offset 6, -16
	movq	%rsp, %rbp
	.seh_setframe	%rbp, 0
	.cfi_def_cfa_register 6
	.seh_endprologue
	movq	%rcx, 16(%rbp)
	.loc 6 88 0
	movq	16(%rbp), %rax
	movss	4(%rax), %xmm0
	.loc 6 89 0
	popq	%rbp
	.cfi_restore 6
	.cfi_def_cfa 7, 8
	ret
	.cfi_endproc
.LFE6232:
	.seh_endproc
	.align 2
	.globl	_ZN9playerOrb12getDrawScaleEv
	.def	_ZN9playerOrb12getDrawScaleEv;	.scl	2;	.type	32;	.endef
	.seh_proc	_ZN9playerOrb12getDrawScaleEv
_ZN9playerOrb12getDrawScaleEv:
.LFB6233:
	.loc 6 92 0
	.cfi_startproc
	pushq	%rbp
	.seh_pushreg	%rbp
	.cfi_def_cfa_offset 16
	.cfi_offset 6, -16
	movq	%rsp, %rbp
	.seh_setframe	%rbp, 0
	.cfi_def_cfa_register 6
	subq	$48, %rsp
	.seh_stackalloc	48
	.seh_endprologue
	movq	%rcx, 16(%rbp)
	.loc 6 93 0
	movq	16(%rbp), %rax
	movq	16(%rax), %rax
	movq	%rax, %rcx
	call	_ZN10gamecamera6radiusEv
	movd	%xmm0, %eax
	movl	%eax, -4(%rbp)
	.loc 6 94 0
	movq	16(%rbp), %rax
	movss	8(%rax), %xmm1
	movss	-4(%rbp), %xmm0
	divss	%xmm1, %xmm0
	.loc 6 95 0
	addq	$48, %rsp
	popq	%rbp
	.cfi_restore 6
	.cfi_def_cfa 7, 8
	ret
	.cfi_endproc
.LFE6233:
	.seh_endproc
	.align 2
	.globl	_ZN9playerOrb9setCenterEff
	.def	_ZN9playerOrb9setCenterEff;	.scl	2;	.type	32;	.endef
	.seh_proc	_ZN9playerOrb9setCenterEff
_ZN9playerOrb9setCenterEff:
.LFB6234:
	.loc 6 98 0
	.cfi_startproc
	pushq	%rbp
	.seh_pushreg	%rbp
	.cfi_def_cfa_offset 16
	.cfi_offset 6, -16
	movq	%rsp, %rbp
	.seh_setframe	%rbp, 0
	.cfi_def_cfa_register 6
	subq	$32, %rsp
	.seh_stackalloc	32
	.seh_endprologue
	movq	%rcx, 16(%rbp)
	movss	%xmm1, 24(%rbp)
	movss	%xmm2, 32(%rbp)
	.loc 6 99 0
	movss	32(%rbp), %xmm1
	movss	24(%rbp), %xmm0
	movaps	%xmm1, %xmm2
	movaps	%xmm0, %xmm1
	movq	16(%rbp), %rcx
	call	_ZN9playerOrb8inBoundsEff
	testb	%al, %al
	je	.L44
	.loc 6 100 0
	movq	16(%rbp), %rcx
	call	_ZN9playerOrb9getRadiusEv
	movaps	%xmm0, %xmm1
	movss	24(%rbp), %xmm0
	subss	%xmm1, %xmm0
	movq	16(%rbp), %rax
	movss	%xmm0, (%rax)
	.loc 6 101 0
	movq	16(%rbp), %rcx
	call	_ZN9playerOrb9getRadiusEv
	movaps	%xmm0, %xmm1
	movss	32(%rbp), %xmm0
	subss	%xmm1, %xmm0
	movq	16(%rbp), %rax
	movss	%xmm0, 4(%rax)
.L44:
	.loc 6 103 0
	nop
	addq	$32, %rsp
	popq	%rbp
	.cfi_restore 6
	.cfi_def_cfa 7, 8
	ret
	.cfi_endproc
.LFE6234:
	.seh_endproc
	.align 2
	.globl	_ZN9playerOrb9setCenterEii
	.def	_ZN9playerOrb9setCenterEii;	.scl	2;	.type	32;	.endef
	.seh_proc	_ZN9playerOrb9setCenterEii
_ZN9playerOrb9setCenterEii:
.LFB6235:
	.loc 6 106 0
	.cfi_startproc
	pushq	%rbp
	.seh_pushreg	%rbp
	.cfi_def_cfa_offset 16
	.cfi_offset 6, -16
	movq	%rsp, %rbp
	.seh_setframe	%rbp, 0
	.cfi_def_cfa_register 6
	subq	$48, %rsp
	.seh_stackalloc	48
	movaps	%xmm6, -16(%rbp)
	.seh_savexmm	%xmm6, 32
	.cfi_offset 23, -32
	.seh_endprologue
	movq	%rcx, 16(%rbp)
	movl	%edx, 24(%rbp)
	movl	%r8d, 32(%rbp)
	.loc 6 107 0
	cvtsi2ss	32(%rbp), %xmm1
	cvtsi2ss	24(%rbp), %xmm0
	movaps	%xmm1, %xmm2
	movaps	%xmm0, %xmm1
	movq	16(%rbp), %rcx
	call	_ZN9playerOrb8inBoundsEff
	testb	%al, %al
	je	.L47
	.loc 6 108 0
	cvtsi2ss	24(%rbp), %xmm6
	movq	16(%rbp), %rcx
	call	_ZN9playerOrb9getRadiusEv
	subss	%xmm0, %xmm6
	movaps	%xmm6, %xmm0
	movq	16(%rbp), %rax
	movss	%xmm0, (%rax)
	.loc 6 109 0
	cvtsi2ss	32(%rbp), %xmm6
	movq	16(%rbp), %rcx
	call	_ZN9playerOrb9getRadiusEv
	subss	%xmm0, %xmm6
	movaps	%xmm6, %xmm0
	movq	16(%rbp), %rax
	movss	%xmm0, 4(%rax)
.L47:
	.loc 6 111 0
	nop
	movaps	-16(%rbp), %xmm6
	addq	$48, %rsp
	.cfi_restore 23
	popq	%rbp
	.cfi_restore 6
	.cfi_def_cfa 7, 8
	ret
	.cfi_endproc
.LFE6235:
	.seh_endproc
	.align 2
	.globl	_ZN9playerOrb10setCenterXEi
	.def	_ZN9playerOrb10setCenterXEi;	.scl	2;	.type	32;	.endef
	.seh_proc	_ZN9playerOrb10setCenterXEi
_ZN9playerOrb10setCenterXEi:
.LFB6236:
	.loc 6 114 0
	.cfi_startproc
	pushq	%rbp
	.seh_pushreg	%rbp
	.cfi_def_cfa_offset 16
	.cfi_offset 6, -16
	movq	%rsp, %rbp
	.seh_setframe	%rbp, 0
	.cfi_def_cfa_register 6
	subq	$48, %rsp
	.seh_stackalloc	48
	movaps	%xmm6, -16(%rbp)
	.seh_savexmm	%xmm6, 32
	.cfi_offset 23, -32
	.seh_endprologue
	movq	%rcx, 16(%rbp)
	movl	%edx, 24(%rbp)
	.loc 6 115 0
	movq	16(%rbp), %rcx
	call	_ZN9playerOrb7centerYEv
	movaps	%xmm0, %xmm1
	cvtsi2ss	24(%rbp), %xmm0
	movaps	%xmm1, %xmm2
	movaps	%xmm0, %xmm1
	movq	16(%rbp), %rcx
	call	_ZN9playerOrb8inBoundsEff
	testb	%al, %al
	je	.L50
	.loc 6 116 0
	cvtsi2ss	24(%rbp), %xmm6
	movq	16(%rbp), %rcx
	call	_ZN9playerOrb9getRadiusEv
	subss	%xmm0, %xmm6
	movaps	%xmm6, %xmm0
	movq	16(%rbp), %rax
	movss	%xmm0, (%rax)
.L50:
	.loc 6 118 0
	nop
	movaps	-16(%rbp), %xmm6
	addq	$48, %rsp
	.cfi_restore 23
	popq	%rbp
	.cfi_restore 6
	.cfi_def_cfa 7, 8
	ret
	.cfi_endproc
.LFE6236:
	.seh_endproc
	.align 2
	.globl	_ZN9playerOrb10setCenterXEf
	.def	_ZN9playerOrb10setCenterXEf;	.scl	2;	.type	32;	.endef
	.seh_proc	_ZN9playerOrb10setCenterXEf
_ZN9playerOrb10setCenterXEf:
.LFB6237:
	.loc 6 121 0
	.cfi_startproc
	pushq	%rbp
	.seh_pushreg	%rbp
	.cfi_def_cfa_offset 16
	.cfi_offset 6, -16
	movq	%rsp, %rbp
	.seh_setframe	%rbp, 0
	.cfi_def_cfa_register 6
	subq	$32, %rsp
	.seh_stackalloc	32
	.seh_endprologue
	movq	%rcx, 16(%rbp)
	movss	%xmm1, 24(%rbp)
	.loc 6 122 0
	movq	16(%rbp), %rcx
	call	_ZN9playerOrb7centerYEv
	movaps	%xmm0, %xmm1
	movss	24(%rbp), %xmm0
	movaps	%xmm1, %xmm2
	movaps	%xmm0, %xmm1
	movq	16(%rbp), %rcx
	call	_ZN9playerOrb8inBoundsEff
	testb	%al, %al
	je	.L53
	.loc 6 123 0
	movq	16(%rbp), %rcx
	call	_ZN9playerOrb9getRadiusEv
	movaps	%xmm0, %xmm1
	movss	24(%rbp), %xmm0
	subss	%xmm1, %xmm0
	movq	16(%rbp), %rax
	movss	%xmm0, (%rax)
.L53:
	.loc 6 125 0
	nop
	addq	$32, %rsp
	popq	%rbp
	.cfi_restore 6
	.cfi_def_cfa 7, 8
	ret
	.cfi_endproc
.LFE6237:
	.seh_endproc
	.align 2
	.globl	_ZN9playerOrb10setCenterYEi
	.def	_ZN9playerOrb10setCenterYEi;	.scl	2;	.type	32;	.endef
	.seh_proc	_ZN9playerOrb10setCenterYEi
_ZN9playerOrb10setCenterYEi:
.LFB6238:
	.loc 6 128 0
	.cfi_startproc
	pushq	%rbp
	.seh_pushreg	%rbp
	.cfi_def_cfa_offset 16
	.cfi_offset 6, -16
	movq	%rsp, %rbp
	.seh_setframe	%rbp, 0
	.cfi_def_cfa_register 6
	subq	$48, %rsp
	.seh_stackalloc	48
	movaps	%xmm6, -16(%rbp)
	.seh_savexmm	%xmm6, 32
	.cfi_offset 23, -32
	.seh_endprologue
	movq	%rcx, 16(%rbp)
	movl	%edx, 24(%rbp)
	.loc 6 129 0
	cvtsi2ss	24(%rbp), %xmm6
	movq	16(%rbp), %rcx
	call	_ZN9playerOrb7centerXEv
	movaps	%xmm6, %xmm2
	movaps	%xmm0, %xmm1
	movq	16(%rbp), %rcx
	call	_ZN9playerOrb8inBoundsEff
	testb	%al, %al
	je	.L56
	.loc 6 130 0
	cvtsi2ss	24(%rbp), %xmm6
	movq	16(%rbp), %rcx
	call	_ZN9playerOrb9getRadiusEv
	subss	%xmm0, %xmm6
	movaps	%xmm6, %xmm0
	movq	16(%rbp), %rax
	movss	%xmm0, 4(%rax)
.L56:
	.loc 6 132 0
	nop
	movaps	-16(%rbp), %xmm6
	addq	$48, %rsp
	.cfi_restore 23
	popq	%rbp
	.cfi_restore 6
	.cfi_def_cfa 7, 8
	ret
	.cfi_endproc
.LFE6238:
	.seh_endproc
	.align 2
	.globl	_ZN9playerOrb10setCenterYEf
	.def	_ZN9playerOrb10setCenterYEf;	.scl	2;	.type	32;	.endef
	.seh_proc	_ZN9playerOrb10setCenterYEf
_ZN9playerOrb10setCenterYEf:
.LFB6239:
	.loc 6 135 0
	.cfi_startproc
	pushq	%rbp
	.seh_pushreg	%rbp
	.cfi_def_cfa_offset 16
	.cfi_offset 6, -16
	movq	%rsp, %rbp
	.seh_setframe	%rbp, 0
	.cfi_def_cfa_register 6
	subq	$32, %rsp
	.seh_stackalloc	32
	.seh_endprologue
	movq	%rcx, 16(%rbp)
	movss	%xmm1, 24(%rbp)
	.loc 6 136 0
	movq	16(%rbp), %rcx
	call	_ZN9playerOrb7centerXEv
	movaps	%xmm0, %xmm1
	movss	24(%rbp), %xmm0
	movaps	%xmm0, %xmm2
	movq	16(%rbp), %rcx
	call	_ZN9playerOrb8inBoundsEff
	testb	%al, %al
	je	.L59
	.loc 6 137 0
	movq	16(%rbp), %rcx
	call	_ZN9playerOrb9getRadiusEv
	movaps	%xmm0, %xmm1
	movss	24(%rbp), %xmm0
	subss	%xmm1, %xmm0
	movq	16(%rbp), %rax
	movss	%xmm0, 4(%rax)
.L59:
	.loc 6 139 0
	nop
	addq	$32, %rsp
	popq	%rbp
	.cfi_restore 6
	.cfi_def_cfa 7, 8
	ret
	.cfi_endproc
.LFE6239:
	.seh_endproc
	.align 2
	.globl	_ZN9playerOrb6updateEf
	.def	_ZN9playerOrb6updateEf;	.scl	2;	.type	32;	.endef
	.seh_proc	_ZN9playerOrb6updateEf
_ZN9playerOrb6updateEf:
.LFB6240:
	.loc 6 142 0
	.cfi_startproc
	pushq	%rbp
	.seh_pushreg	%rbp
	.cfi_def_cfa_offset 16
	.cfi_offset 6, -16
	movq	%rsp, %rbp
	.seh_setframe	%rbp, 0
	.cfi_def_cfa_register 6
	subq	$80, %rsp
	.seh_stackalloc	80
	movaps	%xmm6, -32(%rbp)
	.seh_savexmm	%xmm6, 48
	movaps	%xmm7, -16(%rbp)
	.seh_savexmm	%xmm7, 64
	.cfi_offset 23, -48
	.cfi_offset 24, -32
	.seh_endprologue
	movq	%rcx, 16(%rbp)
	movss	%xmm1, 24(%rbp)
	.loc 6 143 0
	movq	16(%rbp), %rcx
	call	_ZN9playerOrb7centerXEv
	movd	%xmm0, %eax
	movl	%eax, -36(%rbp)
	.loc 6 144 0
	movq	16(%rbp), %rcx
	call	_ZN9playerOrb7centerYEv
	movd	%xmm0, %eax
	movl	%eax, -40(%rbp)
	.loc 6 145 0
	cvtss2sd	-36(%rbp), %xmm6
	cvtss2sd	24(%rbp), %xmm7
	movq	16(%rbp), %rax
	movl	12(%rax), %eax
	movd	%eax, %xmm0
	call	_ZN9rigidbody8degtoradEf
	cvtss2sd	%xmm0, %xmm3
	movq	%xmm3, %rax
	movq	%rax, %xmm0
	call	cos
	movq	%xmm0, %rax
	movq	%rax, %xmm0
	mulsd	%xmm7, %xmm0
	addsd	%xmm6, %xmm0
	cvtsd2ss	%xmm0, %xmm4
	movss	%xmm4, -44(%rbp)
	.loc 6 146 0
	cvtss2sd	-40(%rbp), %xmm6
	cvtss2sd	24(%rbp), %xmm7
	movq	16(%rbp), %rax
	movl	12(%rax), %eax
	movd	%eax, %xmm0
	call	_ZN9rigidbody8degtoradEf
	cvtss2sd	%xmm0, %xmm5
	movq	%xmm5, %rax
	movq	%rax, %xmm0
	call	sin
	movq	%xmm0, %rax
	movq	%rax, %xmm0
	mulsd	%xmm7, %xmm0
	addsd	%xmm6, %xmm0
	cvtsd2ss	%xmm0, %xmm3
	movss	%xmm3, -48(%rbp)
	.loc 6 148 0
	movss	-48(%rbp), %xmm1
	movss	-44(%rbp), %xmm0
	movaps	%xmm1, %xmm2
	movaps	%xmm0, %xmm1
	movq	16(%rbp), %rcx
	call	_ZN9playerOrb8inBoundsEff
	testb	%al, %al
	je	.L61
	.loc 6 149 0
	movss	-44(%rbp), %xmm0
	movaps	%xmm0, %xmm1
	movq	16(%rbp), %rcx
	call	_ZN9playerOrb10setCenterXEf
	.loc 6 150 0
	movss	-48(%rbp), %xmm0
	movaps	%xmm0, %xmm1
	movq	16(%rbp), %rcx
	call	_ZN9playerOrb10setCenterYEf
	.loc 6 168 0
	jmp	.L66
.L61:
	.loc 6 153 0
	movq	16(%rbp), %rcx
	call	_ZN9playerOrb7centerYEv
	movaps	%xmm0, %xmm1
	movss	-44(%rbp), %xmm0
	movaps	%xmm1, %xmm2
	movaps	%xmm0, %xmm1
	movq	16(%rbp), %rcx
	call	_ZN9playerOrb8inBoundsEff
	testb	%al, %al
	je	.L63
	.loc 6 154 0
	movss	-44(%rbp), %xmm0
	movaps	%xmm0, %xmm1
	movq	16(%rbp), %rcx
	call	_ZN9playerOrb10setCenterXEf
	jmp	.L64
.L63:
	.loc 6 157 0
	movq	16(%rbp), %rcx
	call	_ZN9playerOrb9getRadiusEv
	movaps	%xmm0, %xmm1
	movq	16(%rbp), %rcx
	call	_ZN9playerOrb10setCenterXEf
.L64:
	.loc 6 160 0
	movq	16(%rbp), %rcx
	call	_ZN9playerOrb7centerXEv
	movaps	%xmm0, %xmm1
	movss	-48(%rbp), %xmm0
	movaps	%xmm0, %xmm2
	movq	16(%rbp), %rcx
	call	_ZN9playerOrb8inBoundsEff
	testb	%al, %al
	je	.L65
	.loc 6 161 0
	movss	-48(%rbp), %xmm0
	movaps	%xmm0, %xmm1
	movq	16(%rbp), %rcx
	call	_ZN9playerOrb10setCenterYEf
	.loc 6 168 0
	jmp	.L66
.L65:
	.loc 6 164 0
	movq	16(%rbp), %rcx
	call	_ZN9playerOrb9getRadiusEv
	movaps	%xmm0, %xmm1
	movq	16(%rbp), %rcx
	call	_ZN9playerOrb10setCenterYEf
.L66:
	.loc 6 168 0
	nop
	movaps	-32(%rbp), %xmm6
	movaps	-16(%rbp), %xmm7
	addq	$80, %rsp
	.cfi_restore 24
	.cfi_restore 23
	popq	%rbp
	.cfi_restore 6
	.cfi_def_cfa 7, 8
	ret
	.cfi_endproc
.LFE6240:
	.seh_endproc
	.align 2
	.globl	_ZN9playerOrb8inBoundsEff
	.def	_ZN9playerOrb8inBoundsEff;	.scl	2;	.type	32;	.endef
	.seh_proc	_ZN9playerOrb8inBoundsEff
_ZN9playerOrb8inBoundsEff:
.LFB6241:
	.loc 6 171 0
	.cfi_startproc
	pushq	%rbp
	.seh_pushreg	%rbp
	.cfi_def_cfa_offset 16
	.cfi_offset 6, -16
	movq	%rsp, %rbp
	.seh_setframe	%rbp, 0
	.cfi_def_cfa_register 6
	subq	$48, %rsp
	.seh_stackalloc	48
	.seh_endprologue
	movq	%rcx, 16(%rbp)
	movss	%xmm1, 24(%rbp)
	movss	%xmm2, 32(%rbp)
	.loc 6 172 0
	movq	16(%rbp), %rcx
	call	_ZN9playerOrb9getRadiusEv
	movaps	%xmm0, %xmm1
	movss	24(%rbp), %xmm0
	subss	%xmm1, %xmm0
	movss	%xmm0, -4(%rbp)
	.loc 6 173 0
	movq	16(%rbp), %rcx
	call	_ZN9playerOrb9getRadiusEv
	movaps	%xmm0, %xmm1
	movss	32(%rbp), %xmm0
	subss	%xmm1, %xmm0
	movss	%xmm0, -8(%rbp)
	.loc 6 174 0
	movq	16(%rbp), %rcx
	call	_ZN9playerOrb9getRadiusEv
	movaps	%xmm0, %xmm1
	movss	24(%rbp), %xmm0
	addss	%xmm1, %xmm0
	movss	%xmm0, -12(%rbp)
	.loc 6 175 0
	movq	16(%rbp), %rcx
	call	_ZN9playerOrb9getRadiusEv
	movaps	%xmm0, %xmm1
	movss	32(%rbp), %xmm0
	addss	%xmm1, %xmm0
	movss	%xmm0, -16(%rbp)
	.loc 6 184 0
	movss	-4(%rbp), %xmm0
	pxor	%xmm1, %xmm1
	ucomiss	%xmm1, %xmm0
	jb	.L68
	.loc 6 178 0
	movss	-8(%rbp), %xmm0
	pxor	%xmm1, %xmm1
	ucomiss	%xmm1, %xmm0
	jb	.L68
	.loc 6 179 0
	movss	-12(%rbp), %xmm0
	pxor	%xmm1, %xmm1
	ucomiss	%xmm1, %xmm0
	jb	.L68
	.loc 6 180 0
	movss	-16(%rbp), %xmm0
	pxor	%xmm1, %xmm1
	ucomiss	%xmm1, %xmm0
	jb	.L68
	.loc 6 182 0
	movq	16(%rbp), %rax
	movq	24(%rax), %rax
	movq	%rax, %rcx
	call	_ZN13agarioGameMap10getMapSizeEv
	cvtsi2ss	%eax, %xmm0
	.loc 6 181 0
	ucomiss	-4(%rbp), %xmm0
	jbe	.L68
	.loc 6 183 0
	movq	16(%rbp), %rax
	movq	24(%rax), %rax
	movq	%rax, %rcx
	call	_ZN13agarioGameMap10getMapSizeEv
	cvtsi2ss	%eax, %xmm0
	.loc 6 182 0
	ucomiss	-8(%rbp), %xmm0
	jbe	.L68
	.loc 6 184 0
	movq	16(%rbp), %rax
	movq	24(%rax), %rax
	movq	%rax, %rcx
	call	_ZN13agarioGameMap10getMapSizeEv
	cvtsi2ss	%eax, %xmm0
	.loc 6 183 0
	ucomiss	-12(%rbp), %xmm0
	jbe	.L68
	.loc 6 185 0 discriminator 3
	movq	16(%rbp), %rax
	movq	24(%rax), %rax
	movq	%rax, %rcx
	call	_ZN13agarioGameMap10getMapSizeEv
	cvtsi2ss	%eax, %xmm0
	.loc 6 184 0 discriminator 3
	ucomiss	-16(%rbp), %xmm0
	jbe	.L68
	.loc 6 184 0 is_stmt 0 discriminator 2
	movl	$1, %eax
	jmp	.L77
.L68:
	.loc 6 184 0 discriminator 1
	movl	$0, %eax
.L77:
	.loc 6 186 0 is_stmt 1
	addq	$48, %rsp
	popq	%rbp
	.cfi_restore 6
	.cfi_def_cfa 7, 8
	ret
	.cfi_endproc
.LFE6241:
	.seh_endproc
	.align 2
	.globl	_ZN9playerOrb10needToDrawEv
	.def	_ZN9playerOrb10needToDrawEv;	.scl	2;	.type	32;	.endef
	.seh_proc	_ZN9playerOrb10needToDrawEv
_ZN9playerOrb10needToDrawEv:
.LFB6242:
	.loc 6 189 0
	.cfi_startproc
	pushq	%rbp
	.seh_pushreg	%rbp
	.cfi_def_cfa_offset 16
	.cfi_offset 6, -16
	movq	%rsp, %rbp
	.seh_setframe	%rbp, 0
	.cfi_def_cfa_register 6
	.seh_endprologue
	movq	%rcx, 16(%rbp)
	.loc 6 190 0
	movl	$1, %eax
	.loc 6 191 0
	popq	%rbp
	.cfi_restore 6
	.cfi_def_cfa 7, 8
	ret
	.cfi_endproc
.LFE6242:
	.seh_endproc
	.align 2
	.globl	_ZN9playerOrb12drawToCameraEv
	.def	_ZN9playerOrb12drawToCameraEv;	.scl	2;	.type	32;	.endef
	.seh_proc	_ZN9playerOrb12drawToCameraEv
_ZN9playerOrb12drawToCameraEv:
.LFB6243:
	.loc 6 194 0
	.cfi_startproc
	pushq	%rbp
	.seh_pushreg	%rbp
	.cfi_def_cfa_offset 16
	.cfi_offset 6, -16
	movq	%rsp, %rbp
	.seh_setframe	%rbp, 0
	.cfi_def_cfa_register 6
	subq	$32, %rsp
	.seh_stackalloc	32
	.seh_endprologue
	movq	%rcx, 16(%rbp)
	.loc 6 195 0
	movq	16(%rbp), %rax
	movq	16(%rax), %rax
	movq	%rax, %rdx
	movq	16(%rbp), %rcx
	call	_ZN9playerOrb6drawToER10gamecamera
	.loc 6 196 0
	nop
	addq	$32, %rsp
	popq	%rbp
	.cfi_restore 6
	.cfi_def_cfa 7, 8
	ret
	.cfi_endproc
.LFE6243:
	.seh_endproc
	.align 2
	.globl	_ZN9playerOrb6drawToER10gamecamera
	.def	_ZN9playerOrb6drawToER10gamecamera;	.scl	2;	.type	32;	.endef
	.seh_proc	_ZN9playerOrb6drawToER10gamecamera
_ZN9playerOrb6drawToER10gamecamera:
.LFB6244:
	.loc 6 199 0
	.cfi_startproc
	pushq	%rbp
	.seh_pushreg	%rbp
	.cfi_def_cfa_offset 16
	.cfi_offset 6, -16
	movq	%rsp, %rbp
	.seh_setframe	%rbp, 0
	.cfi_def_cfa_register 6
	addq	$-128, %rsp
	.seh_stackalloc	128
	movaps	%xmm6, -32(%rbp)
	.seh_savexmm	%xmm6, 96
	movaps	%xmm7, -16(%rbp)
	.seh_savexmm	%xmm7, 112
	.cfi_offset 23, -48
	.cfi_offset 24, -32
	.seh_endprologue
	movq	%rcx, 16(%rbp)
	movq	%rdx, 24(%rbp)
	.loc 6 200 0
	movq	24(%rbp), %rax
	movq	%rax, %rcx
	call	_ZN10gamecamera5scaleEv
	movd	%xmm0, %eax
	movl	%eax, -44(%rbp)
	.loc 6 201 0
	movss	-44(%rbp), %xmm0
	movaps	%xmm0, %xmm1
	movq	16(%rbp), %rcx
	call	_ZN9playerOrb9getRadiusEf
	cvttss2si	%xmm0, %eax
	movl	%eax, -48(%rbp)
	.loc 6 202 0
	movss	-44(%rbp), %xmm0
	movaps	%xmm0, %xmm1
	movq	16(%rbp), %rcx
	call	_ZN9playerOrb11getDiameterEf
	movd	%xmm0, %eax
	movl	%eax, -52(%rbp)
	.loc 6 203 0
	movq	16(%rbp), %rcx
	call	_ZN9playerOrb4minXEv
	cvttss2si	%xmm0, %eax
	movl	%eax, -56(%rbp)
	movq	16(%rbp), %rcx
	call	_ZN9playerOrb4minYEv
	cvttss2si	%xmm0, %eax
	movl	%eax, -60(%rbp)
	.loc 6 204 0
	movq	24(%rbp), %rax
	movq	(%rax), %rax
	movl	8(%rax), %eax
	movl	%eax, -64(%rbp)
	movq	24(%rbp), %rax
	movq	(%rax), %rax
	movl	12(%rax), %eax
	movl	%eax, -68(%rbp)
	.loc 6 205 0
	movq	24(%rbp), %rax
	movq	%rax, %rcx
	call	_ZN10gamecamera11framebufferEv
	movq	%rax, -80(%rbp)
	.loc 6 209 0
	movss	.LC5(%rip), %xmm0
	movss	%xmm0, -84(%rbp)
.LBB3:
	.loc 6 211 0
	pxor	%xmm0, %xmm0
	movss	%xmm0, -36(%rbp)
.L94:
	.loc 6 211 0 is_stmt 0 discriminator 1
	movss	.LC6(%rip), %xmm0
	ucomiss	-36(%rbp), %xmm0
	jbe	.L101
	.loc 6 212 0 is_stmt 1
	cvtsi2sd	-56(%rbp), %xmm6
	cvtsi2sd	-48(%rbp), %xmm7
	cvtss2sd	-36(%rbp), %xmm2
	movq	%xmm2, %rax
	movq	%rax, %xmm0
	call	cos
	movq	%xmm0, %rax
	movq	%rax, %xmm0
	mulsd	%xmm7, %xmm0
	addsd	%xmm0, %xmm6
	movq	24(%rbp), %rax
	movq	%rax, %rcx
	call	_ZN10gamecamera7centerXEv
	cvtss2sd	%xmm0, %xmm0
	addsd	%xmm6, %xmm0
	cvttsd2si	%xmm0, %eax
	movl	%eax, -88(%rbp)
	.loc 6 213 0
	cvtsi2sd	-60(%rbp), %xmm6
	cvtsi2sd	-48(%rbp), %xmm7
	cvtss2sd	-36(%rbp), %xmm3
	movq	%xmm3, %rax
	movq	%rax, %xmm0
	call	sin
	movq	%xmm0, %rax
	movq	%rax, %xmm0
	mulsd	%xmm7, %xmm0
	subsd	%xmm0, %xmm6
	movq	24(%rbp), %rax
	movq	%rax, %rcx
	call	_ZN10gamecamera7centerYEv
	cvtss2sd	%xmm0, %xmm0
	addsd	%xmm6, %xmm0
	cvttsd2si	%xmm0, %eax
	movl	%eax, -92(%rbp)
	.loc 6 214 0
	movl	-88(%rbp), %eax
	cmpl	-64(%rbp), %eax
	jge	.L93
	.loc 6 214 0 is_stmt 0 discriminator 1
	movl	-92(%rbp), %eax
	cmpl	-68(%rbp), %eax
	jge	.L93
	.loc 6 214 0 discriminator 2
	cmpl	$0, -92(%rbp)
	js	.L93
	.loc 6 214 0 discriminator 3
	cmpl	$0, -88(%rbp)
	js	.L93
	.loc 6 215 0 is_stmt 1
	movl	-92(%rbp), %ecx
	movl	-88(%rbp), %edx
	movq	24(%rbp), %rax
	movl	%ecx, %r8d
	movq	%rax, %rcx
	call	_ZN10gamecamera3getEii
	movslq	%eax, %rdx
	movq	-80(%rbp), %rax
	addq	%rdx, %rax
	movb	$35, (%rax)
.L93:
	.loc 6 211 0 discriminator 2
	movss	-36(%rbp), %xmm0
	addss	-84(%rbp), %xmm0
	movss	%xmm0, -36(%rbp)
	jmp	.L94
.L101:
.LBE3:
.LBB4:
	.loc 6 221 0
	pxor	%xmm0, %xmm0
	movss	%xmm0, -40(%rbp)
.L98:
	.loc 6 221 0 is_stmt 0 discriminator 1
	cvtsi2ss	-48(%rbp), %xmm0
	ucomiss	-40(%rbp), %xmm0
	ja	.L100
.LBE4:
	.loc 6 228 0 is_stmt 1 discriminator 1
	jmp	.L102
.L100:
.LBB5:
	.loc 6 222 0
	cvtsi2sd	-56(%rbp), %xmm6
	cvtss2sd	-40(%rbp), %xmm7
	movq	16(%rbp), %rax
	movl	12(%rax), %eax
	movd	%eax, %xmm0
	call	_ZN9rigidbody8degtoradEf
	cvtss2sd	%xmm0, %xmm4
	movq	%xmm4, %rax
	movq	%rax, %xmm0
	call	cos
	movq	%xmm0, %rax
	movq	%rax, %xmm0
	mulsd	%xmm7, %xmm0
	addsd	%xmm0, %xmm6
	movq	24(%rbp), %rax
	movq	%rax, %rcx
	call	_ZN10gamecamera7centerXEv
	cvtss2sd	%xmm0, %xmm0
	addsd	%xmm6, %xmm0
	cvttsd2si	%xmm0, %eax
	movl	%eax, -88(%rbp)
	.loc 6 223 0
	cvtsi2sd	-60(%rbp), %xmm6
	cvtss2sd	-40(%rbp), %xmm7
	movq	16(%rbp), %rax
	movl	12(%rax), %eax
	movd	%eax, %xmm0
	call	_ZN9rigidbody8degtoradEf
	cvtss2sd	%xmm0, %xmm5
	movq	%xmm5, %rax
	movq	%rax, %xmm0
	call	sin
	movq	%xmm0, %rax
	movq	%rax, %xmm0
	mulsd	%xmm7, %xmm0
	addsd	%xmm0, %xmm6
	movq	24(%rbp), %rax
	movq	%rax, %rcx
	call	_ZN10gamecamera7centerYEv
	cvtss2sd	%xmm0, %xmm0
	addsd	%xmm6, %xmm0
	cvttsd2si	%xmm0, %eax
	movl	%eax, -92(%rbp)
	.loc 6 224 0
	movl	-88(%rbp), %eax
	cmpl	-64(%rbp), %eax
	jge	.L97
	.loc 6 224 0 is_stmt 0 discriminator 1
	movl	-92(%rbp), %eax
	cmpl	-68(%rbp), %eax
	jge	.L97
	.loc 6 224 0 discriminator 2
	cmpl	$0, -92(%rbp)
	js	.L97
	.loc 6 224 0 discriminator 3
	cmpl	$0, -88(%rbp)
	js	.L97
	.loc 6 225 0 is_stmt 1
	movl	-92(%rbp), %ecx
	movl	-88(%rbp), %edx
	movq	24(%rbp), %rax
	movl	%ecx, %r8d
	movq	%rax, %rcx
	call	_ZN10gamecamera3getEii
	movslq	%eax, %rdx
	movq	-80(%rbp), %rax
	addq	%rdx, %rax
	movb	$42, (%rax)
.L97:
	.loc 6 221 0 discriminator 2
	movss	-40(%rbp), %xmm0
	addss	-84(%rbp), %xmm0
	movss	%xmm0, -40(%rbp)
	jmp	.L98
.L102:
.LBE5:
	.loc 6 228 0
	movaps	-32(%rbp), %xmm6
	movaps	-16(%rbp), %xmm7
	subq	$-128, %rsp
	.cfi_restore 24
	.cfi_restore 23
	popq	%rbp
	.cfi_restore 6
	.cfi_def_cfa 7, 8
	ret
	.cfi_endproc
.LFE6244:
	.seh_endproc
	.def	__tcf_0;	.scl	3;	.type	32;	.endef
	.seh_proc	__tcf_0
__tcf_0:
.LFB6727:
	.file 7 "c:/users/ian/downloads/pocketcpp-0.7/pocketcpp/mingw/include/c++/7.2.0/iostream"
	.loc 7 74 0
	.cfi_startproc
	pushq	%rbp
	.seh_pushreg	%rbp
	.cfi_def_cfa_offset 16
	.cfi_offset 6, -16
	movq	%rsp, %rbp
	.seh_setframe	%rbp, 0
	.cfi_def_cfa_register 6
	subq	$32, %rsp
	.seh_stackalloc	32
	.seh_endprologue
	.loc 7 74 0
	leaq	_ZStL8__ioinit(%rip), %rcx
	call	_ZNSt8ios_base4InitD1Ev
	nop
	addq	$32, %rsp
	popq	%rbp
	.cfi_restore 6
	.cfi_def_cfa 7, 8
	ret
	.cfi_endproc
.LFE6727:
	.seh_endproc
	.def	_Z41__static_initialization_and_destruction_0ii;	.scl	3;	.type	32;	.endef
	.seh_proc	_Z41__static_initialization_and_destruction_0ii
_Z41__static_initialization_and_destruction_0ii:
.LFB6726:
	.loc 6 228 0
	.cfi_startproc
	pushq	%rbp
	.seh_pushreg	%rbp
	.cfi_def_cfa_offset 16
	.cfi_offset 6, -16
	movq	%rsp, %rbp
	.seh_setframe	%rbp, 0
	.cfi_def_cfa_register 6
	subq	$32, %rsp
	.seh_stackalloc	32
	.seh_endprologue
	movl	%ecx, 16(%rbp)
	movl	%edx, 24(%rbp)
	.loc 6 228 0
	cmpl	$1, 16(%rbp)
	jne	.L106
	.loc 6 228 0 is_stmt 0 discriminator 1
	cmpl	$65535, 24(%rbp)
	jne	.L106
	.loc 7 74 0 is_stmt 1
	leaq	_ZStL8__ioinit(%rip), %rcx
	call	_ZNSt8ios_base4InitC1Ev
	leaq	__tcf_0(%rip), %rcx
	call	atexit
.L106:
	.loc 6 228 0
	nop
	addq	$32, %rsp
	popq	%rbp
	.cfi_restore 6
	.cfi_def_cfa 7, 8
	ret
	.cfi_endproc
.LFE6726:
	.seh_endproc
	.def	_GLOBAL__sub_I__ZN9playerOrbC2ER10gamecameraR13agarioGameMapR10agarioGame;	.scl	3;	.type	32;	.endef
	.seh_proc	_GLOBAL__sub_I__ZN9playerOrbC2ER10gamecameraR13agarioGameMapR10agarioGame
_GLOBAL__sub_I__ZN9playerOrbC2ER10gamecameraR13agarioGameMapR10agarioGame:
.LFB6728:
	.loc 6 228 0
	.cfi_startproc
	pushq	%rbp
	.seh_pushreg	%rbp
	.cfi_def_cfa_offset 16
	.cfi_offset 6, -16
	movq	%rsp, %rbp
	.seh_setframe	%rbp, 0
	.cfi_def_cfa_register 6
	subq	$32, %rsp
	.seh_stackalloc	32
	.seh_endprologue
	.loc 6 228 0
	movl	$65535, %edx
	movl	$1, %ecx
	call	_Z41__static_initialization_and_destruction_0ii
	nop
	addq	$32, %rsp
	popq	%rbp
	.cfi_restore 6
	.cfi_def_cfa 7, 8
	ret
	.cfi_endproc
.LFE6728:
	.seh_endproc
	.section	.ctors,"w"
	.align 8
	.quad	_GLOBAL__sub_I__ZN9playerOrbC2ER10gamecameraR13agarioGameMapR10agarioGame
	.section .rdata,"dr"
	.align 4
.LC0:
	.long	1078530011
	.align 4
.LC1:
	.long	1127481344
	.align 4
.LC3:
	.long	1092616192
	.align 4
.LC4:
	.long	1073741824
	.align 4
.LC5:
	.long	1022739087
	.align 4
.LC6:
	.long	1086918619
	.text
.Letext0:
	.file 8 "<built-in>"
	.file 9 "c:/users/ian/downloads/pocketcpp-0.7/pocketcpp/mingw/include/c++/7.2.0/x86_64-w64-mingw32/bits/c++config.h"
	.file 10 "c:/users/ian/downloads/pocketcpp-0.7/pocketcpp/mingw/include/c++/7.2.0/bits/basic_string.h"
	.file 11 "c:/users/ian/downloads/pocketcpp-0.7/pocketcpp/mingw/include/c++/7.2.0/bits/stringfwd.h"
	.file 12 "c:/users/ian/downloads/pocketcpp-0.7/pocketcpp/mingw/include/c++/7.2.0/cmath"
	.file 13 "c:/users/ian/downloads/pocketcpp-0.7/pocketcpp/mingw/include/c++/7.2.0/type_traits"
	.file 14 "c:/users/ian/downloads/pocketcpp-0.7/pocketcpp/mingw/include/c++/7.2.0/bits/stl_pair.h"
	.file 15 "c:/users/ian/downloads/pocketcpp-0.7/pocketcpp/mingw/include/c++/7.2.0/debug/debug.h"
	.file 16 "c:/users/ian/downloads/pocketcpp-0.7/pocketcpp/mingw/include/c++/7.2.0/cwchar"
	.file 17 "c:/users/ian/downloads/pocketcpp-0.7/pocketcpp/mingw/include/c++/7.2.0/bits/char_traits.h"
	.file 18 "c:/users/ian/downloads/pocketcpp-0.7/pocketcpp/mingw/include/c++/7.2.0/cstdint"
	.file 19 "c:/users/ian/downloads/pocketcpp-0.7/pocketcpp/mingw/include/c++/7.2.0/bits/exception_ptr.h"
	.file 20 "c:/users/ian/downloads/pocketcpp-0.7/pocketcpp/mingw/include/c++/7.2.0/new"
	.file 21 "c:/users/ian/downloads/pocketcpp-0.7/pocketcpp/mingw/include/c++/7.2.0/bits/allocator.h"
	.file 22 "c:/users/ian/downloads/pocketcpp-0.7/pocketcpp/mingw/include/c++/7.2.0/clocale"
	.file 23 "c:/users/ian/downloads/pocketcpp-0.7/pocketcpp/mingw/include/c++/7.2.0/cstdlib"
	.file 24 "c:/users/ian/downloads/pocketcpp-0.7/pocketcpp/mingw/include/c++/7.2.0/cstdio"
	.file 25 "c:/users/ian/downloads/pocketcpp-0.7/pocketcpp/mingw/include/c++/7.2.0/bits/alloc_traits.h"
	.file 26 "c:/users/ian/downloads/pocketcpp-0.7/pocketcpp/mingw/include/c++/7.2.0/initializer_list"
	.file 27 "c:/users/ian/downloads/pocketcpp-0.7/pocketcpp/mingw/include/c++/7.2.0/system_error"
	.file 28 "c:/users/ian/downloads/pocketcpp-0.7/pocketcpp/mingw/include/c++/7.2.0/bits/ios_base.h"
	.file 29 "c:/users/ian/downloads/pocketcpp-0.7/pocketcpp/mingw/include/c++/7.2.0/cwctype"
	.file 30 "c:/users/ian/downloads/pocketcpp-0.7/pocketcpp/mingw/include/c++/7.2.0/iosfwd"
	.file 31 "c:/users/ian/downloads/pocketcpp-0.7/pocketcpp/mingw/include/c++/7.2.0/bits/stl_iterator_base_types.h"
	.file 32 "c:/users/ian/downloads/pocketcpp-0.7/pocketcpp/mingw/include/c++/7.2.0/bits/predefined_ops.h"
	.file 33 "c:/users/ian/downloads/pocketcpp-0.7/pocketcpp/mingw/include/c++/7.2.0/ext/new_allocator.h"
	.file 34 "c:/users/ian/downloads/pocketcpp-0.7/pocketcpp/mingw/include/c++/7.2.0/ext/numeric_traits.h"
	.file 35 "c:/users/ian/downloads/pocketcpp-0.7/pocketcpp/mingw/include/c++/7.2.0/ext/alloc_traits.h"
	.file 36 "c:/users/ian/downloads/pocketcpp-0.7/pocketcpp/mingw/include/c++/7.2.0/bits/stl_iterator.h"
	.file 37 "c:/users/ian/downloads/pocketcpp-0.7/pocketcpp/mingw/x86_64-w64-mingw32/include/crtdefs.h"
	.file 38 "c:/users/ian/downloads/pocketcpp-0.7/pocketcpp/mingw/x86_64-w64-mingw32/include/locale.h"
	.file 39 "c:/users/ian/downloads/pocketcpp-0.7/pocketcpp/mingw/x86_64-w64-mingw32/include/math.h"
	.file 40 "c:/users/ian/downloads/pocketcpp-0.7/pocketcpp/mingw/x86_64-w64-mingw32/include/stdlib.h"
	.file 41 "c:/users/ian/downloads/pocketcpp-0.7/pocketcpp/mingw/x86_64-w64-mingw32/include/malloc.h"
	.file 42 "c:/users/ian/downloads/pocketcpp-0.7/pocketcpp/mingw/x86_64-w64-mingw32/include/wchar.h"
	.file 43 "c:/users/ian/downloads/pocketcpp-0.7/pocketcpp/mingw/x86_64-w64-mingw32/include/swprintf.inl"
	.file 44 "c:/users/ian/downloads/pocketcpp-0.7/pocketcpp/mingw/x86_64-w64-mingw32/include/stdint.h"
	.file 45 "c:/users/ian/downloads/pocketcpp-0.7/pocketcpp/mingw/x86_64-w64-mingw32/include/stdio.h"
	.file 46 "c:/users/ian/downloads/pocketcpp-0.7/pocketcpp/mingw/x86_64-w64-mingw32/include/ctype.h"
	.file 47 "c:/users/ian/downloads/pocketcpp-0.7/pocketcpp/mingw/include/c++/7.2.0/x86_64-w64-mingw32/bits/gthr-default.h"
	.file 48 "c:/users/ian/downloads/pocketcpp-0.7/pocketcpp/mingw/include/c++/7.2.0/x86_64-w64-mingw32/bits/atomic_word.h"
	.file 49 "playerOrb.h"
	.file 50 "c:/users/ian/downloads/pocketcpp-0.7/pocketcpp/mingw/x86_64-w64-mingw32/include/excpt.h"
	.file 51 "c:/users/ian/downloads/pocketcpp-0.7/pocketcpp/mingw/x86_64-w64-mingw32/include/minwindef.h"
	.file 52 "c:/users/ian/downloads/pocketcpp-0.7/pocketcpp/mingw/x86_64-w64-mingw32/include/guiddef.h"
	.file 53 "c:/users/ian/downloads/pocketcpp-0.7/pocketcpp/mingw/x86_64-w64-mingw32/include/winnt.h"
	.file 54 "c:/users/ian/downloads/pocketcpp-0.7/pocketcpp/mingw/x86_64-w64-mingw32/include/rpcdce.h"
	.file 55 "c:/users/ian/downloads/pocketcpp-0.7/pocketcpp/mingw/include/c++/7.2.0/stdlib.h"
	.file 56 "c:/users/ian/downloads/pocketcpp-0.7/pocketcpp/mingw/x86_64-w64-mingw32/include/wtypesbase.h"
	.file 57 "c:/users/ian/downloads/pocketcpp-0.7/pocketcpp/mingw/x86_64-w64-mingw32/include/unknwnbase.h"
	.file 58 "c:/users/ian/downloads/pocketcpp-0.7/pocketcpp/mingw/x86_64-w64-mingw32/include/objidlbase.h"
	.file 59 "c:/users/ian/downloads/pocketcpp-0.7/pocketcpp/mingw/x86_64-w64-mingw32/include/cguid.h"
	.file 60 "c:/users/ian/downloads/pocketcpp-0.7/pocketcpp/mingw/x86_64-w64-mingw32/include/wtypes.h"
	.file 61 "c:/users/ian/downloads/pocketcpp-0.7/pocketcpp/mingw/x86_64-w64-mingw32/include/objidl.h"
	.file 62 "c:/users/ian/downloads/pocketcpp-0.7/pocketcpp/mingw/x86_64-w64-mingw32/include/oleidl.h"
	.file 63 "c:/users/ian/downloads/pocketcpp-0.7/pocketcpp/mingw/x86_64-w64-mingw32/include/servprov.h"
	.file 64 "c:/users/ian/downloads/pocketcpp-0.7/pocketcpp/mingw/x86_64-w64-mingw32/include/oaidl.h"
	.file 65 "c:/users/ian/downloads/pocketcpp-0.7/pocketcpp/mingw/x86_64-w64-mingw32/include/msxml.h"
	.file 66 "c:/users/ian/downloads/pocketcpp-0.7/pocketcpp/mingw/x86_64-w64-mingw32/include/urlmon.h"
	.file 67 "c:/users/ian/downloads/pocketcpp-0.7/pocketcpp/mingw/x86_64-w64-mingw32/include/propidl.h"
	.file 68 "c:/users/ian/downloads/pocketcpp-0.7/pocketcpp/mingw/x86_64-w64-mingw32/include/oleauto.h"
	.file 69 "c:/users/ian/downloads/pocketcpp-0.7/pocketcpp/mingw/x86_64-w64-mingw32/include/winioctl.h"
	.file 70 "c:/users/ian/downloads/pocketcpp-0.7/pocketcpp/mingw/x86_64-w64-mingw32/include/winsmcrd.h"
	.file 71 "c:/users/ian/downloads/pocketcpp-0.7/pocketcpp/mingw/x86_64-w64-mingw32/include/winscard.h"
	.file 72 "c:/users/ian/downloads/pocketcpp-0.7/pocketcpp/mingw/x86_64-w64-mingw32/include/commdlg.h"
	.file 73 "c:/users/ian/downloads/pocketcpp-0.7/pocketcpp/mingw/x86_64-w64-mingw32/include/wctype.h"