	.file	"png.cpp"
	.text
.Ltext0:
	.cfi_sections	.debug_frame
	.section .rdata,"dr"
_ZStL19piecewise_construct:
	.space 1
	.section	.text$_ZnwyPv,"x"
	.linkonce discard
	.globl	_ZnwyPv
	.def	_ZnwyPv;	.scl	2;	.type	32;	.endef
	.seh_proc	_ZnwyPv
_ZnwyPv:
.LFB356:
	.file 1 "c:/users/ian/downloads/pocketcpp-0.7/pocketcpp/mingw/include/c++/7.2.0/new"
	.loc 1 169 0
	.cfi_startproc
	pushq	%rbp
	.seh_pushreg	%rbp
	.cfi_def_cfa_offset 16
	.cfi_offset 6, -16
	movq	%rsp, %rbp
	.seh_setframe	%rbp, 0
	.cfi_def_cfa_register 6
	.seh_endprologue
	movq	%rcx, 16(%rbp)
	movq	%rdx, 24(%rbp)
	.loc 1 169 0
	movq	24(%rbp), %rax
	popq	%rbp
	.cfi_restore 6
	.cfi_def_cfa 7, 8
	ret
	.cfi_endproc
.LFE356:
	.seh_endproc
	.section	.text$_ZN7boxsizeC1Eiiii,"x"
	.linkonce discard
	.align 2
	.globl	_ZN7boxsizeC1Eiiii
	.def	_ZN7boxsizeC1Eiiii;	.scl	2;	.type	32;	.endef
	.seh_proc	_ZN7boxsizeC1Eiiii
_ZN7boxsizeC1Eiiii:
.LFB1068:
	.file 2 "boxsize.h"
	.loc 2 13 0
	.cfi_startproc
	pushq	%rbp
	.seh_pushreg	%rbp
	.cfi_def_cfa_offset 16
	.cfi_offset 6, -16
	movq	%rsp, %rbp
	.seh_setframe	%rbp, 0
	.cfi_def_cfa_register 6
	.seh_endprologue
	movq	%rcx, 16(%rbp)
	movl	%edx, 24(%rbp)
	movl	%r8d, 32(%rbp)
	movl	%r9d, 40(%rbp)
.LBB2:
	.loc 2 14 0
	movq	16(%rbp), %rax
	movl	24(%rbp), %edx
	movl	%edx, (%rax)
	.loc 2 15 0
	movq	16(%rbp), %rax
	movl	32(%rbp), %edx
	movl	%edx, 4(%rax)
	.loc 2 16 0
	movq	16(%rbp), %rax
	movl	40(%rbp), %edx
	movl	%edx, 8(%rax)
	.loc 2 17 0
	movq	16(%rbp), %rax
	movl	48(%rbp), %edx
	movl	%edx, 12(%rax)
.LBE2:
	.loc 2 18 0
	nop
	popq	%rbp
	.cfi_restore 6
	.cfi_def_cfa 7, 8
	ret
	.cfi_endproc
.LFE1068:
	.seh_endproc
	.section	.text$_ZN7boxsize3getEii,"x"
	.linkonce discard
	.align 2
	.globl	_ZN7boxsize3getEii
	.def	_ZN7boxsize3getEii;	.scl	2;	.type	32;	.endef
	.seh_proc	_ZN7boxsize3getEii
_ZN7boxsize3getEii:
.LFB1077:
	.loc 2 33 0
	.cfi_startproc
	pushq	%rbp
	.seh_pushreg	%rbp
	.cfi_def_cfa_offset 16
	.cfi_offset 6, -16
	movq	%rsp, %rbp
	.seh_setframe	%rbp, 0
	.cfi_def_cfa_register 6
	.seh_endprologue
	movq	%rcx, 16(%rbp)
	movl	%edx, 24(%rbp)
	movl	%r8d, 32(%rbp)
	.loc 2 34 0
	movq	16(%rbp), %rax
	movl	8(%rax), %eax
	imull	32(%rbp), %eax
	movl	%eax, %edx
	movl	24(%rbp), %eax
	addl	%edx, %eax
	.loc 2 35 0
	popq	%rbp
	.cfi_restore 6
	.cfi_def_cfa 7, 8
	ret
	.cfi_endproc
.LFE1077:
	.seh_endproc
.lcomm _ZStL8__ioinit,1,1
	.text
	.align 2
	.globl	_ZN3pngC2EPKc
	.def	_ZN3pngC2EPKc;	.scl	2;	.type	32;	.endef
	.seh_proc	_ZN3pngC2EPKc
_ZN3pngC2EPKc:
.LFB2133:
	.file 3 "png.cpp"
	.loc 3 10 0
	.cfi_startproc
	.cfi_personality 0x9b,.LDFCM0
	.cfi_lsda 0x1c,.LLSDA2133
	pushq	%rbp
	.seh_pushreg	%rbp
	.cfi_def_cfa_offset 16
	.cfi_offset 6, -16
	pushq	%rbx
	.seh_pushreg	%rbx
	.cfi_def_cfa_offset 24
	.cfi_offset 3, -24
	subq	$56, %rsp
	.seh_stackalloc	56
	.cfi_def_cfa_offset 80
	leaq	128(%rsp), %rbp
	.seh_setframe	%rbp, 128
	.cfi_def_cfa 6, -48
	.seh_endprologue
	movq	%rcx, -48(%rbp)
	movq	%rdx, -40(%rbp)
.LBB3:
	.loc 3 11 0
	movq	-48(%rbp), %rax
	movq	%rax, %rcx
	call	_ZNSt6vectorI5pixelSaIS0_EEC1Ev
	movq	-48(%rbp), %rax
	addq	$24, %rax
	movl	$0, 32(%rsp)
	movl	$0, %r9d
	movl	$0, %r8d
	movl	$0, %edx
	movq	%rax, %rcx
	call	_ZN7boxsizeC1Eiiii
	.loc 3 13 0
	movq	-40(%rbp), %rax
	movq	%rax, %rdx
	movq	-48(%rbp), %rcx
.LEHB0:
	call	_ZN3png4loadEPKc
.LEHE0:
.LBE3:
	.loc 3 14 0
	jmp	.L9
.L8:
	movq	%rax, %rbx
.LBB4:
	.loc 3 11 0
	movq	-48(%rbp), %rax
	movq	%rax, %rcx
	call	_ZNSt6vectorI5pixelSaIS0_EED1Ev
	movq	%rbx, %rax
	movq	%rax, %rcx
.LEHB1:
	call	_Unwind_Resume
	nop
.LEHE1:
.L9:
.LBE4:
	.loc 3 14 0
	addq	$56, %rsp
	popq	%rbx
	.cfi_restore 3
	popq	%rbp
	.cfi_restore 6
	.cfi_def_cfa 7, -40
	ret
	.cfi_endproc
.LFE2133:
	.def	__gxx_personality_seh0;	.scl	2;	.type	32;	.endef
	.seh_handler	__gxx_personality_seh0, @unwind, @except
	.seh_handlerdata
.LLSDA2133:
	.byte	0xff
	.byte	0xff
	.byte	0x1
	.uleb128 .LLSDACSE2133-.LLSDACSB2133
.LLSDACSB2133:
	.uleb128 .LEHB0-.LFB2133
	.uleb128 .LEHE0-.LEHB0
	.uleb128 .L8-.LFB2133
	.uleb128 0
	.uleb128 .LEHB1-.LFB2133
	.uleb128 .LEHE1-.LEHB1
	.uleb128 0
	.uleb128 0
.LLSDACSE2133:
	.text
	.seh_endproc
	.globl	_ZN3pngC1EPKc
	.def	_ZN3pngC1EPKc;	.scl	2;	.type	32;	.endef
	.set	_ZN3pngC1EPKc,_ZN3pngC2EPKc
	.align 2
	.globl	_ZN3pngD2Ev
	.def	_ZN3pngD2Ev;	.scl	2;	.type	32;	.endef
	.seh_proc	_ZN3pngD2Ev
_ZN3pngD2Ev:
.LFB2136:
	.loc 3 16 0
	.cfi_startproc
	pushq	%rbp
	.seh_pushreg	%rbp
	.cfi_def_cfa_offset 16
	.cfi_offset 6, -16
	movq	%rsp, %rbp
	.seh_setframe	%rbp, 0
	.cfi_def_cfa_register 6
	subq	$32, %rsp
	.seh_stackalloc	32
	.seh_endprologue
	movq	%rcx, 16(%rbp)
.LBB5:
	.loc 3 16 0
	movq	16(%rbp), %rax
	movq	%rax, %rcx
	call	_ZNSt6vectorI5pixelSaIS0_EED1Ev
.LBE5:
	.loc 3 18 0
	nop
	addq	$32, %rsp
	popq	%rbp
	.cfi_restore 6
	.cfi_def_cfa 7, 8
	ret
	.cfi_endproc
.LFE2136:
	.seh_endproc
	.globl	_ZN3pngD1Ev
	.def	_ZN3pngD1Ev;	.scl	2;	.type	32;	.endef
	.set	_ZN3pngD1Ev,_ZN3pngD2Ev
	.align 2
	.globl	_ZN3png8getPixelEiiR5pixel
	.def	_ZN3png8getPixelEiiR5pixel;	.scl	2;	.type	32;	.endef
	.seh_proc	_ZN3png8getPixelEiiR5pixel
_ZN3png8getPixelEiiR5pixel:
.LFB2138:
	.loc 3 21 0
	.cfi_startproc
	pushq	%rbp
	.seh_pushreg	%rbp
	.cfi_def_cfa_offset 16
	.cfi_offset 6, -16
	movq	%rsp, %rbp
	.seh_setframe	%rbp, 0
	.cfi_def_cfa_register 6
	subq	$32, %rsp
	.seh_stackalloc	32
	.seh_endprologue
	movq	%rcx, 16(%rbp)
	movl	%edx, 24(%rbp)
	movl	%r8d, 32(%rbp)
	movq	%r9, 40(%rbp)
	.loc 3 22 0
	movq	16(%rbp), %rax
	leaq	24(%rax), %rcx
	movl	32(%rbp), %edx
	movl	24(%rbp), %eax
	movl	%edx, %r8d
	movl	%eax, %edx
	call	_ZN7boxsize3getEii
	movslq	%eax, %rdx
	movq	16(%rbp), %rax
	movq	%rax, %rcx
	call	_ZNSt6vectorI5pixelSaIS0_EEixEy
	movq	%rax, %rdx
	movq	40(%rbp), %rax
	movl	(%rdx), %edx
	movl	%edx, (%rax)
	.loc 3 23 0
	nop
	addq	$32, %rsp
	popq	%rbp
	.cfi_restore 6
	.cfi_def_cfa 7, 8
	ret
	.cfi_endproc
.LFE2138:
	.seh_endproc
	.align 2
	.globl	_ZN3png8getPixelEii
	.def	_ZN3png8getPixelEii;	.scl	2;	.type	32;	.endef
	.seh_proc	_ZN3png8getPixelEii
_ZN3png8getPixelEii:
.LFB2139:
	.loc 3 25 0
	.cfi_startproc
	pushq	%rbp
	.seh_pushreg	%rbp
	.cfi_def_cfa_offset 16
	.cfi_offset 6, -16
	movq	%rsp, %rbp
	.seh_setframe	%rbp, 0
	.cfi_def_cfa_register 6
	subq	$32, %rsp
	.seh_stackalloc	32
	.seh_endprologue
	movq	%rcx, 16(%rbp)
	movl	%edx, 24(%rbp)
	movl	%r8d, 32(%rbp)
	.loc 3 26 0
	movq	16(%rbp), %rax
	leaq	24(%rax), %rcx
	movl	32(%rbp), %edx
	movl	24(%rbp), %eax
	movl	%edx, %r8d
	movl	%eax, %edx
	call	_ZN7boxsize3getEii
	movslq	%eax, %rdx
	movq	16(%rbp), %rax
	movq	%rax, %rcx
	call	_ZNSt6vectorI5pixelSaIS0_EEixEy
	.loc 3 27 0
	addq	$32, %rsp
	popq	%rbp
	.cfi_restore 6
	.cfi_def_cfa 7, 8
	ret
	.cfi_endproc
.LFE2139:
	.seh_endproc
	.align 2
	.globl	_ZN3png9getSampleEiiP7boxsize
	.def	_ZN3png9getSampleEiiP7boxsize;	.scl	2;	.type	32;	.endef
	.seh_proc	_ZN3png9getSampleEiiP7boxsize
_ZN3png9getSampleEiiP7boxsize:
.LFB2140:
	.loc 3 30 0
	.cfi_startproc
	pushq	%rbp
	.seh_pushreg	%rbp
	.cfi_def_cfa_offset 16
	.cfi_offset 6, -16
	movq	%rsp, %rbp
	.seh_setframe	%rbp, 0
	.cfi_def_cfa_register 6
	subq	$48, %rsp
	.seh_stackalloc	48
	.seh_endprologue
	movq	%rcx, 16(%rbp)
	movl	%edx, 24(%rbp)
	movl	%r8d, 32(%rbp)
	movq	%r9, 40(%rbp)
	.loc 3 31 0
	movq	40(%rbp), %rax
	movl	8(%rax), %eax
	cvtsi2ss	%eax, %xmm0
	movq	16(%rbp), %rax
	movl	32(%rax), %eax
	cvtsi2ss	%eax, %xmm1
	divss	%xmm1, %xmm0
	movss	%xmm0, -4(%rbp)
	movq	40(%rbp), %rax
	movl	12(%rax), %eax
	cvtsi2ss	%eax, %xmm0
	movq	16(%rbp), %rax
	movl	36(%rax), %eax
	cvtsi2ss	%eax, %xmm1
	divss	%xmm1, %xmm0
	movss	%xmm0, -8(%rbp)
	.loc 3 32 0
	cvtsi2ss	32(%rbp), %xmm0
	divss	-8(%rbp), %xmm0
	cvttss2si	%xmm0, %edx
	cvtsi2ss	24(%rbp), %xmm0
	divss	-4(%rbp), %xmm0
	cvttss2si	%xmm0, %eax
	movl	%edx, %r8d
	movl	%eax, %edx
	movq	16(%rbp), %rcx
	call	_ZN3png8getPixelEii
	.loc 3 33 0
	addq	$48, %rsp
	popq	%rbp
	.cfi_restore 6
	.cfi_def_cfa 7, 8
	ret
	.cfi_endproc
.LFE2140:
	.seh_endproc
	.section .rdata,"dr"
.LC0:
	.ascii "lodepng error: \0"
	.text
	.align 2
	.globl	_ZN3png4loadEPKc
	.def	_ZN3png4loadEPKc;	.scl	2;	.type	32;	.endef
	.seh_proc	_ZN3png4loadEPKc
_ZN3png4loadEPKc:
.LFB2141:
	.loc 3 36 0
	.cfi_startproc
	.cfi_personality 0x9b,.LDFCM0
	.cfi_lsda 0x1c,.LLSDA2141
	pushq	%rbp
	.seh_pushreg	%rbp
	.cfi_def_cfa_offset 16
	.cfi_offset 6, -16
	pushq	%rbx
	.seh_pushreg	%rbx
	.cfi_def_cfa_offset 24
	.cfi_offset 3, -24
	subq	$184, %rsp
	.seh_stackalloc	184
	.cfi_def_cfa_offset 208
	leaq	128(%rsp), %rbp
	.seh_setframe	%rbp, 128
	.cfi_def_cfa 6, 80
	.seh_endprologue
	movq	%rcx, 80(%rbp)
	movq	%rdx, 88(%rbp)
	.loc 3 37 0
	leaq	-64(%rbp), %rax
	movq	%rax, %rcx
	call	_ZNSt6vectorIhSaIhEEC1Ev
	.loc 3 40 0
	leaq	15(%rbp), %rax
	movq	%rax, %rcx
	call	_ZNSaIcEC1Ev
	leaq	15(%rbp), %rcx
	movq	88(%rbp), %rdx
	leaq	-32(%rbp), %rax
	movq	%rcx, %r8
	movq	%rax, %rcx
.LEHB2:
	call	_ZNSt7__cxx1112basic_stringIcSt11char_traitsIcESaIcEEC1EPKcRKS3_
.LEHE2:
	.loc 3 40 0 is_stmt 0 discriminator 2
	leaq	-32(%rbp), %r8
	leaq	-72(%rbp), %rcx
	leaq	-68(%rbp), %rdx
	leaq	-64(%rbp), %rax
	movl	$8, 40(%rsp)
	movl	$6, 32(%rsp)
	movq	%r8, %r9
	movq	%rcx, %r8
	movq	%rax, %rcx
.LEHB3:
	call	_ZN7lodepng6decodeERSt6vectorIhSaIhEERjS4_RKNSt7__cxx1112basic_stringIcSt11char_traitsIcESaIcEEE16LodePNGColorTypej
.LEHE3:
	movl	%eax, 44(%rbp)
	leaq	-32(%rbp), %rax
	movq	%rax, %rcx
	call	_ZNSt7__cxx1112basic_stringIcSt11char_traitsIcESaIcEED1Ev
	leaq	15(%rbp), %rax
	movq	%rax, %rcx
	call	_ZNSaIcED1Ev
	.loc 3 42 0 is_stmt 1 discriminator 2
	cmpl	$0, 44(%rbp)
	je	.L17
	.loc 3 44 0
	leaq	.LC0(%rip), %rdx
	movq	.refptr._ZSt4cout(%rip), %rcx
.LEHB4:
	call	_ZStlsISt11char_traitsIcEERSt13basic_ostreamIcT_ES5_PKc
	movq	%rax, %rcx
	movl	44(%rbp), %eax
	movl	%eax, %edx
	call	_ZNSolsEj
	.loc 3 44 0 is_stmt 0 discriminator 1
	movq	.refptr._ZSt4endlIcSt11char_traitsIcEERSt13basic_ostreamIT_T0_ES6_(%rip), %rdx
	movq	%rax, %rcx
	call	_ZNSolsEPFRSoS_E
	.loc 3 45 0 is_stmt 1
	movl	44(%rbp), %eax
	movl	%eax, %ecx
	call	exit
.L17:
	.loc 3 48 0
	movl	-68(%rbp), %eax
	movl	%eax, %edx
	movq	80(%rbp), %rax
	movl	%edx, 32(%rax)
	.loc 3 49 0
	movl	-72(%rbp), %eax
	movl	%eax, %edx
	movq	80(%rbp), %rax
	movl	%edx, 36(%rax)
	.loc 3 51 0
	leaq	-64(%rbp), %rdx
	leaq	16(%rbp), %rax
	movq	%rax, %rcx
	call	_ZNSt6vectorIhSaIhEEC1ERKS1_
.LEHE4:
	.loc 3 51 0 is_stmt 0 discriminator 1
	leaq	16(%rbp), %rax
	movq	%rax, %rdx
	movq	80(%rbp), %rcx
.LEHB5:
	call	_ZN3png7convertESt6vectorIhSaIhEE
.LEHE5:
	.loc 3 51 0 discriminator 3
	leaq	16(%rbp), %rax
	movq	%rax, %rcx
	call	_ZNSt6vectorIhSaIhEED1Ev
	.loc 3 37 0 is_stmt 1 discriminator 3
	leaq	-64(%rbp), %rax
	movq	%rax, %rcx
	call	_ZNSt6vectorIhSaIhEED1Ev
	.loc 3 52 0 discriminator 3
	jmp	.L26
.L23:
	movq	%rax, %rbx
	.loc 3 40 0
	leaq	-32(%rbp), %rax
	movq	%rax, %rcx
	call	_ZNSt7__cxx1112basic_stringIcSt11char_traitsIcESaIcEED1Ev
	jmp	.L19
.L22:
	movq	%rax, %rbx
.L19:
	.loc 3 40 0 is_stmt 0 discriminator 1
	leaq	15(%rbp), %rax
	movq	%rax, %rcx
	call	_ZNSaIcED1Ev
	jmp	.L20
.L25:
	movq	%rax, %rbx
	.loc 3 51 0 is_stmt 1
	leaq	16(%rbp), %rax
	movq	%rax, %rcx
	call	_ZNSt6vectorIhSaIhEED1Ev
	jmp	.L20
.L24:
	movq	%rax, %rbx
.L20:
	.loc 3 37 0
	leaq	-64(%rbp), %rax
	movq	%rax, %rcx
	call	_ZNSt6vectorIhSaIhEED1Ev
	movq	%rbx, %rax
	movq	%rax, %rcx
.LEHB6:
	call	_Unwind_Resume
.LEHE6:
.L26:
	.loc 3 52 0
	addq	$184, %rsp
	popq	%rbx
	.cfi_restore 3
	popq	%rbp
	.cfi_restore 6
	.cfi_def_cfa 7, -168
	ret
	.cfi_endproc
.LFE2141:
	.seh_handler	__gxx_personality_seh0, @unwind, @except
	.seh_handlerdata
.LLSDA2141:
	.byte	0xff
	.byte	0xff
	.byte	0x1
	.uleb128 .LLSDACSE2141-.LLSDACSB2141
.LLSDACSB2141:
	.uleb128 .LEHB2-.LFB2141
	.uleb128 .LEHE2-.LEHB2
	.uleb128 .L22-.LFB2141
	.uleb128 0
	.uleb128 .LEHB3-.LFB2141
	.uleb128 .LEHE3-.LEHB3
	.uleb128 .L23-.LFB2141
	.uleb128 0
	.uleb128 .LEHB4-.LFB2141
	.uleb128 .LEHE4-.LEHB4
	.uleb128 .L24-.LFB2141
	.uleb128 0
	.uleb128 .LEHB5-.LFB2141
	.uleb128 .LEHE5-.LEHB5
	.uleb128 .L25-.LFB2141
	.uleb128 0
	.uleb128 .LEHB6-.LFB2141
	.uleb128 .LEHE6-.LEHB6
	.uleb128 0
	.uleb128 0
.LLSDACSE2141:
	.text
	.seh_endproc
	.align 2
	.globl	_ZN3png7convertESt6vectorIhSaIhEE
	.def	_ZN3png7convertESt6vectorIhSaIhEE;	.scl	2;	.type	32;	.endef
	.seh_proc	_ZN3png7convertESt6vectorIhSaIhEE
_ZN3png7convertESt6vectorIhSaIhEE:
.LFB2142:
	.loc 3 55 0
	.cfi_startproc
	pushq	%rbp
	.seh_pushreg	%rbp
	.cfi_def_cfa_offset 16
	.cfi_offset 6, -16
	pushq	%r12
	.seh_pushreg	%r12
	.cfi_def_cfa_offset 24
	.cfi_offset 12, -24
	pushq	%rdi
	.seh_pushreg	%rdi
	.cfi_def_cfa_offset 32
	.cfi_offset 5, -32
	pushq	%rsi
	.seh_pushreg	%rsi
	.cfi_def_cfa_offset 40
	.cfi_offset 4, -40
	pushq	%rbx
	.seh_pushreg	%rbx
	.cfi_def_cfa_offset 48
	.cfi_offset 3, -48
	movq	%rsp, %rbp
	.seh_setframe	%rbp, 0
	.cfi_def_cfa_register 6
	subq	$80, %rsp
	.seh_stackalloc	80
	.seh_endprologue
	movq	%rcx, 48(%rbp)
	movq	%rdx, 56(%rbp)
	.loc 3 56 0
	movq	56(%rbp), %rax
	movq	%rax, %rcx
	call	_ZNKSt6vectorIhSaIhEE4sizeEv
	movl	%eax, -12(%rbp)
	.loc 3 57 0
	movl	-12(%rbp), %eax
	leal	3(%rax), %edx
	testl	%eax, %eax
	cmovs	%edx, %eax
	sarl	$2, %eax
	movl	%eax, -16(%rbp)
	.loc 3 58 0
	movq	48(%rbp), %rax
	movl	-16(%rbp), %edx
	movslq	%edx, %rdx
	movq	%rax, %rcx
	call	_ZNSt6vectorI5pixelSaIS0_EE7reserveEy
	.loc 3 59 0
	movl	-16(%rbp), %eax
	cltq
	salq	$2, %rax
	movq	%rax, %rcx
	call	malloc
	movq	%rax, -24(%rbp)
.LBB6:
	.loc 3 60 0
	movl	$0, -4(%rbp)
	movl	$0, -8(%rbp)
.L29:
	.loc 3 60 0 is_stmt 0 discriminator 2
	movl	-4(%rbp), %eax
	cmpl	-12(%rbp), %eax
	jge	.L30
	.loc 3 61 0 is_stmt 1
	movq	48(%rbp), %rbx
	movl	-4(%rbp), %eax
	addl	$3, %eax
	movslq	%eax, %rdx
	movq	56(%rbp), %rax
	movq	%rax, %rcx
	call	_ZNSt6vectorIhSaIhEEixEy
	movzbl	(%rax), %eax
	movsbl	%al, %esi
	movl	-4(%rbp), %eax
	addl	$2, %eax
	movslq	%eax, %rdx
	movq	56(%rbp), %rax
	movq	%rax, %rcx
	call	_ZNSt6vectorIhSaIhEEixEy
	movzbl	(%rax), %eax
	movsbl	%al, %r12d
	movl	-4(%rbp), %eax
	addl	$1, %eax
	movslq	%eax, %rdx
	movq	56(%rbp), %rax
	movq	%rax, %rcx
	call	_ZNSt6vectorIhSaIhEEixEy
	movzbl	(%rax), %eax
	movsbl	%al, %edi
	movl	-4(%rbp), %eax
	movslq	%eax, %rdx
	movq	56(%rbp), %rax
	movq	%rax, %rcx
	call	_ZNSt6vectorIhSaIhEEixEy
	movzbl	(%rax), %eax
	movsbl	%al, %edx
	leaq	-28(%rbp), %rax
	movl	%esi, 32(%rsp)
	movl	%r12d, %r9d
	movl	%edi, %r8d
	movq	%rax, %rcx
	call	_ZN5pixelC1Ecccc
	movl	-8(%rbp), %eax
	cltq
	leaq	0(,%rax,4), %rdx
	movq	-24(%rbp), %rax
	addq	%rax, %rdx
	movl	-28(%rbp), %eax
	movl	%eax, (%rdx)
	movl	-8(%rbp), %eax
	cltq
	leaq	0(,%rax,4), %rdx
	movq	-24(%rbp), %rax
	addq	%rdx, %rax
	movq	%rax, %rdx
	movq	%rbx, %rcx
	call	_ZNSt6vectorI5pixelSaIS0_EE9push_backERKS0_
	.loc 3 60 0
	addl	$1, -8(%rbp)
	addl	$4, -4(%rbp)
	jmp	.L29
.L30:
.LBE6:
	.loc 3 63 0
	nop
	addq	$80, %rsp
	popq	%rbx
	.cfi_restore 3
	popq	%rsi
	.cfi_restore 4
	popq	%rdi
	.cfi_restore 5
	popq	%r12
	.cfi_restore 12
	popq	%rbp
	.cfi_restore 6
	.cfi_def_cfa 7, 40
	ret
	.cfi_endproc
.LFE2142:
	.seh_endproc
	.section	.text$_ZNSt6vectorI5pixelSaIS0_EEC1Ev,"x"
	.linkonce discard
	.align 2
	.globl	_ZNSt6vectorI5pixelSaIS0_EEC1Ev
	.def	_ZNSt6vectorI5pixelSaIS0_EEC1Ev;	.scl	2;	.type	32;	.endef
	.seh_proc	_ZNSt6vectorI5pixelSaIS0_EEC1Ev
_ZNSt6vectorI5pixelSaIS0_EEC1Ev:
.LFB2383:
	.file 4 "c:/users/ian/downloads/pocketcpp-0.7/pocketcpp/mingw/include/c++/7.2.0/bits/stl_vector.h"
	.loc 4 259 0
	.cfi_startproc
	.cfi_personality 0x9b,.LDFCM0
	.cfi_lsda 0x1c,.LLSDA2383
	pushq	%rbp
	.seh_pushreg	%rbp
	.cfi_def_cfa_offset 16
	.cfi_offset 6, -16
	movq	%rsp, %rbp
	.seh_setframe	%rbp, 0
	.cfi_def_cfa_register 6
	subq	$32, %rsp
	.seh_stackalloc	32
	.seh_endprologue
	movq	%rcx, 16(%rbp)
.LBB7:
	.loc 4 263 0
	movq	16(%rbp), %rax
	movq	%rax, %rcx
	call	_ZNSt12_Vector_baseI5pixelSaIS0_EEC2Ev
.LBE7:
	nop
	addq	$32, %rsp
	popq	%rbp
	.cfi_restore 6
	.cfi_def_cfa 7, 8
	ret
	.cfi_endproc
.LFE2383:
	.seh_handler	__gxx_personality_seh0, @unwind, @except
	.seh_handlerdata
.LLSDA2383:
	.byte	0xff
	.byte	0xff
	.byte	0x1
	.uleb128 .LLSDACSE2383-.LLSDACSB2383
.LLSDACSB2383:
.LLSDACSE2383:
	.section	.text$_ZNSt6vectorI5pixelSaIS0_EEC1Ev,"x"
	.linkonce discard
	.seh_endproc
	.section	.text$_ZNSt6vectorI5pixelSaIS0_EED1Ev,"x"
	.linkonce discard
	.align 2
	.globl	_ZNSt6vectorI5pixelSaIS0_EED1Ev
	.def	_ZNSt6vectorI5pixelSaIS0_EED1Ev;	.scl	2;	.type	32;	.endef
	.seh_proc	_ZNSt6vectorI5pixelSaIS0_EED1Ev
_ZNSt6vectorI5pixelSaIS0_EED1Ev:
.LFB2386:
	.loc 4 433 0
	.cfi_startproc
	.cfi_personality 0x9b,.LDFCM0
	.cfi_lsda 0x1c,.LLSDA2386
	pushq	%rbp
	.seh_pushreg	%rbp
	.cfi_def_cfa_offset 16
	.cfi_offset 6, -16
	movq	%rsp, %rbp
	.seh_setframe	%rbp, 0
	.cfi_def_cfa_register 6
	subq	$32, %rsp
	.seh_stackalloc	32
	.seh_endprologue
	movq	%rcx, 16(%rbp)
.LBB8:
	.loc 4 435 0
	movq	16(%rbp), %rax
	movq	%rax, %rcx
	call	_ZNSt12_Vector_baseI5pixelSaIS0_EE19_M_get_Tp_allocatorEv
	movq	%rax, %rcx
	.loc 4 434 0
	movq	16(%rbp), %rax
	movq	8(%rax), %rdx
	movq	16(%rbp), %rax
	movq	(%rax), %rax
	movq	%rcx, %r8
	movq	%rax, %rcx
	call	_ZSt8_DestroyIP5pixelS0_EvT_S2_RSaIT0_E
	.loc 4 435 0
	movq	16(%rbp), %rax
	movq	%rax, %rcx
	call	_ZNSt12_Vector_baseI5pixelSaIS0_EED2Ev
.LBE8:
	nop
	addq	$32, %rsp
	popq	%rbp
	.cfi_restore 6
	.cfi_def_cfa 7, 8
	ret
	.cfi_endproc
.LFE2386:
	.seh_handler	__gxx_personality_seh0, @unwind, @except
	.seh_handlerdata
.LLSDA2386:
	.byte	0xff
	.byte	0xff
	.byte	0x1
	.uleb128 .LLSDACSE2386-.LLSDACSB2386
.LLSDACSB2386:
.LLSDACSE2386:
	.section	.text$_ZNSt6vectorI5pixelSaIS0_EED1Ev,"x"
	.linkonce discard
	.seh_endproc
	.section	.text$_ZNSt6vectorI5pixelSaIS0_EEixEy,"x"
	.linkonce discard
	.align 2
	.globl	_ZNSt6vectorI5pixelSaIS0_EEixEy
	.def	_ZNSt6vectorI5pixelSaIS0_EEixEy;	.scl	2;	.type	32;	.endef
	.seh_proc	_ZNSt6vectorI5pixelSaIS0_EEixEy
_ZNSt6vectorI5pixelSaIS0_EEixEy:
.LFB2387:
	.loc 4 795 0
	.cfi_startproc
	pushq	%rbp
	.seh_pushreg	%rbp
	.cfi_def_cfa_offset 16
	.cfi_offset 6, -16
	movq	%rsp, %rbp
	.seh_setframe	%rbp, 0
	.cfi_def_cfa_register 6
	.seh_endprologue
	movq	%rcx, 16(%rbp)
	movq	%rdx, 24(%rbp)
	.loc 4 798 0
	movq	16(%rbp), %rax
	movq	(%rax), %rax
	movq	24(%rbp), %rdx
	salq	$2, %rdx
	addq	%rdx, %rax
	.loc 4 799 0
	popq	%rbp
	.cfi_restore 6
	.cfi_def_cfa 7, 8
	ret
	.cfi_endproc
.LFE2387:
	.seh_endproc
	.section	.text$_ZNSt6vectorIhSaIhEEC1Ev,"x"
	.linkonce discard
	.align 2
	.globl	_ZNSt6vectorIhSaIhEEC1Ev
	.def	_ZNSt6vectorIhSaIhEEC1Ev;	.scl	2;	.type	32;	.endef
	.seh_proc	_ZNSt6vectorIhSaIhEEC1Ev
_ZNSt6vectorIhSaIhEEC1Ev:
.LFB2390:
	.loc 4 259 0
	.cfi_startproc
	.cfi_personality 0x9b,.LDFCM0
	.cfi_lsda 0x1c,.LLSDA2390
	pushq	%rbp
	.seh_pushreg	%rbp
	.cfi_def_cfa_offset 16
	.cfi_offset 6, -16
	movq	%rsp, %rbp
	.seh_setframe	%rbp, 0
	.cfi_def_cfa_register 6
	subq	$32, %rsp
	.seh_stackalloc	32
	.seh_endprologue
	movq	%rcx, 16(%rbp)
.LBB9:
	.loc 4 263 0
	movq	16(%rbp), %rax
	movq	%rax, %rcx
	call	_ZNSt12_Vector_baseIhSaIhEEC2Ev
.LBE9:
	nop
	addq	$32, %rsp
	popq	%rbp
	.cfi_restore 6
	.cfi_def_cfa 7, 8
	ret
	.cfi_endproc
.LFE2390:
	.seh_handler	__gxx_personality_seh0, @unwind, @except
	.seh_handlerdata
.LLSDA2390:
	.byte	0xff
	.byte	0xff
	.byte	0x1
	.uleb128 .LLSDACSE2390-.LLSDACSB2390
.LLSDACSB2390:
.LLSDACSE2390:
	.section	.text$_ZNSt6vectorIhSaIhEEC1Ev,"x"
	.linkonce discard
	.seh_endproc
	.section	.text$_ZNSt6vectorIhSaIhEED1Ev,"x"
	.linkonce discard
	.align 2
	.globl	_ZNSt6vectorIhSaIhEED1Ev
	.def	_ZNSt6vectorIhSaIhEED1Ev;	.scl	2;	.type	32;	.endef
	.seh_proc	_ZNSt6vectorIhSaIhEED1Ev
_ZNSt6vectorIhSaIhEED1Ev:
.LFB2393:
	.loc 4 433 0
	.cfi_startproc
	.cfi_personality 0x9b,.LDFCM0
	.cfi_lsda 0x1c,.LLSDA2393
	pushq	%rbp
	.seh_pushreg	%rbp
	.cfi_def_cfa_offset 16
	.cfi_offset 6, -16
	movq	%rsp, %rbp
	.seh_setframe	%rbp, 0
	.cfi_def_cfa_register 6
	subq	$32, %rsp
	.seh_stackalloc	32
	.seh_endprologue
	movq	%rcx, 16(%rbp)
.LBB10:
	.loc 4 435 0
	movq	16(%rbp), %rax
	movq	%rax, %rcx
	call	_ZNSt12_Vector_baseIhSaIhEE19_M_get_Tp_allocatorEv
	movq	%rax, %rcx
	.loc 4 434 0
	movq	16(%rbp), %rax
	movq	8(%rax), %rdx
	movq	16(%rbp), %rax
	movq	(%rax), %rax
	movq	%rcx, %r8
	movq	%rax, %rcx
	call	_ZSt8_DestroyIPhhEvT_S1_RSaIT0_E
	.loc 4 435 0
	movq	16(%rbp), %rax
	movq	%rax, %rcx
	call	_ZNSt12_Vector_baseIhSaIhEED2Ev
.LBE10:
	nop
	addq	$32, %rsp
	popq	%rbp
	.cfi_restore 6
	.cfi_def_cfa 7, 8
	ret
	.cfi_endproc
.LFE2393:
	.seh_handler	__gxx_personality_seh0, @unwind, @except
	.seh_handlerdata
.LLSDA2393:
	.byte	0xff
	.byte	0xff
	.byte	0x1
	.uleb128 .LLSDACSE2393-.LLSDACSB2393
.LLSDACSB2393:
.LLSDACSE2393:
	.section	.text$_ZNSt6vectorIhSaIhEED1Ev,"x"
	.linkonce discard
	.seh_endproc
	.section	.text$_ZNSt6vectorIhSaIhEEC1ERKS1_,"x"
	.linkonce discard
	.align 2
	.globl	_ZNSt6vectorIhSaIhEEC1ERKS1_
	.def	_ZNSt6vectorIhSaIhEEC1ERKS1_;	.scl	2;	.type	32;	.endef
	.seh_proc	_ZNSt6vectorIhSaIhEEC1ERKS1_
_ZNSt6vectorIhSaIhEEC1ERKS1_:
.LFB2403:
	.loc 4 326 0
	.cfi_startproc
	.cfi_personality 0x9b,.LDFCM0
	.cfi_lsda 0x1c,.LLSDA2403
	pushq	%rbp
	.seh_pushreg	%rbp
	.cfi_def_cfa_offset 16
	.cfi_offset 6, -16
	pushq	%rdi
	.seh_pushreg	%rdi
	.cfi_def_cfa_offset 24
	.cfi_offset 5, -24
	pushq	%rsi
	.seh_pushreg	%rsi
	.cfi_def_cfa_offset 32
	.cfi_offset 4, -32
	pushq	%rbx
	.seh_pushreg	%rbx
	.cfi_def_cfa_offset 40
	.cfi_offset 3, -40
	subq	$56, %rsp
	.seh_stackalloc	56
	.cfi_def_cfa_offset 96
	leaq	128(%rsp), %rbp
	.seh_setframe	%rbp, 128
	.cfi_def_cfa 6, -32
	.seh_endprologue
	movq	%rcx, -32(%rbp)
	movq	%rdx, -24(%rbp)
.LBB11:
	.loc 4 328 0
	movq	-32(%rbp), %rbx
	movq	-24(%rbp), %rax
	movq	%rax, %rcx
	call	_ZNKSt12_Vector_baseIhSaIhEE19_M_get_Tp_allocatorEv
	movq	%rax, %rdx
	leaq	-81(%rbp), %rax
	movq	%rax, %rcx
.LEHB7:
	call	_ZN9__gnu_cxx14__alloc_traitsISaIhEE17_S_select_on_copyERKS1_
.LEHE7:
	movq	-24(%rbp), %rax
	movq	%rax, %rcx
	call	_ZNKSt6vectorIhSaIhEE4sizeEv
	movq	%rax, %rdx
	leaq	-81(%rbp), %rax
	movq	%rax, %r8
	movq	%rbx, %rcx
.LEHB8:
	call	_ZNSt12_Vector_baseIhSaIhEEC2EyRKS0_
.LEHE8:
	.loc 4 328 0 is_stmt 0 discriminator 2
	leaq	-81(%rbp), %rax
	movq	%rax, %rcx
	call	_ZNSaIhED1Ev
	.loc 4 333 0 is_stmt 1 discriminator 2
	movq	-32(%rbp), %rax
	movq	%rax, %rcx
	call	_ZNSt12_Vector_baseIhSaIhEE19_M_get_Tp_allocatorEv
	movq	%rax, %rdi
	.loc 4 331 0 discriminator 2
	movq	-32(%rbp), %rax
	movq	(%rax), %rbx
	movq	-24(%rbp), %rax
	movq	%rax, %rcx
	call	_ZNKSt6vectorIhSaIhEE3endEv
	movq	%rax, %rsi
	movq	-24(%rbp), %rax
	movq	%rax, %rcx
	call	_ZNKSt6vectorIhSaIhEE5beginEv
	movq	%rdi, %r9
	movq	%rbx, %r8
	movq	%rsi, %rdx
	movq	%rax, %rcx
.LEHB9:
	call	_ZSt22__uninitialized_copy_aIN9__gnu_cxx17__normal_iteratorIPKhSt6vectorIhSaIhEEEEPhhET0_T_SA_S9_RSaIT1_E
.LEHE9:
	movq	%rax, %rdx
	.loc 4 330 0 discriminator 2
	movq	-32(%rbp), %rax
	movq	%rdx, 8(%rax)
.LBE11:
	.loc 4 334 0 discriminator 2
	jmp	.L42
.L40:
	movq	%rax, %rbx
.LBB12:
	.loc 4 328 0
	leaq	-81(%rbp), %rax
	movq	%rax, %rcx
	call	_ZNSaIhED1Ev
	movq	%rbx, %rax
	movq	%rax, %rcx
.LEHB10:
	call	_Unwind_Resume
.L41:
	movq	%rax, %rbx
	movq	-32(%rbp), %rax
	movq	%rax, %rcx
	call	_ZNSt12_Vector_baseIhSaIhEED2Ev
	movq	%rbx, %rax
	movq	%rax, %rcx
	call	_Unwind_Resume
	nop
.LEHE10:
.L42:
.LBE12:
	.loc 4 334 0
	addq	$56, %rsp
	popq	%rbx
	.cfi_restore 3
	popq	%rsi
	.cfi_restore 4
	popq	%rdi
	.cfi_restore 5
	popq	%rbp
	.cfi_restore 6
	.cfi_def_cfa 7, -24
	ret
	.cfi_endproc
.LFE2403:
	.seh_handler	__gxx_personality_seh0, @unwind, @except
	.seh_handlerdata
.LLSDA2403:
	.byte	0xff
	.byte	0xff
	.byte	0x1
	.uleb128 .LLSDACSE2403-.LLSDACSB2403
.LLSDACSB2403:
	.uleb128 .LEHB7-.LFB2403
	.uleb128 .LEHE7-.LEHB7
	.uleb128 0
	.uleb128 0
	.uleb128 .LEHB8-.LFB2403
	.uleb128 .LEHE8-.LEHB8
	.uleb128 .L40-.LFB2403
	.uleb128 0
	.uleb128 .LEHB9-.LFB2403
	.uleb128 .LEHE9-.LEHB9
	.uleb128 .L41-.LFB2403
	.uleb128 0
	.uleb128 .LEHB10-.LFB2403
	.uleb128 .LEHE10-.LEHB10
	.uleb128 0
	.uleb128 0
.LLSDACSE2403:
	.section	.text$_ZNSt6vectorIhSaIhEEC1ERKS1_,"x"
	.linkonce discard
	.seh_endproc
	.section	.text$_ZNKSt6vectorIhSaIhEE4sizeEv,"x"
	.linkonce discard
	.align 2
	.globl	_ZNKSt6vectorIhSaIhEE4sizeEv
	.def	_ZNKSt6vectorIhSaIhEE4sizeEv;	.scl	2;	.type	32;	.endef
	.seh_proc	_ZNKSt6vectorIhSaIhEE4sizeEv
_ZNKSt6vectorIhSaIhEE4sizeEv:
.LFB2404:
	.loc 4 670 0
	.cfi_startproc
	pushq	%rbp
	.seh_pushreg	%rbp
	.cfi_def_cfa_offset 16
	.cfi_offset 6, -16
	movq	%rsp, %rbp
	.seh_setframe	%rbp, 0
	.cfi_def_cfa_register 6
	.seh_endprologue
	movq	%rcx, 16(%rbp)
	.loc 4 671 0
	movq	16(%rbp), %rax
	movq	8(%rax), %rax
	movq	%rax, %rdx
	movq	16(%rbp), %rax
	movq	(%rax), %rax
	subq	%rax, %rdx
	movq	%rdx, %rax
	popq	%rbp
	.cfi_restore 6
	.cfi_def_cfa 7, 8
	ret
	.cfi_endproc
.LFE2404:
	.seh_endproc
	.section .rdata,"dr"
.LC1:
	.ascii "vector::reserve\0"
	.section	.text$_ZNSt6vectorI5pixelSaIS0_EE7reserveEy,"x"
	.linkonce discard
	.align 2
	.globl	_ZNSt6vectorI5pixelSaIS0_EE7reserveEy
	.def	_ZNSt6vectorI5pixelSaIS0_EE7reserveEy;	.scl	2;	.type	32;	.endef
	.seh_proc	_ZNSt6vectorI5pixelSaIS0_EE7reserveEy
_ZNSt6vectorI5pixelSaIS0_EE7reserveEy:
.LFB2405:
	.file 5 "c:/users/ian/downloads/pocketcpp-0.7/pocketcpp/mingw/include/c++/7.2.0/bits/vector.tcc"
	.loc 5 65 0
	.cfi_startproc
	pushq	%rbp
	.seh_pushreg	%rbp
	.cfi_def_cfa_offset 16
	.cfi_offset 6, -16
	pushq	%rbx
	.seh_pushreg	%rbx
	.cfi_def_cfa_offset 24
	.cfi_offset 3, -24
	subq	$56, %rsp
	.seh_stackalloc	56
	.cfi_def_cfa_offset 80
	leaq	128(%rsp), %rbp
	.seh_setframe	%rbp, 128
	.cfi_def_cfa 6, -48
	.seh_endprologue
	movq	%rcx, -48(%rbp)
	movq	%rdx, -40(%rbp)
	.loc 5 68 0
	movq	-48(%rbp), %rcx
	call	_ZNKSt6vectorI5pixelSaIS0_EE8max_sizeEv
	cmpq	%rax, -40(%rbp)
	seta	%al
	testb	%al, %al
	je	.L46
	.loc 5 69 0
	leaq	.LC1(%rip), %rcx
	call	_ZSt20__throw_length_errorPKc
.L46:
.LBB13:
	.loc 5 70 0
	movq	-48(%rbp), %rcx
	call	_ZNKSt6vectorI5pixelSaIS0_EE8capacityEv
	cmpq	%rax, -40(%rbp)
	seta	%al
	testb	%al, %al
	je	.L48
.LBB14:
	.loc 5 72 0
	movq	-48(%rbp), %rcx
	call	_ZNKSt6vectorI5pixelSaIS0_EE4sizeEv
	movq	%rax, -88(%rbp)
	.loc 5 73 0
	movq	-48(%rbp), %rax
	movq	8(%rax), %rax
	movq	%rax, %rcx
	call	_ZSt32__make_move_if_noexcept_iteratorI5pixelSt13move_iteratorIPS0_EET0_PT_
	movq	%rax, %rbx
	movq	-48(%rbp), %rax
	movq	(%rax), %rax
	movq	%rax, %rcx
	call	_ZSt32__make_move_if_noexcept_iteratorI5pixelSt13move_iteratorIPS0_EET0_PT_
	movq	%rax, %rdx
	movq	-40(%rbp), %rax
	movq	%rbx, %r9
	movq	%rdx, %r8
	movq	%rax, %rdx
	movq	-48(%rbp), %rcx
	call	_ZNSt6vectorI5pixelSaIS0_EE20_M_allocate_and_copyISt13move_iteratorIPS0_EEES5_yT_S7_
	movq	%rax, -96(%rbp)
	.loc 5 77 0
	movq	-48(%rbp), %rax
	movq	%rax, %rcx
	call	_ZNSt12_Vector_baseI5pixelSaIS0_EE19_M_get_Tp_allocatorEv
	movq	%rax, %rcx
	.loc 5 76 0
	movq	-48(%rbp), %rax
	movq	8(%rax), %rdx
	movq	-48(%rbp), %rax
	movq	(%rax), %rax
	movq	%rcx, %r8
	movq	%rax, %rcx
	call	_ZSt8_DestroyIP5pixelS0_EvT_S2_RSaIT0_E
	.loc 5 78 0
	movq	-48(%rbp), %rax
	.loc 5 79 0
	movq	-48(%rbp), %rdx
	movq	16(%rdx), %rdx
	.loc 5 80 0
	movq	%rdx, %rcx
	movq	-48(%rbp), %rdx
	movq	(%rdx), %rdx
	subq	%rdx, %rcx
	movq	%rcx, %rdx
	sarq	$2, %rdx
	.loc 5 78 0
	movq	%rdx, %rcx
	movq	-48(%rbp), %rdx
	movq	(%rdx), %rdx
	movq	%rcx, %r8
	movq	%rax, %rcx
	call	_ZNSt12_Vector_baseI5pixelSaIS0_EE13_M_deallocateEPS0_y
	.loc 5 81 0
	movq	-48(%rbp), %rax
	movq	-96(%rbp), %rdx
	movq	%rdx, (%rax)
	.loc 5 82 0
	movq	-88(%rbp), %rax
	leaq	0(,%rax,4), %rdx
	movq	-96(%rbp), %rax
	addq	%rax, %rdx
	movq	-48(%rbp), %rax
	movq	%rdx, 8(%rax)
	.loc 5 83 0
	movq	-48(%rbp), %rax
	movq	(%rax), %rax
	movq	-40(%rbp), %rdx
	salq	$2, %rdx
	addq	%rax, %rdx
	movq	-48(%rbp), %rax
	movq	%rdx, 16(%rax)
.L48:
.LBE14:
.LBE13:
	.loc 5 85 0
	nop
	addq	$56, %rsp
	popq	%rbx
	.cfi_restore 3
	popq	%rbp
	.cfi_restore 6
	.cfi_def_cfa 7, -40
	ret
	.cfi_endproc
.LFE2405:
	.seh_endproc
	.section	.text$_ZNSt6vectorIhSaIhEEixEy,"x"
	.linkonce discard
	.align 2
	.globl	_ZNSt6vectorIhSaIhEEixEy
	.def	_ZNSt6vectorIhSaIhEEixEy;	.scl	2;	.type	32;	.endef
	.seh_proc	_ZNSt6vectorIhSaIhEEixEy
_ZNSt6vectorIhSaIhEEixEy:
.LFB2406:
	.loc 4 795 0
	.cfi_startproc
	pushq	%rbp
	.seh_pushreg	%rbp
	.cfi_def_cfa_offset 16
	.cfi_offset 6, -16
	movq	%rsp, %rbp
	.seh_setframe	%rbp, 0
	.cfi_def_cfa_register 6
	.seh_endprologue
	movq	%rcx, 16(%rbp)
	movq	%rdx, 24(%rbp)
	.loc 4 798 0
	movq	16(%rbp), %rax
	movq	(%rax), %rdx
	movq	24(%rbp), %rax
	addq	%rdx, %rax
	.loc 4 799 0
	popq	%rbp
	.cfi_restore 6
	.cfi_def_cfa 7, 8
	ret
	.cfi_endproc
.LFE2406:
	.seh_endproc
	.section	.text$_ZNSt6vectorI5pixelSaIS0_EE9push_backERKS0_,"x"
	.linkonce discard
	.align 2
	.globl	_ZNSt6vectorI5pixelSaIS0_EE9push_backERKS0_
	.def	_ZNSt6vectorI5pixelSaIS0_EE9push_backERKS0_;	.scl	2;	.type	32;	.endef
	.seh_proc	_ZNSt6vectorI5pixelSaIS0_EE9push_backERKS0_
_ZNSt6vectorI5pixelSaIS0_EE9push_backERKS0_:
.LFB2407:
	.loc 4 939 0
	.cfi_startproc
	pushq	%rbp
	.seh_pushreg	%rbp
	.cfi_def_cfa_offset 16
	.cfi_offset 6, -16
	movq	%rsp, %rbp
	.seh_setframe	%rbp, 0
	.cfi_def_cfa_register 6
	subq	$32, %rsp
	.seh_stackalloc	32
	.seh_endprologue
	movq	%rcx, 16(%rbp)
	movq	%rdx, 24(%rbp)
	.loc 4 941 0
	movq	16(%rbp), %rax
	movq	8(%rax), %rdx
	movq	16(%rbp), %rax
	movq	16(%rax), %rax
	cmpq	%rax, %rdx
	je	.L52
	.loc 4 943 0
	movq	16(%rbp), %rax
	movq	8(%rax), %rdx
	movq	16(%rbp), %rax
	movq	24(%rbp), %rcx
	movq	%rcx, %r8
	movq	%rax, %rcx
	call	_ZNSt16allocator_traitsISaI5pixelEE9constructIS0_JRKS0_EEEvRS1_PT_DpOT0_
	.loc 4 945 0
	movq	16(%rbp), %rax
	movq	8(%rax), %rax
	leaq	4(%rax), %rdx
	movq	16(%rbp), %rax
	movq	%rdx, 8(%rax)
	.loc 4 949 0
	jmp	.L54
.L52:
	.loc 4 948 0
	movq	16(%rbp), %rcx
	call	_ZNSt6vectorI5pixelSaIS0_EE3endEv
	movq	%rax, %rdx
	movq	24(%rbp), %rax
	movq	%rax, %r8
	movq	16(%rbp), %rcx
	call	_ZNSt6vectorI5pixelSaIS0_EE17_M_realloc_insertIJRKS0_EEEvN9__gnu_cxx17__normal_iteratorIPS0_S2_EEDpOT_
.L54:
	.loc 4 949 0
	nop
	addq	$32, %rsp
	popq	%rbp
	.cfi_restore 6
	.cfi_def_cfa 7, 8
	ret
	.cfi_endproc
.LFE2407:
	.seh_endproc
	.section	.text$_ZNSt12_Vector_baseI5pixelSaIS0_EE12_Vector_implD1Ev,"x"
	.linkonce discard
	.align 2
	.globl	_ZNSt12_Vector_baseI5pixelSaIS0_EE12_Vector_implD1Ev
	.def	_ZNSt12_Vector_baseI5pixelSaIS0_EE12_Vector_implD1Ev;	.scl	2;	.type	32;	.endef
	.seh_proc	_ZNSt12_Vector_baseI5pixelSaIS0_EE12_Vector_implD1Ev
_ZNSt12_Vector_baseI5pixelSaIS0_EE12_Vector_implD1Ev:
.LFB2521:
	.loc 4 81 0
	.cfi_startproc
	pushq	%rbp
	.seh_pushreg	%rbp
	.cfi_def_cfa_offset 16
	.cfi_offset 6, -16
	movq	%rsp, %rbp
	.seh_setframe	%rbp, 0
	.cfi_def_cfa_register 6
	subq	$32, %rsp
	.seh_stackalloc	32
	.seh_endprologue
	movq	%rcx, 16(%rbp)
.LBB15:
	.loc 4 81 0
	movq	16(%rbp), %rcx
	call	_ZNSaI5pixelED2Ev
.LBE15:
	nop
	addq	$32, %rsp
	popq	%rbp
	.cfi_restore 6
	.cfi_def_cfa 7, 8
	ret
	.cfi_endproc
.LFE2521:
	.seh_endproc
	.section	.text$_ZNSt12_Vector_baseI5pixelSaIS0_EEC2Ev,"x"
	.linkonce discard
	.align 2
	.globl	_ZNSt12_Vector_baseI5pixelSaIS0_EEC2Ev
	.def	_ZNSt12_Vector_baseI5pixelSaIS0_EEC2Ev;	.scl	2;	.type	32;	.endef
	.seh_proc	_ZNSt12_Vector_baseI5pixelSaIS0_EEC2Ev
_ZNSt12_Vector_baseI5pixelSaIS0_EEC2Ev:
.LFB2522:
	.loc 4 126 0
	.cfi_startproc
	pushq	%rbp
	.seh_pushreg	%rbp
	.cfi_def_cfa_offset 16
	.cfi_offset 6, -16
	movq	%rsp, %rbp
	.seh_setframe	%rbp, 0
	.cfi_def_cfa_register 6
	subq	$32, %rsp
	.seh_stackalloc	32
	.seh_endprologue
	movq	%rcx, 16(%rbp)
.LBB16:
	.loc 4 127 0
	movq	16(%rbp), %rax
	movq	%rax, %rcx
	call	_ZNSt12_Vector_baseI5pixelSaIS0_EE12_Vector_implC1Ev
.LBE16:
	nop
	addq	$32, %rsp
	popq	%rbp
	.cfi_restore 6
	.cfi_def_cfa 7, 8
	ret
	.cfi_endproc
.LFE2522:
	.seh_endproc
	.section	.text$_ZNSt12_Vector_baseI5pixelSaIS0_EED2Ev,"x"
	.linkonce discard
	.align 2
	.globl	_ZNSt12_Vector_baseI5pixelSaIS0_EED2Ev
	.def	_ZNSt12_Vector_baseI5pixelSaIS0_EED2Ev;	.scl	2;	.type	32;	.endef
	.seh_proc	_ZNSt12_Vector_baseI5pixelSaIS0_EED2Ev
_ZNSt12_Vector_baseI5pixelSaIS0_EED2Ev:
.LFB2525:
	.loc 4 161 0
	.cfi_startproc
	.cfi_personality 0x9b,.LDFCM0
	.cfi_lsda 0x1c,.LLSDA2525
	pushq	%rbp
	.seh_pushreg	%rbp
	.cfi_def_cfa_offset 16
	.cfi_offset 6, -16
	movq	%rsp, %rbp
	.seh_setframe	%rbp, 0
	.cfi_def_cfa_register 6
	subq	$32, %rsp
	.seh_stackalloc	32
	.seh_endprologue
	movq	%rcx, 16(%rbp)
.LBB17:
	.loc 4 162 0
	movq	16(%rbp), %rax
	movq	16(%rax), %rax
	.loc 4 163 0
	movq	%rax, %rdx
	movq	16(%rbp), %rax
	movq	(%rax), %rax
	subq	%rax, %rdx
	movq	%rdx, %rax
	sarq	$2, %rax
	.loc 4 162 0
	movq	%rax, %rdx
	movq	16(%rbp), %rax
	movq	(%rax), %rax
	movq	%rdx, %r8
	movq	%rax, %rdx
	movq	16(%rbp), %rcx
	call	_ZNSt12_Vector_baseI5pixelSaIS0_EE13_M_deallocateEPS0_y
	.loc 4 163 0
	movq	16(%rbp), %rax
	movq	%rax, %rcx
	call	_ZNSt12_Vector_baseI5pixelSaIS0_EE12_Vector_implD1Ev
.LBE17:
	nop
	addq	$32, %rsp
	popq	%rbp
	.cfi_restore 6
	.cfi_def_cfa 7, 8
	ret
	.cfi_endproc
.LFE2525:
	.seh_handler	__gxx_personality_seh0, @unwind, @except
	.seh_handlerdata
.LLSDA2525:
	.byte	0xff
	.byte	0xff
	.byte	0x1
	.uleb128 .LLSDACSE2525-.LLSDACSB2525
.LLSDACSB2525:
.LLSDACSE2525:
	.section	.text$_ZNSt12_Vector_baseI5pixelSaIS0_EED2Ev,"x"
	.linkonce discard
	.seh_endproc
	.section	.text$_ZNSt12_Vector_baseI5pixelSaIS0_EE19_M_get_Tp_allocatorEv,"x"
	.linkonce discard
	.align 2
	.globl	_ZNSt12_Vector_baseI5pixelSaIS0_EE19_M_get_Tp_allocatorEv
	.def	_ZNSt12_Vector_baseI5pixelSaIS0_EE19_M_get_Tp_allocatorEv;	.scl	2;	.type	32;	.endef
	.seh_proc	_ZNSt12_Vector_baseI5pixelSaIS0_EE19_M_get_Tp_allocatorEv
_ZNSt12_Vector_baseI5pixelSaIS0_EE19_M_get_Tp_allocatorEv:
.LFB2527:
	.loc 4 115 0
	.cfi_startproc
	pushq	%rbp
	.seh_pushreg	%rbp
	.cfi_def_cfa_offset 16
	.cfi_offset 6, -16
	movq	%rsp, %rbp
	.seh_setframe	%rbp, 0
	.cfi_def_cfa_register 6
	.seh_endprologue
	movq	%rcx, 16(%rbp)
	.loc 4 116 0
	movq	16(%rbp), %rax
	popq	%rbp
	.cfi_restore 6
	.cfi_def_cfa 7, 8
	ret
	.cfi_endproc
.LFE2527:
	.seh_endproc
	.section	.text$_ZSt8_DestroyIP5pixelS0_EvT_S2_RSaIT0_E,"x"
	.linkonce discard
	.globl	_ZSt8_DestroyIP5pixelS0_EvT_S2_RSaIT0_E
	.def	_ZSt8_DestroyIP5pixelS0_EvT_S2_RSaIT0_E;	.scl	2;	.type	32;	.endef
	.seh_proc	_ZSt8_DestroyIP5pixelS0_EvT_S2_RSaIT0_E
_ZSt8_DestroyIP5pixelS0_EvT_S2_RSaIT0_E:
.LFB2528:
	.file 6 "c:/users/ian/downloads/pocketcpp-0.7/pocketcpp/mingw/include/c++/7.2.0/bits/stl_construct.h"
	.loc 6 203 0
	.cfi_startproc
	pushq	%rbp
	.seh_pushreg	%rbp
	.cfi_def_cfa_offset 16
	.cfi_offset 6, -16
	movq	%rsp, %rbp
	.seh_setframe	%rbp, 0
	.cfi_def_cfa_register 6
	subq	$32, %rsp
	.seh_stackalloc	32
	.seh_endprologue
	movq	%rcx, 16(%rbp)
	movq	%rdx, 24(%rbp)
	movq	%r8, 32(%rbp)
	.loc 6 206 0
	movq	24(%rbp), %rax
	movq	%rax, %rdx
	movq	16(%rbp), %rcx
	call	_ZSt8_DestroyIP5pixelEvT_S2_
	.loc 6 207 0
	nop
	addq	$32, %rsp
	popq	%rbp
	.cfi_restore 6
	.cfi_def_cfa 7, 8
	ret
	.cfi_endproc
.LFE2528:
	.seh_endproc
	.section	.text$_ZNSt12_Vector_baseIhSaIhEE12_Vector_implD1Ev,"x"
	.linkonce discard
	.align 2
	.globl	_ZNSt12_Vector_baseIhSaIhEE12_Vector_implD1Ev
	.def	_ZNSt12_Vector_baseIhSaIhEE12_Vector_implD1Ev;	.scl	2;	.type	32;	.endef
	.seh_proc	_ZNSt12_Vector_baseIhSaIhEE12_Vector_implD1Ev
_ZNSt12_Vector_baseIhSaIhEE12_Vector_implD1Ev:
.LFB2532:
	.loc 4 81 0
	.cfi_startproc
	pushq	%rbp
	.seh_pushreg	%rbp
	.cfi_def_cfa_offset 16
	.cfi_offset 6, -16
	movq	%rsp, %rbp
	.seh_setframe	%rbp, 0
	.cfi_def_cfa_register 6
	subq	$32, %rsp
	.seh_stackalloc	32
	.seh_endprologue
	movq	%rcx, 16(%rbp)
.LBB18:
	.loc 4 81 0
	movq	16(%rbp), %rcx
	call	_ZNSaIhED2Ev
.LBE18:
	nop
	addq	$32, %rsp
	popq	%rbp
	.cfi_restore 6
	.cfi_def_cfa 7, 8
	ret
	.cfi_endproc
.LFE2532:
	.seh_endproc
	.section	.text$_ZNSt12_Vector_baseIhSaIhEEC2Ev,"x"
	.linkonce discard
	.align 2
	.globl	_ZNSt12_Vector_baseIhSaIhEEC2Ev
	.def	_ZNSt12_Vector_baseIhSaIhEEC2Ev;	.scl	2;	.type	32;	.endef
	.seh_proc	_ZNSt12_Vector_baseIhSaIhEEC2Ev
_ZNSt12_Vector_baseIhSaIhEEC2Ev:
.LFB2533:
	.loc 4 126 0
	.cfi_startproc
	pushq	%rbp
	.seh_pushreg	%rbp
	.cfi_def_cfa_offset 16
	.cfi_offset 6, -16
	movq	%rsp, %rbp
	.seh_setframe	%rbp, 0
	.cfi_def_cfa_register 6
	subq	$32, %rsp
	.seh_stackalloc	32
	.seh_endprologue
	movq	%rcx, 16(%rbp)
.LBB19:
	.loc 4 127 0
	movq	16(%rbp), %rax
	movq	%rax, %rcx
	call	_ZNSt12_Vector_baseIhSaIhEE12_Vector_implC1Ev
.LBE19:
	nop
	addq	$32, %rsp
	popq	%rbp
	.cfi_restore 6
	.cfi_def_cfa 7, 8
	ret
	.cfi_endproc
.LFE2533:
	.seh_endproc
	.section	.text$_ZNSt12_Vector_baseIhSaIhEED2Ev,"x"
	.linkonce discard
	.align 2
	.globl	_ZNSt12_Vector_baseIhSaIhEED2Ev
	.def	_ZNSt12_Vector_baseIhSaIhEED2Ev;	.scl	2;	.type	32;	.endef
	.seh_proc	_ZNSt12_Vector_baseIhSaIhEED2Ev
_ZNSt12_Vector_baseIhSaIhEED2Ev:
.LFB2536:
	.loc 4 161 0
	.cfi_startproc
	.cfi_personality 0x9b,.LDFCM0
	.cfi_lsda 0x1c,.LLSDA2536
	pushq	%rbp
	.seh_pushreg	%rbp
	.cfi_def_cfa_offset 16
	.cfi_offset 6, -16
	movq	%rsp, %rbp
	.seh_setframe	%rbp, 0
	.cfi_def_cfa_register 6
	subq	$32, %rsp
	.seh_stackalloc	32
	.seh_endprologue
	movq	%rcx, 16(%rbp)
.LBB20:
	.loc 4 162 0
	movq	16(%rbp), %rax
	movq	16(%rax), %rax
	.loc 4 163 0
	movq	%rax, %rdx
	movq	16(%rbp), %rax
	movq	(%rax), %rax
	subq	%rax, %rdx
	movq	%rdx, %rax
	.loc 4 162 0
	movq	%rax, %rdx
	movq	16(%rbp), %rax
	movq	(%rax), %rax
	movq	%rdx, %r8
	movq	%rax, %rdx
	movq	16(%rbp), %rcx
	call	_ZNSt12_Vector_baseIhSaIhEE13_M_deallocateEPhy
	.loc 4 163 0
	movq	16(%rbp), %rax
	movq	%rax, %rcx
	call	_ZNSt12_Vector_baseIhSaIhEE12_Vector_implD1Ev
.LBE20:
	nop
	addq	$32, %rsp
	popq	%rbp
	.cfi_restore 6
	.cfi_def_cfa 7, 8
	ret
	.cfi_endproc
.LFE2536:
	.seh_handler	__gxx_personality_seh0, @unwind, @except
	.seh_handlerdata
.LLSDA2536:
	.byte	0xff
	.byte	0xff
	.byte	0x1
	.uleb128 .LLSDACSE2536-.LLSDACSB2536
.LLSDACSB2536:
.LLSDACSE2536:
	.section	.text$_ZNSt12_Vector_baseIhSaIhEED2Ev,"x"
	.linkonce discard
	.seh_endproc
	.section	.text$_ZNSt12_Vector_baseIhSaIhEE19_M_get_Tp_allocatorEv,"x"
	.linkonce discard
	.align 2
	.globl	_ZNSt12_Vector_baseIhSaIhEE19_M_get_Tp_allocatorEv
	.def	_ZNSt12_Vector_baseIhSaIhEE19_M_get_Tp_allocatorEv;	.scl	2;	.type	32;	.endef
	.seh_proc	_ZNSt12_Vector_baseIhSaIhEE19_M_get_Tp_allocatorEv
_ZNSt12_Vector_baseIhSaIhEE19_M_get_Tp_allocatorEv:
.LFB2538:
	.loc 4 115 0
	.cfi_startproc
	pushq	%rbp
	.seh_pushreg	%rbp
	.cfi_def_cfa_offset 16
	.cfi_offset 6, -16
	movq	%rsp, %rbp
	.seh_setframe	%rbp, 0
	.cfi_def_cfa_register 6
	.seh_endprologue
	movq	%rcx, 16(%rbp)
	.loc 4 116 0
	movq	16(%rbp), %rax
	popq	%rbp
	.cfi_restore 6
	.cfi_def_cfa 7, 8
	ret
	.cfi_endproc
.LFE2538:
	.seh_endproc
	.section	.text$_ZSt8_DestroyIPhhEvT_S1_RSaIT0_E,"x"
	.linkonce discard
	.globl	_ZSt8_DestroyIPhhEvT_S1_RSaIT0_E
	.def	_ZSt8_DestroyIPhhEvT_S1_RSaIT0_E;	.scl	2;	.type	32;	.endef
	.seh_proc	_ZSt8_DestroyIPhhEvT_S1_RSaIT0_E
_ZSt8_DestroyIPhhEvT_S1_RSaIT0_E:
.LFB2539:
	.loc 6 203 0
	.cfi_startproc
	pushq	%rbp
	.seh_pushreg	%rbp
	.cfi_def_cfa_offset 16
	.cfi_offset 6, -16
	movq	%rsp, %rbp
	.seh_setframe	%rbp, 0
	.cfi_def_cfa_register 6
	subq	$32, %rsp
	.seh_stackalloc	32
	.seh_endprologue
	movq	%rcx, 16(%rbp)
	movq	%rdx, 24(%rbp)
	movq	%r8, 32(%rbp)
	.loc 6 206 0
	movq	24(%rbp), %rax
	movq	%rax, %rdx
	movq	16(%rbp), %rcx
	call	_ZSt8_DestroyIPhEvT_S1_
	.loc 6 207 0
	nop
	addq	$32, %rsp
	popq	%rbp
	.cfi_restore 6
	.cfi_def_cfa 7, 8
	ret
	.cfi_endproc
.LFE2539:
	.seh_endproc
	.section	.text$_ZN9__gnu_cxx14__alloc_traitsISaIhEE17_S_select_on_copyERKS1_,"x"
	.linkonce discard
	.globl	_ZN9__gnu_cxx14__alloc_traitsISaIhEE17_S_select_on_copyERKS1_
	.def	_ZN9__gnu_cxx14__alloc_traitsISaIhEE17_S_select_on_copyERKS1_;	.scl	2;	.type	32;	.endef
	.seh_proc	_ZN9__gnu_cxx14__alloc_traitsISaIhEE17_S_select_on_copyERKS1_
_ZN9__gnu_cxx14__alloc_traitsISaIhEE17_S_select_on_copyERKS1_:
.LFB2543:
	.file 7 "c:/users/ian/downloads/pocketcpp-0.7/pocketcpp/mingw/include/c++/7.2.0/ext/alloc_traits.h"
	.loc 7 94 0
	.cfi_startproc
	pushq	%rbp
	.seh_pushreg	%rbp
	.cfi_def_cfa_offset 16
	.cfi_offset 6, -16
	movq	%rsp, %rbp
	.seh_setframe	%rbp, 0
	.cfi_def_cfa_register 6
	subq	$32, %rsp
	.seh_stackalloc	32
	.seh_endprologue
	movq	%rcx, 16(%rbp)
	movq	%rdx, 24(%rbp)
	.loc 7 95 0
	movq	16(%rbp), %rax
	movq	24(%rbp), %rdx
	movq	%rax, %rcx
	call	_ZNSt16allocator_traitsISaIhEE37select_on_container_copy_constructionERKS0_
	movq	16(%rbp), %rax
	addq	$32, %rsp
	popq	%rbp
	.cfi_restore 6
	.cfi_def_cfa 7, 8
	ret
	.cfi_endproc
.LFE2543:
	.seh_endproc
	.section	.text$_ZNKSt12_Vector_baseIhSaIhEE19_M_get_Tp_allocatorEv,"x"
	.linkonce discard
	.align 2
	.globl	_ZNKSt12_Vector_baseIhSaIhEE19_M_get_Tp_allocatorEv
	.def	_ZNKSt12_Vector_baseIhSaIhEE19_M_get_Tp_allocatorEv;	.scl	2;	.type	32;	.endef
	.seh_proc	_ZNKSt12_Vector_baseIhSaIhEE19_M_get_Tp_allocatorEv
_ZNKSt12_Vector_baseIhSaIhEE19_M_get_Tp_allocatorEv:
.LFB2544:
	.loc 4 119 0
	.cfi_startproc
	pushq	%rbp
	.seh_pushreg	%rbp
	.cfi_def_cfa_offset 16
	.cfi_offset 6, -16
	movq	%rsp, %rbp
	.seh_setframe	%rbp, 0
	.cfi_def_cfa_register 6
	.seh_endprologue
	movq	%rcx, 16(%rbp)
	.loc 4 120 0
	movq	16(%rbp), %rax
	popq	%rbp
	.cfi_restore 6
	.cfi_def_cfa 7, 8
	ret
	.cfi_endproc
.LFE2544:
	.seh_endproc
	.section	.text$_ZNSaIhED2Ev,"x"
	.linkonce discard
	.align 2
	.globl	_ZNSaIhED2Ev
	.def	_ZNSaIhED2Ev;	.scl	2;	.type	32;	.endef
	.seh_proc	_ZNSaIhED2Ev
_ZNSaIhED2Ev:
.LFB2546:
	.file 8 "c:/users/ian/downloads/pocketcpp-0.7/pocketcpp/mingw/include/c++/7.2.0/bits/allocator.h"
	.loc 8 139 0
	.cfi_startproc
	pushq	%rbp
	.seh_pushreg	%rbp
	.cfi_def_cfa_offset 16
	.cfi_offset 6, -16
	movq	%rsp, %rbp
	.seh_setframe	%rbp, 0
	.cfi_def_cfa_register 6
	subq	$32, %rsp
	.seh_stackalloc	32
	.seh_endprologue
	movq	%rcx, 16(%rbp)
.LBB21:
	.loc 8 139 0
	movq	16(%rbp), %rcx
	call	_ZN9__gnu_cxx13new_allocatorIhED2Ev
.LBE21:
	nop
	addq	$32, %rsp
	popq	%rbp
	.cfi_restore 6
	.cfi_def_cfa 7, 8
	ret
	.cfi_endproc
.LFE2546:
	.seh_endproc
	.section	.text$_ZNSaIhED1Ev,"x"
	.linkonce discard
	.align 2
	.globl	_ZNSaIhED1Ev
	.def	_ZNSaIhED1Ev;	.scl	2;	.type	32;	.endef
	.seh_proc	_ZNSaIhED1Ev
_ZNSaIhED1Ev:
.LFB2547:
	.loc 8 139 0
	.cfi_startproc
	pushq	%rbp
	.seh_pushreg	%rbp
	.cfi_def_cfa_offset 16
	.cfi_offset 6, -16
	movq	%rsp, %rbp
	.seh_setframe	%rbp, 0
	.cfi_def_cfa_register 6
	subq	$32, %rsp
	.seh_stackalloc	32
	.seh_endprologue
	movq	%rcx, 16(%rbp)
.LBB22:
	.loc 8 139 0
	movq	16(%rbp), %rcx
	call	_ZN9__gnu_cxx13new_allocatorIhED2Ev
.LBE22:
	nop
	addq	$32, %rsp
	popq	%rbp
	.cfi_restore 6
	.cfi_def_cfa 7, 8
	ret
	.cfi_endproc
.LFE2547:
	.seh_endproc
	.section	.text$_ZNSt12_Vector_baseIhSaIhEEC2EyRKS0_,"x"
	.linkonce discard
	.align 2
	.globl	_ZNSt12_Vector_baseIhSaIhEEC2EyRKS0_
	.def	_ZNSt12_Vector_baseIhSaIhEEC2EyRKS0_;	.scl	2;	.type	32;	.endef
	.seh_proc	_ZNSt12_Vector_baseIhSaIhEEC2EyRKS0_
_ZNSt12_Vector_baseIhSaIhEEC2EyRKS0_:
.LFB2549:
	.loc 4 136 0
	.cfi_startproc
	.cfi_personality 0x9b,.LDFCM0
	.cfi_lsda 0x1c,.LLSDA2549
	pushq	%rbp
	.seh_pushreg	%rbp
	.cfi_def_cfa_offset 16
	.cfi_offset 6, -16
	pushq	%rbx
	.seh_pushreg	%rbx
	.cfi_def_cfa_offset 24
	.cfi_offset 3, -24
	subq	$40, %rsp
	.seh_stackalloc	40
	.cfi_def_cfa_offset 64
	leaq	128(%rsp), %rbp
	.seh_setframe	%rbp, 128
	.cfi_def_cfa 6, -64
	.seh_endprologue
	movq	%rcx, -64(%rbp)
	movq	%rdx, -56(%rbp)
	movq	%r8, -48(%rbp)
.LBB23:
	.loc 4 137 0
	movq	-64(%rbp), %rax
	movq	-48(%rbp), %rdx
	movq	%rax, %rcx
	call	_ZNSt12_Vector_baseIhSaIhEE12_Vector_implC1ERKS0_
	.loc 4 138 0
	movq	-56(%rbp), %rax
	movq	%rax, %rdx
	movq	-64(%rbp), %rcx
.LEHB11:
	call	_ZNSt12_Vector_baseIhSaIhEE17_M_create_storageEy
.LEHE11:
.LBE23:
	jmp	.L76
.L75:
	movq	%rax, %rbx
.LBB24:
	.loc 4 137 0
	movq	-64(%rbp), %rax
	movq	%rax, %rcx
	call	_ZNSt12_Vector_baseIhSaIhEE12_Vector_implD1Ev
	movq	%rbx, %rax
	movq	%rax, %rcx
.LEHB12:
	call	_Unwind_Resume
	nop
.LEHE12:
.L76:
.LBE24:
	.loc 4 138 0
	addq	$40, %rsp
	popq	%rbx
	.cfi_restore 3
	popq	%rbp
	.cfi_restore 6
	.cfi_def_cfa 7, -24
	ret
	.cfi_endproc
.LFE2549:
	.seh_handler	__gxx_personality_seh0, @unwind, @except
	.seh_handlerdata
.LLSDA2549:
	.byte	0xff
	.byte	0xff
	.byte	0x1
	.uleb128 .LLSDACSE2549-.LLSDACSB2549
.LLSDACSB2549:
	.uleb128 .LEHB11-.LFB2549
	.uleb128 .LEHE11-.LEHB11
	.uleb128 .L75-.LFB2549
	.uleb128 0
	.uleb128 .LEHB12-.LFB2549
	.uleb128 .LEHE12-.LEHB12
	.uleb128 0
	.uleb128 0
.LLSDACSE2549:
	.section	.text$_ZNSt12_Vector_baseIhSaIhEEC2EyRKS0_,"x"
	.linkonce discard
	.seh_endproc
	.section	.text$_ZNKSt6vectorIhSaIhEE5beginEv,"x"
	.linkonce discard
	.align 2
	.globl	_ZNKSt6vectorIhSaIhEE5beginEv
	.def	_ZNKSt6vectorIhSaIhEE5beginEv;	.scl	2;	.type	32;	.endef
	.seh_proc	_ZNKSt6vectorIhSaIhEE5beginEv
_ZNKSt6vectorIhSaIhEE5beginEv:
.LFB2551:
	.loc 4 572 0
	.cfi_startproc
	pushq	%rbp
	.seh_pushreg	%rbp
	.cfi_def_cfa_offset 16
	.cfi_offset 6, -16
	movq	%rsp, %rbp
	.seh_setframe	%rbp, 0
	.cfi_def_cfa_register 6
	subq	$48, %rsp
	.seh_stackalloc	48
	.seh_endprologue
	movq	%rcx, 16(%rbp)
	.loc 4 573 0
	movq	16(%rbp), %rax
	movq	(%rax), %rax
	movq	%rax, -8(%rbp)
	leaq	-8(%rbp), %rdx
	leaq	-16(%rbp), %rax
	movq	%rax, %rcx
	call	_ZN9__gnu_cxx17__normal_iteratorIPKhSt6vectorIhSaIhEEEC1ERKS2_
	movq	-16(%rbp), %rax
	addq	$48, %rsp
	popq	%rbp
	.cfi_restore 6
	.cfi_def_cfa 7, 8
	ret
	.cfi_endproc
.LFE2551:
	.seh_endproc
	.section	.text$_ZNKSt6vectorIhSaIhEE3endEv,"x"
	.linkonce discard
	.align 2
	.globl	_ZNKSt6vectorIhSaIhEE3endEv
	.def	_ZNKSt6vectorIhSaIhEE3endEv;	.scl	2;	.type	32;	.endef
	.seh_proc	_ZNKSt6vectorIhSaIhEE3endEv
_ZNKSt6vectorIhSaIhEE3endEv:
.LFB2552:
	.loc 4 590 0
	.cfi_startproc
	pushq	%rbp
	.seh_pushreg	%rbp
	.cfi_def_cfa_offset 16
	.cfi_offset 6, -16
	movq	%rsp, %rbp
	.seh_setframe	%rbp, 0
	.cfi_def_cfa_register 6
	subq	$48, %rsp
	.seh_stackalloc	48
	.seh_endprologue
	movq	%rcx, 16(%rbp)
	.loc 4 591 0
	movq	16(%rbp), %rax
	movq	8(%rax), %rax
	movq	%rax, -8(%rbp)
	leaq	-8(%rbp), %rdx
	leaq	-16(%rbp), %rax
	movq	%rax, %rcx
	call	_ZN9__gnu_cxx17__normal_iteratorIPKhSt6vectorIhSaIhEEEC1ERKS2_
	movq	-16(%rbp), %rax
	addq	$48, %rsp
	popq	%rbp
	.cfi_restore 6
	.cfi_def_cfa 7, 8
	ret
	.cfi_endproc
.LFE2552:
	.seh_endproc
	.section	.text$_ZSt22__uninitialized_copy_aIN9__gnu_cxx17__normal_iteratorIPKhSt6vectorIhSaIhEEEEPhhET0_T_SA_S9_RSaIT1_E,"x"
	.linkonce discard
	.globl	_ZSt22__uninitialized_copy_aIN9__gnu_cxx17__normal_iteratorIPKhSt6vectorIhSaIhEEEEPhhET0_T_SA_S9_RSaIT1_E
	.def	_ZSt22__uninitialized_copy_aIN9__gnu_cxx17__normal_iteratorIPKhSt6vectorIhSaIhEEEEPhhET0_T_SA_S9_RSaIT1_E;	.scl	2;	.type	32;	.endef
	.seh_proc	_ZSt22__uninitialized_copy_aIN9__gnu_cxx17__normal_iteratorIPKhSt6vectorIhSaIhEEEEPhhET0_T_SA_S9_RSaIT1_E
_ZSt22__uninitialized_copy_aIN9__gnu_cxx17__normal_iteratorIPKhSt6vectorIhSaIhEEEEPhhET0_T_SA_S9_RSaIT1_E:
.LFB2553:
	.file 9 "c:/users/ian/downloads/pocketcpp-0.7/pocketcpp/mingw/include/c++/7.2.0/bits/stl_uninitialized.h"
	.loc 9 287 0
	.cfi_startproc
	pushq	%rbp
	.seh_pushreg	%rbp
	.cfi_def_cfa_offset 16
	.cfi_offset 6, -16
	movq	%rsp, %rbp
	.seh_setframe	%rbp, 0
	.cfi_def_cfa_register 6
	subq	$32, %rsp
	.seh_stackalloc	32
	.seh_endprologue
	movq	%rcx, 16(%rbp)
	movq	%rdx, 24(%rbp)
	movq	%r8, 32(%rbp)
	movq	%r9, 40(%rbp)
	.loc 9 289 0
	movq	32(%rbp), %rdx
	movq	24(%rbp), %rax
	movq	%rdx, %r8
	movq	%rax, %rdx
	movq	16(%rbp), %rcx
	call	_ZSt18uninitialized_copyIN9__gnu_cxx17__normal_iteratorIPKhSt6vectorIhSaIhEEEEPhET0_T_SA_S9_
	addq	$32, %rsp
	popq	%rbp
	.cfi_restore 6
	.cfi_def_cfa 7, 8
	ret
	.cfi_endproc
.LFE2553:
	.seh_endproc
	.section	.text$_ZNKSt6vectorI5pixelSaIS0_EE8max_sizeEv,"x"
	.linkonce discard
	.align 2
	.globl	_ZNKSt6vectorI5pixelSaIS0_EE8max_sizeEv
	.def	_ZNKSt6vectorI5pixelSaIS0_EE8max_sizeEv;	.scl	2;	.type	32;	.endef
	.seh_proc	_ZNKSt6vectorI5pixelSaIS0_EE8max_sizeEv
_ZNKSt6vectorI5pixelSaIS0_EE8max_sizeEv:
.LFB2554:
	.loc 4 675 0
	.cfi_startproc
	pushq	%rbp
	.seh_pushreg	%rbp
	.cfi_def_cfa_offset 16
	.cfi_offset 6, -16
	movq	%rsp, %rbp
	.seh_setframe	%rbp, 0
	.cfi_def_cfa_register 6
	subq	$32, %rsp
	.seh_stackalloc	32
	.seh_endprologue
	movq	%rcx, 16(%rbp)
	.loc 4 676 0
	movq	16(%rbp), %rax
	movq	%rax, %rcx
	call	_ZNKSt12_Vector_baseI5pixelSaIS0_EE19_M_get_Tp_allocatorEv
	movq	%rax, %rcx
	call	_ZNSt16allocator_traitsISaI5pixelEE8max_sizeERKS1_
	addq	$32, %rsp
	popq	%rbp
	.cfi_restore 6
	.cfi_def_cfa 7, 8
	ret
	.cfi_endproc
.LFE2554:
	.seh_endproc
	.section	.text$_ZNKSt6vectorI5pixelSaIS0_EE8capacityEv,"x"
	.linkonce discard
	.align 2
	.globl	_ZNKSt6vectorI5pixelSaIS0_EE8capacityEv
	.def	_ZNKSt6vectorI5pixelSaIS0_EE8capacityEv;	.scl	2;	.type	32;	.endef
	.seh_proc	_ZNKSt6vectorI5pixelSaIS0_EE8capacityEv
_ZNKSt6vectorI5pixelSaIS0_EE8capacityEv:
.LFB2555:
	.loc 4 750 0
	.cfi_startproc
	pushq	%rbp
	.seh_pushreg	%rbp
	.cfi_def_cfa_offset 16
	.cfi_offset 6, -16
	movq	%rsp, %rbp
	.seh_setframe	%rbp, 0
	.cfi_def_cfa_register 6
	.seh_endprologue
	movq	%rcx, 16(%rbp)
	.loc 4 751 0
	movq	16(%rbp), %rax
	movq	16(%rax), %rax
	.loc 4 752 0
	movq	%rax, %rdx
	movq	16(%rbp), %rax
	movq	(%rax), %rax
	subq	%rax, %rdx
	movq	%rdx, %rax
	sarq	$2, %rax
	popq	%rbp
	.cfi_restore 6
	.cfi_def_cfa 7, 8
	ret
	.cfi_endproc
.LFE2555:
	.seh_endproc
	.section	.text$_ZNKSt6vectorI5pixelSaIS0_EE4sizeEv,"x"
	.linkonce discard
	.align 2
	.globl	_ZNKSt6vectorI5pixelSaIS0_EE4sizeEv
	.def	_ZNKSt6vectorI5pixelSaIS0_EE4sizeEv;	.scl	2;	.type	32;	.endef
	.seh_proc	_ZNKSt6vectorI5pixelSaIS0_EE4sizeEv
_ZNKSt6vectorI5pixelSaIS0_EE4sizeEv:
.LFB2556:
	.loc 4 670 0
	.cfi_startproc
	pushq	%rbp
	.seh_pushreg	%rbp
	.cfi_def_cfa_offset 16
	.cfi_offset 6, -16
	movq	%rsp, %rbp
	.seh_setframe	%rbp, 0
	.cfi_def_cfa_register 6
	.seh_endprologue
	movq	%rcx, 16(%rbp)
	.loc 4 671 0
	movq	16(%rbp), %rax
	movq	8(%rax), %rax
	movq	%rax, %rdx
	movq	16(%rbp), %rax
	movq	(%rax), %rax
	subq	%rax, %rdx
	movq	%rdx, %rax
	sarq	$2, %rax
	popq	%rbp
	.cfi_restore 6
	.cfi_def_cfa 7, 8
	ret
	.cfi_endproc
.LFE2556:
	.seh_endproc
	.section	.text$_ZSt32__make_move_if_noexcept_iteratorI5pixelSt13move_iteratorIPS0_EET0_PT_,"x"
	.linkonce discard
	.globl	_ZSt32__make_move_if_noexcept_iteratorI5pixelSt13move_iteratorIPS0_EET0_PT_
	.def	_ZSt32__make_move_if_noexcept_iteratorI5pixelSt13move_iteratorIPS0_EET0_PT_;	.scl	2;	.type	32;	.endef
	.seh_proc	_ZSt32__make_move_if_noexcept_iteratorI5pixelSt13move_iteratorIPS0_EET0_PT_
_ZSt32__make_move_if_noexcept_iteratorI5pixelSt13move_iteratorIPS0_EET0_PT_:
.LFB2557:
	.file 10 "c:/users/ian/downloads/pocketcpp-0.7/pocketcpp/mingw/include/c++/7.2.0/bits/stl_iterator.h"
	.loc 10 1221 0
	.cfi_startproc
	pushq	%rbp
	.seh_pushreg	%rbp
	.cfi_def_cfa_offset 16
	.cfi_offset 6, -16
	movq	%rsp, %rbp
	.seh_setframe	%rbp, 0
	.cfi_def_cfa_register 6
	subq	$48, %rsp
	.seh_stackalloc	48
	.seh_endprologue
	movq	%rcx, 16(%rbp)
	.loc 10 1222 0
	leaq	-8(%rbp), %rax
	movq	16(%rbp), %rdx
	movq	%rax, %rcx
	call	_ZNSt13move_iteratorIP5pixelEC1ES1_
	movq	-8(%rbp), %rax
	addq	$48, %rsp
	popq	%rbp
	.cfi_restore 6
	.cfi_def_cfa 7, 8
	ret
	.cfi_endproc
.LFE2557:
	.seh_endproc
	.section	.text$_ZNSt6vectorI5pixelSaIS0_EE20_M_allocate_and_copyISt13move_iteratorIPS0_EEES5_yT_S7_,"x"
	.linkonce discard
	.align 2
	.globl	_ZNSt6vectorI5pixelSaIS0_EE20_M_allocate_and_copyISt13move_iteratorIPS0_EEES5_yT_S7_
	.def	_ZNSt6vectorI5pixelSaIS0_EE20_M_allocate_and_copyISt13move_iteratorIPS0_EEES5_yT_S7_;	.scl	2;	.type	32;	.endef
	.seh_proc	_ZNSt6vectorI5pixelSaIS0_EE20_M_allocate_and_copyISt13move_iteratorIPS0_EEES5_yT_S7_
_ZNSt6vectorI5pixelSaIS0_EE20_M_allocate_and_copyISt13move_iteratorIPS0_EEES5_yT_S7_:
.LFB2558:
	.loc 4 1257 0
	.cfi_startproc
	.cfi_personality 0x9b,.LDFCM0
	.cfi_lsda 0x1c,.LLSDA2558
	pushq	%rbp
	.seh_pushreg	%rbp
	.cfi_def_cfa_offset 16
	.cfi_offset 6, -16
	pushq	%rbx
	.seh_pushreg	%rbx
	.cfi_def_cfa_offset 24
	.cfi_offset 3, -24
	subq	$56, %rsp
	.seh_stackalloc	56
	.cfi_def_cfa_offset 80
	leaq	128(%rsp), %rbp
	.seh_setframe	%rbp, 128
	.cfi_def_cfa 6, -48
	.seh_endprologue
	movq	%rcx, -48(%rbp)
	movq	%rdx, -40(%rbp)
	movq	%r8, -32(%rbp)
	movq	%r9, -24(%rbp)
	.loc 4 1260 0
	movq	-48(%rbp), %rax
	movq	-40(%rbp), %rdx
	movq	%rax, %rcx
.LEHB13:
	call	_ZNSt12_Vector_baseI5pixelSaIS0_EE11_M_allocateEy
.LEHE13:
	movq	%rax, -88(%rbp)
	.loc 4 1264 0
	movq	-48(%rbp), %rax
	movq	%rax, %rcx
	call	_ZNSt12_Vector_baseI5pixelSaIS0_EE19_M_get_Tp_allocatorEv
	movq	%rax, %r8
	.loc 4 1263 0
	movq	-88(%rbp), %rcx
	movq	-24(%rbp), %rdx
	movq	-32(%rbp), %rax
	movq	%r8, %r9
	movq	%rcx, %r8
	movq	%rax, %rcx
.LEHB14:
	call	_ZSt22__uninitialized_copy_aISt13move_iteratorIP5pixelES2_S1_ET0_T_S5_S4_RSaIT1_E
.LEHE14:
	.loc 4 1265 0
	movq	-88(%rbp), %rax
	jmp	.L97
.L95:
	.loc 4 1267 0
	movq	%rax, %rcx
	call	__cxa_begin_catch
	.loc 4 1269 0
	movq	-48(%rbp), %rax
	movq	-40(%rbp), %rcx
	movq	-88(%rbp), %rdx
	movq	%rcx, %r8
	movq	%rax, %rcx
.LEHB15:
	call	_ZNSt12_Vector_baseI5pixelSaIS0_EE13_M_deallocateEPS0_y
	.loc 4 1270 0
	call	__cxa_rethrow
.LEHE15:
.L96:
	movq	%rax, %rbx
	.loc 4 1267 0
	call	__cxa_end_catch
	movq	%rbx, %rax
	movq	%rax, %rcx
.LEHB16:
	call	_Unwind_Resume
.LEHE16:
.L97:
	.loc 4 1272 0
	addq	$56, %rsp
	popq	%rbx
	.cfi_restore 3
	popq	%rbp
	.cfi_restore 6
	.cfi_def_cfa 7, -40
	ret
	.cfi_endproc
.LFE2558:
	.seh_handler	__gxx_personality_seh0, @unwind, @except
	.seh_handlerdata
	.align 4
.LLSDA2558:
	.byte	0xff
	.byte	0x9b
	.uleb128 .LLSDATT2558-.LLSDATTD2558
.LLSDATTD2558:
	.byte	0x1
	.uleb128 .LLSDACSE2558-.LLSDACSB2558
.LLSDACSB2558:
	.uleb128 .LEHB13-.LFB2558
	.uleb128 .LEHE13-.LEHB13
	.uleb128 0
	.uleb128 0
	.uleb128 .LEHB14-.LFB2558
	.uleb128 .LEHE14-.LEHB14
	.uleb128 .L95-.LFB2558
	.uleb128 0x1
	.uleb128 .LEHB15-.LFB2558
	.uleb128 .LEHE15-.LEHB15
	.uleb128 .L96-.LFB2558
	.uleb128 0
	.uleb128 .LEHB16-.LFB2558
	.uleb128 .LEHE16-.LEHB16
	.uleb128 0
	.uleb128 0
.LLSDACSE2558:
	.byte	0x1
	.byte	0
	.align 4
	.long	0

.LLSDATT2558:
	.section	.text$_ZNSt6vectorI5pixelSaIS0_EE20_M_allocate_and_copyISt13move_iteratorIPS0_EEES5_yT_S7_,"x"
	.linkonce discard
	.seh_endproc
	.section	.text$_ZNSt12_Vector_baseI5pixelSaIS0_EE13_M_deallocateEPS0_y,"x"
	.linkonce discard
	.align 2
	.globl	_ZNSt12_Vector_baseI5pixelSaIS0_EE13_M_deallocateEPS0_y
	.def	_ZNSt12_Vector_baseI5pixelSaIS0_EE13_M_deallocateEPS0_y;	.scl	2;	.type	32;	.endef
	.seh_proc	_ZNSt12_Vector_baseI5pixelSaIS0_EE13_M_deallocateEPS0_y
_ZNSt12_Vector_baseI5pixelSaIS0_EE13_M_deallocateEPS0_y:
.LFB2559:
	.loc 4 176 0
	.cfi_startproc
	pushq	%rbp
	.seh_pushreg	%rbp
	.cfi_def_cfa_offset 16
	.cfi_offset 6, -16
	movq	%rsp, %rbp
	.seh_setframe	%rbp, 0
	.cfi_def_cfa_register 6
	subq	$32, %rsp
	.seh_stackalloc	32
	.seh_endprologue
	movq	%rcx, 16(%rbp)
	movq	%rdx, 24(%rbp)
	movq	%r8, 32(%rbp)
	.loc 4 179 0
	cmpq	$0, 24(%rbp)
	je	.L100
	.loc 4 180 0
	movq	16(%rbp), %rax
	movq	32(%rbp), %rcx
	movq	24(%rbp), %rdx
	movq	%rcx, %r8
	movq	%rax, %rcx
	call	_ZNSt16allocator_traitsISaI5pixelEE10deallocateERS1_PS0_y
.L100:
	.loc 4 181 0
	nop
	addq	$32, %rsp
	popq	%rbp
	.cfi_restore 6
	.cfi_def_cfa 7, 8
	ret
	.cfi_endproc
.LFE2559:
	.seh_endproc
	.section	.text$_ZNSt16allocator_traitsISaI5pixelEE9constructIS0_JRKS0_EEEvRS1_PT_DpOT0_,"x"
	.linkonce discard
	.globl	_ZNSt16allocator_traitsISaI5pixelEE9constructIS0_JRKS0_EEEvRS1_PT_DpOT0_
	.def	_ZNSt16allocator_traitsISaI5pixelEE9constructIS0_JRKS0_EEEvRS1_PT_DpOT0_;	.scl	2;	.type	32;	.endef
	.seh_proc	_ZNSt16allocator_traitsISaI5pixelEE9constructIS0_JRKS0_EEEvRS1_PT_DpOT0_
_ZNSt16allocator_traitsISaI5pixelEE9constructIS0_JRKS0_EEEvRS1_PT_DpOT0_:
.LFB2560:
	.file 11 "c:/users/ian/downloads/pocketcpp-0.7/pocketcpp/mingw/include/c++/7.2.0/bits/alloc_traits.h"
	.loc 11 474 0
	.cfi_startproc
	pushq	%rbp
	.seh_pushreg	%rbp
	.cfi_def_cfa_offset 16
	.cfi_offset 6, -16
	movq	%rsp, %rbp
	.seh_setframe	%rbp, 0
	.cfi_def_cfa_register 6
	subq	$32, %rsp
	.seh_stackalloc	32
	.seh_endprologue
	movq	%rcx, 16(%rbp)
	movq	%rdx, 24(%rbp)
	movq	%r8, 32(%rbp)
	.loc 11 475 0
	movq	32(%rbp), %rax
	movq	%rax, %rcx
	call	_ZSt7forwardIRK5pixelEOT_RNSt16remove_referenceIS3_E4typeE
	movq	%rax, %rdx
	movq	24(%rbp), %rax
	movq	%rdx, %r8
	movq	%rax, %rdx
	movq	16(%rbp), %rcx
	call	_ZN9__gnu_cxx13new_allocatorI5pixelE9constructIS1_JRKS1_EEEvPT_DpOT0_
	nop
	addq	$32, %rsp
	popq	%rbp
	.cfi_restore 6
	.cfi_def_cfa 7, 8
	ret
	.cfi_endproc
.LFE2560:
	.seh_endproc
	.section	.text$_ZNSt6vectorI5pixelSaIS0_EE3endEv,"x"
	.linkonce discard
	.align 2
	.globl	_ZNSt6vectorI5pixelSaIS0_EE3endEv
	.def	_ZNSt6vectorI5pixelSaIS0_EE3endEv;	.scl	2;	.type	32;	.endef
	.seh_proc	_ZNSt6vectorI5pixelSaIS0_EE3endEv
_ZNSt6vectorI5pixelSaIS0_EE3endEv:
.LFB2561:
	.loc 4 581 0
	.cfi_startproc
	pushq	%rbp
	.seh_pushreg	%rbp
	.cfi_def_cfa_offset 16
	.cfi_offset 6, -16
	movq	%rsp, %rbp
	.seh_setframe	%rbp, 0
	.cfi_def_cfa_register 6
	subq	$48, %rsp
	.seh_stackalloc	48
	.seh_endprologue
	movq	%rcx, 16(%rbp)
	.loc 4 582 0
	movq	16(%rbp), %rax
	leaq	8(%rax), %rdx
	leaq	-8(%rbp), %rax
	movq	%rax, %rcx
	call	_ZN9__gnu_cxx17__normal_iteratorIP5pixelSt6vectorIS1_SaIS1_EEEC1ERKS2_
	movq	-8(%rbp), %rax
	addq	$48, %rsp
	popq	%rbp
	.cfi_restore 6
	.cfi_def_cfa 7, 8
	ret
	.cfi_endproc
.LFE2561:
	.seh_endproc
	.section .rdata,"dr"
.LC2:
	.ascii "vector::_M_realloc_insert\0"
	.section	.text$_ZNSt6vectorI5pixelSaIS0_EE17_M_realloc_insertIJRKS0_EEEvN9__gnu_cxx17__normal_iteratorIPS0_S2_EEDpOT_,"x"
	.linkonce discard
	.align 2
	.globl	_ZNSt6vectorI5pixelSaIS0_EE17_M_realloc_insertIJRKS0_EEEvN9__gnu_cxx17__normal_iteratorIPS0_S2_EEDpOT_
	.def	_ZNSt6vectorI5pixelSaIS0_EE17_M_realloc_insertIJRKS0_EEEvN9__gnu_cxx17__normal_iteratorIPS0_S2_EEDpOT_;	.scl	2;	.type	32;	.endef
	.seh_proc	_ZNSt6vectorI5pixelSaIS0_EE17_M_realloc_insertIJRKS0_EEEvN9__gnu_cxx17__normal_iteratorIPS0_S2_EEDpOT_
_ZNSt6vectorI5pixelSaIS0_EE17_M_realloc_insertIJRKS0_EEEvN9__gnu_cxx17__normal_iteratorIPS0_S2_EEDpOT_:
.LFB2562:
	.loc 5 394 0
	.cfi_startproc
	.cfi_personality 0x9b,.LDFCM0
	.cfi_lsda 0x1c,.LLSDA2562
	pushq	%rbp
	.seh_pushreg	%rbp
	.cfi_def_cfa_offset 16
	.cfi_offset 6, -16
	pushq	%rsi
	.seh_pushreg	%rsi
	.cfi_def_cfa_offset 24
	.cfi_offset 4, -24
	pushq	%rbx
	.seh_pushreg	%rbx
	.cfi_def_cfa_offset 32
	.cfi_offset 3, -32
	movq	%rsp, %rbp
	.seh_setframe	%rbp, 0
	.cfi_def_cfa_register 6
	subq	$80, %rsp
	.seh_stackalloc	80
	.seh_endprologue
	movq	%rcx, 32(%rbp)
	movq	%rdx, 40(%rbp)
	movq	%r8, 48(%rbp)
	.loc 5 403 0
	leaq	.LC2(%rip), %r8
	movl	$1, %edx
	movq	32(%rbp), %rcx
.LEHB17:
	call	_ZNKSt6vectorI5pixelSaIS0_EE12_M_check_lenEyPKc
	movq	%rax, -16(%rbp)
	.loc 5 405 0
	movq	32(%rbp), %rcx
	call	_ZNSt6vectorI5pixelSaIS0_EE5beginEv
	movq	%rax, -40(%rbp)
	leaq	-40(%rbp), %rdx
	leaq	40(%rbp), %rax
	movq	%rax, %rcx
	call	_ZN9__gnu_cxxmiIP5pixelSt6vectorIS1_SaIS1_EEEENS_17__normal_iteratorIT_T0_E15difference_typeERKS9_SC_
	movq	%rax, -24(%rbp)
	.loc 5 406 0
	movq	32(%rbp), %rax
	movq	-16(%rbp), %rdx
	movq	%rax, %rcx
	call	_ZNSt12_Vector_baseI5pixelSaIS0_EE11_M_allocateEy
.LEHE17:
	movq	%rax, -32(%rbp)
	.loc 5 407 0
	movq	-32(%rbp), %rax
	movq	%rax, -8(%rbp)
	.loc 5 415 0
	movq	48(%rbp), %rax
	movq	%rax, %rcx
	call	_ZSt7forwardIRK5pixelEOT_RNSt16remove_referenceIS3_E4typeE
	movq	%rax, %rcx
	.loc 5 416 0
	movq	-24(%rbp), %rax
	leaq	0(,%rax,4), %rdx
	.loc 5 415 0
	movq	-32(%rbp), %rax
	addq	%rax, %rdx
	movq	32(%rbp), %rax
	movq	%rcx, %r8
	movq	%rax, %rcx
	call	_ZNSt16allocator_traitsISaI5pixelEE9constructIS0_JRKS0_EEEvRS1_PT_DpOT0_
	.loc 5 422 0
	movq	$0, -8(%rbp)
	.loc 5 427 0
	movq	32(%rbp), %rax
	movq	%rax, %rcx
	call	_ZNSt12_Vector_baseI5pixelSaIS0_EE19_M_get_Tp_allocatorEv
	movq	%rax, %rbx
	.loc 5 426 0
	leaq	40(%rbp), %rax
	movq	%rax, %rcx
	call	_ZNK9__gnu_cxx17__normal_iteratorIP5pixelSt6vectorIS1_SaIS1_EEE4baseEv
	movq	(%rax), %rdx
	movq	32(%rbp), %rax
	movq	(%rax), %rax
	.loc 5 424 0
	movq	-32(%rbp), %rcx
	movq	%rbx, %r9
	movq	%rcx, %r8
	movq	%rax, %rcx
.LEHB18:
	call	_ZSt34__uninitialized_move_if_noexcept_aIP5pixelS1_SaIS0_EET0_T_S4_S3_RT1_
	movq	%rax, -8(%rbp)
	.loc 5 429 0
	addq	$4, -8(%rbp)
	.loc 5 434 0
	movq	32(%rbp), %rax
	movq	%rax, %rcx
	call	_ZNSt12_Vector_baseI5pixelSaIS0_EE19_M_get_Tp_allocatorEv
	movq	%rax, %rsi
	.loc 5 433 0
	movq	32(%rbp), %rax
	movq	8(%rax), %rbx
	leaq	40(%rbp), %rax
	movq	%rax, %rcx
	call	_ZNK9__gnu_cxx17__normal_iteratorIP5pixelSt6vectorIS1_SaIS1_EEE4baseEv
	movq	(%rax), %rax
	.loc 5 431 0
	movq	-8(%rbp), %rdx
	movq	%rsi, %r9
	movq	%rdx, %r8
	movq	%rbx, %rdx
	movq	%rax, %rcx
	call	_ZSt34__uninitialized_move_if_noexcept_aIP5pixelS1_SaIS0_EET0_T_S4_S3_RT1_
.LEHE18:
	.loc 5 431 0 is_stmt 0 discriminator 1
	movq	%rax, -8(%rbp)
	.loc 5 447 0 is_stmt 1 discriminator 1
	movq	32(%rbp), %rax
	movq	%rax, %rcx
	call	_ZNSt12_Vector_baseI5pixelSaIS0_EE19_M_get_Tp_allocatorEv
	movq	%rax, %rcx
	.loc 5 446 0 discriminator 1
	movq	32(%rbp), %rax
	movq	8(%rax), %rdx
	movq	32(%rbp), %rax
	movq	(%rax), %rax
	movq	%rcx, %r8
	movq	%rax, %rcx
.LEHB19:
	call	_ZSt8_DestroyIP5pixelS0_EvT_S2_RSaIT0_E
	.loc 5 448 0 discriminator 1
	movq	32(%rbp), %rax
	.loc 5 449 0 discriminator 1
	movq	32(%rbp), %rdx
	movq	16(%rdx), %rdx
	.loc 5 450 0 discriminator 1
	movq	%rdx, %rcx
	movq	32(%rbp), %rdx
	movq	(%rdx), %rdx
	subq	%rdx, %rcx
	movq	%rcx, %rdx
	sarq	$2, %rdx
	.loc 5 448 0 discriminator 1
	movq	%rdx, %rcx
	movq	32(%rbp), %rdx
	movq	(%rdx), %rdx
	movq	%rcx, %r8
	movq	%rax, %rcx
	call	_ZNSt12_Vector_baseI5pixelSaIS0_EE13_M_deallocateEPS0_y
.LEHE19:
	.loc 5 451 0 discriminator 1
	movq	32(%rbp), %rax
	movq	-32(%rbp), %rdx
	movq	%rdx, (%rax)
	.loc 5 452 0 discriminator 1
	movq	32(%rbp), %rax
	movq	-8(%rbp), %rdx
	movq	%rdx, 8(%rax)
	.loc 5 453 0 discriminator 1
	movq	-16(%rbp), %rax
	leaq	0(,%rax,4), %rdx
	movq	-32(%rbp), %rax
	addq	%rax, %rdx
	movq	32(%rbp), %rax
	movq	%rdx, 16(%rax)
	.loc 5 454 0 discriminator 1
	jmp	.L111
.L109:
	.loc 5 436 0
	movq	%rax, %rcx
	call	__cxa_begin_catch
	.loc 5 438 0
	cmpq	$0, -8(%rbp)
	jne	.L106
	.loc 5 440 0
	movq	-24(%rbp), %rax
	leaq	0(,%rax,4), %rdx
	.loc 5 439 0
	movq	-32(%rbp), %rax
	addq	%rax, %rdx
	movq	32(%rbp), %rax
	movq	%rax, %rcx
.LEHB20:
	call	_ZNSt16allocator_traitsISaI5pixelEE7destroyIS0_EEvRS1_PT_
	jmp	.L107
.L106:
	.loc 5 442 0
	movq	32(%rbp), %rax
	movq	%rax, %rcx
	call	_ZNSt12_Vector_baseI5pixelSaIS0_EE19_M_get_Tp_allocatorEv
	movq	%rax, %rcx
	movq	-8(%rbp), %rdx
	movq	-32(%rbp), %rax
	movq	%rcx, %r8
	movq	%rax, %rcx
	call	_ZSt8_DestroyIP5pixelS0_EvT_S2_RSaIT0_E
.L107:
	.loc 5 443 0
	movq	32(%rbp), %rax
	movq	-16(%rbp), %rcx
	movq	-32(%rbp), %rdx
	movq	%rcx, %r8
	movq	%rax, %rcx
	call	_ZNSt12_Vector_baseI5pixelSaIS0_EE13_M_deallocateEPS0_y
	.loc 5 444 0
	call	__cxa_rethrow
.LEHE20:
.L110:
	movq	%rax, %rbx
	.loc 5 436 0
	call	__cxa_end_catch
	movq	%rbx, %rax
	movq	%rax, %rcx
.LEHB21:
	call	_Unwind_Resume
	nop
.LEHE21:
.L111:
	.loc 5 454 0
	addq	$80, %rsp
	popq	%rbx
	.cfi_restore 3
	popq	%rsi
	.cfi_restore 4
	popq	%rbp
	.cfi_restore 6
	.cfi_def_cfa 7, 24
	ret
	.cfi_endproc
.LFE2562:
	.seh_handler	__gxx_personality_seh0, @unwind, @except
	.seh_handlerdata
	.align 4
.LLSDA2562:
	.byte	0xff
	.byte	0x9b
	.uleb128 .LLSDATT2562-.LLSDATTD2562
.LLSDATTD2562:
	.byte	0x1
	.uleb128 .LLSDACSE2562-.LLSDACSB2562
.LLSDACSB2562:
	.uleb128 .LEHB17-.LFB2562
	.uleb128 .LEHE17-.LEHB17
	.uleb128 0
	.uleb128 0
	.uleb128 .LEHB18-.LFB2562
	.uleb128 .LEHE18-.LEHB18
	.uleb128 .L109-.LFB2562
	.uleb128 0x1
	.uleb128 .LEHB19-.LFB2562
	.uleb128 .LEHE19-.LEHB19
	.uleb128 0
	.uleb128 0
	.uleb128 .LEHB20-.LFB2562
	.uleb128 .LEHE20-.LEHB20
	.uleb128 .L110-.LFB2562
	.uleb128 0
	.uleb128 .LEHB21-.LFB2562
	.uleb128 .LEHE21-.LEHB21
	.uleb128 0
	.uleb128 0
.LLSDACSE2562:
	.byte	0x1
	.byte	0
	.align 4
	.long	0

.LLSDATT2562:
	.section	.text$_ZNSt6vectorI5pixelSaIS0_EE17_M_realloc_insertIJRKS0_EEEvN9__gnu_cxx17__normal_iteratorIPS0_S2_EEDpOT_,"x"
	.linkonce discard
	.seh_endproc
	.section	.text$_ZNSt12_Vector_baseI5pixelSaIS0_EE12_Vector_implC1Ev,"x"
	.linkonce discard
	.align 2
	.globl	_ZNSt12_Vector_baseI5pixelSaIS0_EE12_Vector_implC1Ev
	.def	_ZNSt12_Vector_baseI5pixelSaIS0_EE12_Vector_implC1Ev;	.scl	2;	.type	32;	.endef
	.seh_proc	_ZNSt12_Vector_baseI5pixelSaIS0_EE12_Vector_implC1Ev
_ZNSt12_Vector_baseI5pixelSaIS0_EE12_Vector_implC1Ev:
.LFB2599:
	.loc 4 88 0
	.cfi_startproc
	pushq	%rbp
	.seh_pushreg	%rbp
	.cfi_def_cfa_offset 16
	.cfi_offset 6, -16
	movq	%rsp, %rbp
	.seh_setframe	%rbp, 0
	.cfi_def_cfa_register 6
	subq	$32, %rsp
	.seh_stackalloc	32
	.seh_endprologue
	movq	%rcx, 16(%rbp)
.LBB25:
	.loc 4 89 0
	movq	16(%rbp), %rcx
	call	_ZNSaI5pixelEC2Ev
	movq	16(%rbp), %rax
	movq	$0, (%rax)
	movq	16(%rbp), %rax
	movq	$0, 8(%rax)
	movq	16(%rbp), %rax
	movq	$0, 16(%rax)
.LBE25:
	.loc 4 90 0
	nop
	addq	$32, %rsp
	popq	%rbp
	.cfi_restore 6
	.cfi_def_cfa 7, 8
	ret
	.cfi_endproc
.LFE2599:
	.seh_endproc
	.section	.text$_ZNSaI5pixelED2Ev,"x"
	.linkonce discard
	.align 2
	.globl	_ZNSaI5pixelED2Ev
	.def	_ZNSaI5pixelED2Ev;	.scl	2;	.type	32;	.endef
	.seh_proc	_ZNSaI5pixelED2Ev
_ZNSaI5pixelED2Ev:
.LFB2601:
	.loc 8 139 0
	.cfi_startproc
	pushq	%rbp
	.seh_pushreg	%rbp
	.cfi_def_cfa_offset 16
	.cfi_offset 6, -16
	movq	%rsp, %rbp
	.seh_setframe	%rbp, 0
	.cfi_def_cfa_register 6
	subq	$32, %rsp
	.seh_stackalloc	32
	.seh_endprologue
	movq	%rcx, 16(%rbp)
.LBB26:
	.loc 8 139 0
	movq	16(%rbp), %rcx
	call	_ZN9__gnu_cxx13new_allocatorI5pixelED2Ev
.LBE26:
	nop
	addq	$32, %rsp
	popq	%rbp
	.cfi_restore 6
	.cfi_def_cfa 7, 8
	ret
	.cfi_endproc
.LFE2601:
	.seh_endproc
	.section	.text$_ZSt8_DestroyIP5pixelEvT_S2_,"x"
	.linkonce discard
	.globl	_ZSt8_DestroyIP5pixelEvT_S2_
	.def	_ZSt8_DestroyIP5pixelEvT_S2_;	.scl	2;	.type	32;	.endef
	.seh_proc	_ZSt8_DestroyIP5pixelEvT_S2_
_ZSt8_DestroyIP5pixelEvT_S2_:
.LFB2603:
	.loc 6 127 0
	.cfi_startproc
	pushq	%rbp
	.seh_pushreg	%rbp
	.cfi_def_cfa_offset 16
	.cfi_offset 6, -16
	movq	%rsp, %rbp
	.seh_setframe	%rbp, 0
	.cfi_def_cfa_register 6
	subq	$32, %rsp
	.seh_stackalloc	32
	.seh_endprologue
	movq	%rcx, 16(%rbp)
	movq	%rdx, 24(%rbp)
	.loc 6 137 0
	movq	24(%rbp), %rax
	movq	%rax, %rdx
	movq	16(%rbp), %rcx
	call	_ZNSt12_Destroy_auxILb1EE9__destroyIP5pixelEEvT_S4_
	.loc 6 138 0
	nop
	addq	$32, %rsp
	popq	%rbp
	.cfi_restore 6
	.cfi_def_cfa 7, 8
	ret
	.cfi_endproc
.LFE2603:
	.seh_endproc
	.section	.text$_ZNSt12_Vector_baseIhSaIhEE12_Vector_implC1Ev,"x"
	.linkonce discard
	.align 2
	.globl	_ZNSt12_Vector_baseIhSaIhEE12_Vector_implC1Ev
	.def	_ZNSt12_Vector_baseIhSaIhEE12_Vector_implC1Ev;	.scl	2;	.type	32;	.endef
	.seh_proc	_ZNSt12_Vector_baseIhSaIhEE12_Vector_implC1Ev
_ZNSt12_Vector_baseIhSaIhEE12_Vector_implC1Ev:
.LFB2606:
	.loc 4 88 0
	.cfi_startproc
	pushq	%rbp
	.seh_pushreg	%rbp
	.cfi_def_cfa_offset 16
	.cfi_offset 6, -16
	movq	%rsp, %rbp
	.seh_setframe	%rbp, 0
	.cfi_def_cfa_register 6
	subq	$32, %rsp
	.seh_stackalloc	32
	.seh_endprologue
	movq	%rcx, 16(%rbp)
.LBB27:
	.loc 4 89 0
	movq	16(%rbp), %rcx
	call	_ZNSaIhEC2Ev
	movq	16(%rbp), %rax
	movq	$0, (%rax)
	movq	16(%rbp), %rax
	movq	$0, 8(%rax)
	movq	16(%rbp), %rax
	movq	$0, 16(%rax)
.LBE27:
	.loc 4 90 0
	nop
	addq	$32, %rsp
	popq	%rbp
	.cfi_restore 6
	.cfi_def_cfa 7, 8
	ret
	.cfi_endproc
.LFE2606:
	.seh_endproc
	.section	.text$_ZNSt12_Vector_baseIhSaIhEE13_M_deallocateEPhy,"x"
	.linkonce discard
	.align 2
	.globl	_ZNSt12_Vector_baseIhSaIhEE13_M_deallocateEPhy
	.def	_ZNSt12_Vector_baseIhSaIhEE13_M_deallocateEPhy;	.scl	2;	.type	32;	.endef
	.seh_proc	_ZNSt12_Vector_baseIhSaIhEE13_M_deallocateEPhy
_ZNSt12_Vector_baseIhSaIhEE13_M_deallocateEPhy:
.LFB2607:
	.loc 4 176 0
	.cfi_startproc
	pushq	%rbp
	.seh_pushreg	%rbp
	.cfi_def_cfa_offset 16
	.cfi_offset 6, -16
	movq	%rsp, %rbp
	.seh_setframe	%rbp, 0
	.cfi_def_cfa_register 6
	subq	$32, %rsp
	.seh_stackalloc	32
	.seh_endprologue
	movq	%rcx, 16(%rbp)
	movq	%rdx, 24(%rbp)
	movq	%r8, 32(%rbp)
	.loc 4 179 0
	cmpq	$0, 24(%rbp)
	je	.L118
	.loc 4 180 0
	movq	16(%rbp), %rax
	movq	32(%rbp), %rcx
	movq	24(%rbp), %rdx
	movq	%rcx, %r8
	movq	%rax, %rcx
	call	_ZNSt16allocator_traitsISaIhEE10deallocateERS0_Phy
.L118:
	.loc 4 181 0
	nop
	addq	$32, %rsp
	popq	%rbp
	.cfi_restore 6
	.cfi_def_cfa 7, 8
	ret
	.cfi_endproc
.LFE2607:
	.seh_endproc
	.section	.text$_ZSt8_DestroyIPhEvT_S1_,"x"
	.linkonce discard
	.globl	_ZSt8_DestroyIPhEvT_S1_
	.def	_ZSt8_DestroyIPhEvT_S1_;	.scl	2;	.type	32;	.endef
	.seh_proc	_ZSt8_DestroyIPhEvT_S1_
_ZSt8_DestroyIPhEvT_S1_:
.LFB2608:
	.loc 6 127 0
	.cfi_startproc
	pushq	%rbp
	.seh_pushreg	%rbp
	.cfi_def_cfa_offset 16
	.cfi_offset 6, -16
	movq	%rsp, %rbp
	.seh_setframe	%rbp, 0
	.cfi_def_cfa_register 6
	subq	$32, %rsp
	.seh_stackalloc	32
	.seh_endprologue
	movq	%rcx, 16(%rbp)
	movq	%rdx, 24(%rbp)
	.loc 6 137 0
	movq	24(%rbp), %rax
	movq	%rax, %rdx
	movq	16(%rbp), %rcx
	call	_ZNSt12_Destroy_auxILb1EE9__destroyIPhEEvT_S3_
	.loc 6 138 0
	nop
	addq	$32, %rsp
	popq	%rbp
	.cfi_restore 6
	.cfi_def_cfa 7, 8
	ret
	.cfi_endproc
.LFE2608:
	.seh_endproc
	.section	.text$_ZNSt16allocator_traitsISaIhEE37select_on_container_copy_constructionERKS0_,"x"
	.linkonce discard
	.globl	_ZNSt16allocator_traitsISaIhEE37select_on_container_copy_constructionERKS0_
	.def	_ZNSt16allocator_traitsISaIhEE37select_on_container_copy_constructionERKS0_;	.scl	2;	.type	32;	.endef
	.seh_proc	_ZNSt16allocator_traitsISaIhEE37select_on_container_copy_constructionERKS0_
_ZNSt16allocator_traitsISaIhEE37select_on_container_copy_constructionERKS0_:
.LFB2611:
	.loc 11 504 0
	.cfi_startproc
	pushq	%rbp
	.seh_pushreg	%rbp
	.cfi_def_cfa_offset 16
	.cfi_offset 6, -16
	movq	%rsp, %rbp
	.seh_setframe	%rbp, 0
	.cfi_def_cfa_register 6
	subq	$32, %rsp
	.seh_stackalloc	32
	.seh_endprologue
	movq	%rcx, 16(%rbp)
	movq	%rdx, 24(%rbp)
	.loc 11 505 0
	movq	24(%rbp), %rax
	movq	%rax, %rdx
	movq	16(%rbp), %rcx
	call	_ZNSaIhEC1ERKS_
	movq	16(%rbp), %rax
	addq	$32, %rsp
	popq	%rbp
	.cfi_restore 6
	.cfi_def_cfa 7, 8
	ret
	.cfi_endproc
.LFE2611:
	.seh_endproc
	.section	.text$_ZNSaIhEC2ERKS_,"x"
	.linkonce discard
	.align 2
	.globl	_ZNSaIhEC2ERKS_
	.def	_ZNSaIhEC2ERKS_;	.scl	2;	.type	32;	.endef
	.seh_proc	_ZNSaIhEC2ERKS_
_ZNSaIhEC2ERKS_:
.LFB2613:
	.loc 8 133 0
	.cfi_startproc
	pushq	%rbp
	.seh_pushreg	%rbp
	.cfi_def_cfa_offset 16
	.cfi_offset 6, -16
	movq	%rsp, %rbp
	.seh_setframe	%rbp, 0
	.cfi_def_cfa_register 6
	subq	$32, %rsp
	.seh_stackalloc	32
	.seh_endprologue
	movq	%rcx, 16(%rbp)
	movq	%rdx, 24(%rbp)
.LBB28:
	.loc 8 134 0
	movq	24(%rbp), %rax
	movq	%rax, %rdx
	movq	16(%rbp), %rcx
	call	_ZN9__gnu_cxx13new_allocatorIhEC2ERKS1_
.LBE28:
	nop
	addq	$32, %rsp
	popq	%rbp
	.cfi_restore 6
	.cfi_def_cfa 7, 8
	ret
	.cfi_endproc
.LFE2613:
	.seh_endproc
	.section	.text$_ZNSaIhEC1ERKS_,"x"
	.linkonce discard
	.align 2
	.globl	_ZNSaIhEC1ERKS_
	.def	_ZNSaIhEC1ERKS_;	.scl	2;	.type	32;	.endef
	.seh_proc	_ZNSaIhEC1ERKS_
_ZNSaIhEC1ERKS_:
.LFB2614:
	.loc 8 133 0
	.cfi_startproc
	pushq	%rbp
	.seh_pushreg	%rbp
	.cfi_def_cfa_offset 16
	.cfi_offset 6, -16
	movq	%rsp, %rbp
	.seh_setframe	%rbp, 0
	.cfi_def_cfa_register 6
	subq	$32, %rsp
	.seh_stackalloc	32
	.seh_endprologue
	movq	%rcx, 16(%rbp)
	movq	%rdx, 24(%rbp)
.LBB29:
	.loc 8 134 0
	movq	24(%rbp), %rax
	movq	%rax, %rdx
	movq	16(%rbp), %rcx
	call	_ZN9__gnu_cxx13new_allocatorIhEC2ERKS1_
.LBE29:
	nop
	addq	$32, %rsp
	popq	%rbp
	.cfi_restore 6
	.cfi_def_cfa 7, 8
	ret
	.cfi_endproc
.LFE2614:
	.seh_endproc
	.section	.text$_ZN9__gnu_cxx13new_allocatorIhED2Ev,"x"
	.linkonce discard
	.align 2
	.globl	_ZN9__gnu_cxx13new_allocatorIhED2Ev
	.def	_ZN9__gnu_cxx13new_allocatorIhED2Ev;	.scl	2;	.type	32;	.endef
	.seh_proc	_ZN9__gnu_cxx13new_allocatorIhED2Ev
_ZN9__gnu_cxx13new_allocatorIhED2Ev:
.LFB2616:
	.file 12 "c:/users/ian/downloads/pocketcpp-0.7/pocketcpp/mingw/include/c++/7.2.0/ext/new_allocator.h"
	.loc 12 86 0
	.cfi_startproc
	pushq	%rbp
	.seh_pushreg	%rbp
	.cfi_def_cfa_offset 16
	.cfi_offset 6, -16
	movq	%rsp, %rbp
	.seh_setframe	%rbp, 0
	.cfi_def_cfa_register 6
	.seh_endprologue
	movq	%rcx, 16(%rbp)
	.loc 12 86 0
	nop
	popq	%rbp
	.cfi_restore 6
	.cfi_def_cfa 7, 8
	ret
	.cfi_endproc
.LFE2616:
	.seh_endproc
	.section	.text$_ZNSt12_Vector_baseIhSaIhEE12_Vector_implC1ERKS0_,"x"
	.linkonce discard
	.align 2
	.globl	_ZNSt12_Vector_baseIhSaIhEE12_Vector_implC1ERKS0_
	.def	_ZNSt12_Vector_baseIhSaIhEE12_Vector_implC1ERKS0_;	.scl	2;	.type	32;	.endef
	.seh_proc	_ZNSt12_Vector_baseIhSaIhEE12_Vector_implC1ERKS0_
_ZNSt12_Vector_baseIhSaIhEE12_Vector_implC1ERKS0_:
.LFB2620:
	.loc 4 92 0
	.cfi_startproc
	pushq	%rbp
	.seh_pushreg	%rbp
	.cfi_def_cfa_offset 16
	.cfi_offset 6, -16
	movq	%rsp, %rbp
	.seh_setframe	%rbp, 0
	.cfi_def_cfa_register 6
	subq	$32, %rsp
	.seh_stackalloc	32
	.seh_endprologue
	movq	%rcx, 16(%rbp)
	movq	%rdx, 24(%rbp)
.LBB30:
	.loc 4 93 0
	movq	24(%rbp), %rax
	movq	%rax, %rdx
	movq	16(%rbp), %rcx
	call	_ZNSaIhEC2ERKS_
	movq	16(%rbp), %rax
	movq	$0, (%rax)
	movq	16(%rbp), %rax
	movq	$0, 8(%rax)
	movq	16(%rbp), %rax
	movq	$0, 16(%rax)
.LBE30:
	.loc 4 94 0
	nop
	addq	$32, %rsp
	popq	%rbp
	.cfi_restore 6
	.cfi_def_cfa 7, 8
	ret
	.cfi_endproc
.LFE2620:
	.seh_endproc
	.section	.text$_ZNSt12_Vector_baseIhSaIhEE17_M_create_storageEy,"x"
	.linkonce discard
	.align 2
	.globl	_ZNSt12_Vector_baseIhSaIhEE17_M_create_storageEy
	.def	_ZNSt12_Vector_baseIhSaIhEE17_M_create_storageEy;	.scl	2;	.type	32;	.endef
	.seh_proc	_ZNSt12_Vector_baseIhSaIhEE17_M_create_storageEy
_ZNSt12_Vector_baseIhSaIhEE17_M_create_storageEy:
.LFB2621:
	.loc 4 185 0
	.cfi_startproc
	pushq	%rbp
	.seh_pushreg	%rbp
	.cfi_def_cfa_offset 16
	.cfi_offset 6, -16
	movq	%rsp, %rbp
	.seh_setframe	%rbp, 0
	.cfi_def_cfa_register 6
	subq	$32, %rsp
	.seh_stackalloc	32
	.seh_endprologue
	movq	%rcx, 16(%rbp)
	movq	%rdx, 24(%rbp)
	.loc 4 187 0
	movq	24(%rbp), %rax
	movq	%rax, %rdx
	movq	16(%rbp), %rcx
	call	_ZNSt12_Vector_baseIhSaIhEE11_M_allocateEy
	movq	%rax, %rdx
	movq	16(%rbp), %rax
	movq	%rdx, (%rax)
	.loc 4 188 0
	movq	16(%rbp), %rax
	movq	(%rax), %rdx
	movq	16(%rbp), %rax
	movq	%rdx, 8(%rax)
	.loc 4 189 0
	movq	16(%rbp), %rax
	movq	(%rax), %rdx
	movq	24(%rbp), %rax
	addq	%rax, %rdx
	movq	16(%rbp), %rax
	movq	%rdx, 16(%rax)
	.loc 4 190 0
	nop
	addq	$32, %rsp
	popq	%rbp
	.cfi_restore 6
	.cfi_def_cfa 7, 8
	ret
	.cfi_endproc
.LFE2621:
	.seh_endproc
	.section	.text$_ZN9__gnu_cxx17__normal_iteratorIPKhSt6vectorIhSaIhEEEC1ERKS2_,"x"
	.linkonce discard
	.align 2
	.globl	_ZN9__gnu_cxx17__normal_iteratorIPKhSt6vectorIhSaIhEEEC1ERKS2_
	.def	_ZN9__gnu_cxx17__normal_iteratorIPKhSt6vectorIhSaIhEEEC1ERKS2_;	.scl	2;	.type	32;	.endef
	.seh_proc	_ZN9__gnu_cxx17__normal_iteratorIPKhSt6vectorIhSaIhEEEC1ERKS2_
_ZN9__gnu_cxx17__normal_iteratorIPKhSt6vectorIhSaIhEEEC1ERKS2_:
.LFB2624:
	.loc 10 779 0
	.cfi_startproc
	pushq	%rbp
	.seh_pushreg	%rbp
	.cfi_def_cfa_offset 16
	.cfi_offset 6, -16
	movq	%rsp, %rbp
	.seh_setframe	%rbp, 0
	.cfi_def_cfa_register 6
	.seh_endprologue
	movq	%rcx, 16(%rbp)
	movq	%rdx, 24(%rbp)
.LBB31:
	.loc 10 780 0
	movq	24(%rbp), %rax
	movq	(%rax), %rdx
	movq	16(%rbp), %rax
	movq	%rdx, (%rax)
.LBE31:
	nop
	popq	%rbp
	.cfi_restore 6
	.cfi_def_cfa 7, 8
	ret
	.cfi_endproc
.LFE2624:
	.seh_endproc
	.section	.text$_ZSt18uninitialized_copyIN9__gnu_cxx17__normal_iteratorIPKhSt6vectorIhSaIhEEEEPhET0_T_SA_S9_,"x"
	.linkonce discard
	.globl	_ZSt18uninitialized_copyIN9__gnu_cxx17__normal_iteratorIPKhSt6vectorIhSaIhEEEEPhET0_T_SA_S9_
	.def	_ZSt18uninitialized_copyIN9__gnu_cxx17__normal_iteratorIPKhSt6vectorIhSaIhEEEEPhET0_T_SA_S9_;	.scl	2;	.type	32;	.endef
	.seh_proc	_ZSt18uninitialized_copyIN9__gnu_cxx17__normal_iteratorIPKhSt6vectorIhSaIhEEEEPhET0_T_SA_S9_
_ZSt18uninitialized_copyIN9__gnu_cxx17__normal_iteratorIPKhSt6vectorIhSaIhEEEEPhET0_T_SA_S9_:
.LFB2625:
	.loc 9 115 0
	.cfi_startproc
	pushq	%rbp
	.seh_pushreg	%rbp
	.cfi_def_cfa_offset 16
	.cfi_offset 6, -16
	movq	%rsp, %rbp
	.seh_setframe	%rbp, 0
	.cfi_def_cfa_register 6
	subq	$48, %rsp
	.seh_stackalloc	48
	.seh_endprologue
	movq	%rcx, 16(%rbp)
	movq	%rdx, 24(%rbp)
	movq	%r8, 32(%rbp)
	.loc 9 128 0
	movb	$1, -1(%rbp)
	.loc 9 134 0
	movq	32(%rbp), %rdx
	movq	24(%rbp), %rax
	movq	%rdx, %r8
	movq	%rax, %rdx
	movq	16(%rbp), %rcx
	call	_ZNSt20__uninitialized_copyILb1EE13__uninit_copyIN9__gnu_cxx17__normal_iteratorIPKhSt6vectorIhSaIhEEEEPhEET0_T_SC_SB_
	.loc 9 135 0
	addq	$48, %rsp
	popq	%rbp
	.cfi_restore 6
	.cfi_def_cfa 7, 8
	ret
	.cfi_endproc
.LFE2625:
	.seh_endproc
	.section	.text$_ZNSt16allocator_traitsISaI5pixelEE8max_sizeERKS1_,"x"
	.linkonce discard
	.globl	_ZNSt16allocator_traitsISaI5pixelEE8max_sizeERKS1_
	.def	_ZNSt16allocator_traitsISaI5pixelEE8max_sizeERKS1_;	.scl	2;	.type	32;	.endef
	.seh_proc	_ZNSt16allocator_traitsISaI5pixelEE8max_sizeERKS1_
_ZNSt16allocator_traitsISaI5pixelEE8max_sizeERKS1_:
.LFB2626:
	.loc 11 495 0
	.cfi_startproc
	pushq	%rbp
	.seh_pushreg	%rbp
	.cfi_def_cfa_offset 16
	.cfi_offset 6, -16
	movq	%rsp, %rbp
	.seh_setframe	%rbp, 0
	.cfi_def_cfa_register 6
	subq	$32, %rsp
	.seh_stackalloc	32
	.seh_endprologue
	movq	%rcx, 16(%rbp)
	.loc 11 496 0
	movq	16(%rbp), %rcx
	call	_ZNK9__gnu_cxx13new_allocatorI5pixelE8max_sizeEv
	addq	$32, %rsp
	popq	%rbp
	.cfi_restore 6
	.cfi_def_cfa 7, 8
	ret
	.cfi_endproc
.LFE2626:
	.seh_endproc
	.section	.text$_ZNKSt12_Vector_baseI5pixelSaIS0_EE19_M_get_Tp_allocatorEv,"x"
	.linkonce discard
	.align 2
	.globl	_ZNKSt12_Vector_baseI5pixelSaIS0_EE19_M_get_Tp_allocatorEv
	.def	_ZNKSt12_Vector_baseI5pixelSaIS0_EE19_M_get_Tp_allocatorEv;	.scl	2;	.type	32;	.endef
	.seh_proc	_ZNKSt12_Vector_baseI5pixelSaIS0_EE19_M_get_Tp_allocatorEv
_ZNKSt12_Vector_baseI5pixelSaIS0_EE19_M_get_Tp_allocatorEv:
.LFB2627:
	.loc 4 119 0
	.cfi_startproc
	pushq	%rbp
	.seh_pushreg	%rbp
	.cfi_def_cfa_offset 16
	.cfi_offset 6, -16
	movq	%rsp, %rbp
	.seh_setframe	%rbp, 0
	.cfi_def_cfa_register 6
	.seh_endprologue
	movq	%rcx, 16(%rbp)
	.loc 4 120 0
	movq	16(%rbp), %rax
	popq	%rbp
	.cfi_restore 6
	.cfi_def_cfa 7, 8
	ret
	.cfi_endproc
.LFE2627:
	.seh_endproc
	.section	.text$_ZNSt13move_iteratorIP5pixelEC1ES1_,"x"
	.linkonce discard
	.align 2
	.globl	_ZNSt13move_iteratorIP5pixelEC1ES1_
	.def	_ZNSt13move_iteratorIP5pixelEC1ES1_;	.scl	2;	.type	32;	.endef
	.seh_proc	_ZNSt13move_iteratorIP5pixelEC1ES1_
_ZNSt13move_iteratorIP5pixelEC1ES1_:
.LFB2630:
	.loc 10 1036 0
	.cfi_startproc
	pushq	%rbp
	.seh_pushreg	%rbp
	.cfi_def_cfa_offset 16
	.cfi_offset 6, -16
	movq	%rsp, %rbp
	.seh_setframe	%rbp, 0
	.cfi_def_cfa_register 6
	.seh_endprologue
	movq	%rcx, 16(%rbp)
	movq	%rdx, 24(%rbp)
.LBB32:
	.loc 10 1037 0
	movq	16(%rbp), %rax
	movq	24(%rbp), %rdx
	movq	%rdx, (%rax)
.LBE32:
	nop
	popq	%rbp
	.cfi_restore 6
	.cfi_def_cfa 7, 8
	ret
	.cfi_endproc
.LFE2630:
	.seh_endproc
	.section	.text$_ZNSt12_Vector_baseI5pixelSaIS0_EE11_M_allocateEy,"x"
	.linkonce discard
	.align 2
	.globl	_ZNSt12_Vector_baseI5pixelSaIS0_EE11_M_allocateEy
	.def	_ZNSt12_Vector_baseI5pixelSaIS0_EE11_M_allocateEy;	.scl	2;	.type	32;	.endef
	.seh_proc	_ZNSt12_Vector_baseI5pixelSaIS0_EE11_M_allocateEy
_ZNSt12_Vector_baseI5pixelSaIS0_EE11_M_allocateEy:
.LFB2631:
	.loc 4 169 0
	.cfi_startproc
	pushq	%rbp
	.seh_pushreg	%rbp
	.cfi_def_cfa_offset 16
	.cfi_offset 6, -16
	movq	%rsp, %rbp
	.seh_setframe	%rbp, 0
	.cfi_def_cfa_register 6
	subq	$32, %rsp
	.seh_stackalloc	32
	.seh_endprologue
	movq	%rcx, 16(%rbp)
	movq	%rdx, 24(%rbp)
	.loc 4 172 0
	cmpq	$0, 24(%rbp)
	je	.L136
	.loc 4 172 0 is_stmt 0 discriminator 1
	movq	16(%rbp), %rax
	movq	24(%rbp), %rdx
	movq	%rax, %rcx
	call	_ZNSt16allocator_traitsISaI5pixelEE8allocateERS1_y
	jmp	.L138
.L136:
	.loc 4 172 0 discriminator 2
	movl	$0, %eax
.L138:
	.loc 4 173 0 is_stmt 1 discriminator 5
	addq	$32, %rsp
	popq	%rbp
	.cfi_restore 6
	.cfi_def_cfa 7, 8
	ret
	.cfi_endproc
.LFE2631:
	.seh_endproc
	.section	.text$_ZSt22__uninitialized_copy_aISt13move_iteratorIP5pixelES2_S1_ET0_T_S5_S4_RSaIT1_E,"x"
	.linkonce discard
	.globl	_ZSt22__uninitialized_copy_aISt13move_iteratorIP5pixelES2_S1_ET0_T_S5_S4_RSaIT1_E
	.def	_ZSt22__uninitialized_copy_aISt13move_iteratorIP5pixelES2_S1_ET0_T_S5_S4_RSaIT1_E;	.scl	2;	.type	32;	.endef
	.seh_proc	_ZSt22__uninitialized_copy_aISt13move_iteratorIP5pixelES2_S1_ET0_T_S5_S4_RSaIT1_E
_ZSt22__uninitialized_copy_aISt13move_iteratorIP5pixelES2_S1_ET0_T_S5_S4_RSaIT1_E:
.LFB2632:
	.loc 9 287 0
	.cfi_startproc
	pushq	%rbp
	.seh_pushreg	%rbp
	.cfi_def_cfa_offset 16
	.cfi_offset 6, -16
	movq	%rsp, %rbp
	.seh_setframe	%rbp, 0
	.cfi_def_cfa_register 6
	subq	$32, %rsp
	.seh_stackalloc	32
	.seh_endprologue
	movq	%rcx, 16(%rbp)
	movq	%rdx, 24(%rbp)
	movq	%r8, 32(%rbp)
	movq	%r9, 40(%rbp)
	.loc 9 289 0
	movq	32(%rbp), %rdx
	movq	24(%rbp), %rax
	movq	%rdx, %r8
	movq	%rax, %rdx
	movq	16(%rbp), %rcx
	call	_ZSt18uninitialized_copyISt13move_iteratorIP5pixelES2_ET0_T_S5_S4_
	addq	$32, %rsp
	popq	%rbp
	.cfi_restore 6
	.cfi_def_cfa 7, 8
	ret
	.cfi_endproc
.LFE2632:
	.seh_endproc
	.section	.text$_ZNSt16allocator_traitsISaI5pixelEE10deallocateERS1_PS0_y,"x"
	.linkonce discard
	.globl	_ZNSt16allocator_traitsISaI5pixelEE10deallocateERS1_PS0_y
	.def	_ZNSt16allocator_traitsISaI5pixelEE10deallocateERS1_PS0_y;	.scl	2;	.type	32;	.endef
	.seh_proc	_ZNSt16allocator_traitsISaI5pixelEE10deallocateERS1_PS0_y
_ZNSt16allocator_traitsISaI5pixelEE10deallocateERS1_PS0_y:
.LFB2633:
	.loc 11 461 0
	.cfi_startproc
	pushq	%rbp
	.seh_pushreg	%rbp
	.cfi_def_cfa_offset 16
	.cfi_offset 6, -16
	movq	%rsp, %rbp
	.seh_setframe	%rbp, 0
	.cfi_def_cfa_register 6
	subq	$32, %rsp
	.seh_stackalloc	32
	.seh_endprologue
	movq	%rcx, 16(%rbp)
	movq	%rdx, 24(%rbp)
	movq	%r8, 32(%rbp)
	.loc 11 462 0
	movq	32(%rbp), %rdx
	movq	24(%rbp), %rax
	movq	%rdx, %r8
	movq	%rax, %rdx
	movq	16(%rbp), %rcx
	call	_ZN9__gnu_cxx13new_allocatorI5pixelE10deallocateEPS1_y
	nop
	addq	$32, %rsp
	popq	%rbp
	.cfi_restore 6
	.cfi_def_cfa 7, 8
	ret
	.cfi_endproc
.LFE2633:
	.seh_endproc
	.section	.text$_ZSt7forwardIRK5pixelEOT_RNSt16remove_referenceIS3_E4typeE,"x"
	.linkonce discard
	.globl	_ZSt7forwardIRK5pixelEOT_RNSt16remove_referenceIS3_E4typeE
	.def	_ZSt7forwardIRK5pixelEOT_RNSt16remove_referenceIS3_E4typeE;	.scl	2;	.type	32;	.endef
	.seh_proc	_ZSt7forwardIRK5pixelEOT_RNSt16remove_referenceIS3_E4typeE
_ZSt7forwardIRK5pixelEOT_RNSt16remove_referenceIS3_E4typeE:
.LFB2634:
	.file 13 "c:/users/ian/downloads/pocketcpp-0.7/pocketcpp/mingw/include/c++/7.2.0/bits/move.h"
	.loc 13 73 0
	.cfi_startproc
	pushq	%rbp
	.seh_pushreg	%rbp
	.cfi_def_cfa_offset 16
	.cfi_offset 6, -16
	movq	%rsp, %rbp
	.seh_setframe	%rbp, 0
	.cfi_def_cfa_register 6
	.seh_endprologue
	movq	%rcx, 16(%rbp)
	.loc 13 74 0
	movq	16(%rbp), %rax
	popq	%rbp
	.cfi_restore 6
	.cfi_def_cfa 7, 8
	ret
	.cfi_endproc
.LFE2634:
	.seh_endproc
	.section	.text$_ZN9__gnu_cxx13new_allocatorI5pixelE9constructIS1_JRKS1_EEEvPT_DpOT0_,"x"
	.linkonce discard
	.align 2
	.globl	_ZN9__gnu_cxx13new_allocatorI5pixelE9constructIS1_JRKS1_EEEvPT_DpOT0_
	.def	_ZN9__gnu_cxx13new_allocatorI5pixelE9constructIS1_JRKS1_EEEvPT_DpOT0_;	.scl	2;	.type	32;	.endef
	.seh_proc	_ZN9__gnu_cxx13new_allocatorI5pixelE9constructIS1_JRKS1_EEEvPT_DpOT0_
_ZN9__gnu_cxx13new_allocatorI5pixelE9constructIS1_JRKS1_EEEvPT_DpOT0_:
.LFB2635:
	.loc 12 135 0
	.cfi_startproc
	pushq	%rbp
	.seh_pushreg	%rbp
	.cfi_def_cfa_offset 16
	.cfi_offset 6, -16
	pushq	%rbx
	.seh_pushreg	%rbx
	.cfi_def_cfa_offset 24
	.cfi_offset 3, -24
	subq	$40, %rsp
	.seh_stackalloc	40
	.cfi_def_cfa_offset 64
	leaq	128(%rsp), %rbp
	.seh_setframe	%rbp, 128
	.cfi_def_cfa 6, -64
	.seh_endprologue
	movq	%rcx, -64(%rbp)
	movq	%rdx, -56(%rbp)
	movq	%r8, -48(%rbp)
	.loc 12 136 0
	movq	-48(%rbp), %rax
	movq	%rax, %rcx
	call	_ZSt7forwardIRK5pixelEOT_RNSt16remove_referenceIS3_E4typeE
	movq	%rax, %rbx
	movq	-56(%rbp), %rax
	movq	%rax, %rdx
	movl	$4, %ecx
	call	_ZnwyPv
	testq	%rax, %rax
	je	.L147
	movl	(%rbx), %edx
	movl	%edx, (%rax)
.L147:
	nop
	addq	$40, %rsp
	popq	%rbx
	.cfi_restore 3
	popq	%rbp
	.cfi_restore 6
	.cfi_def_cfa 7, -24
	ret
	.cfi_endproc
.LFE2635:
	.seh_endproc
	.section	.text$_ZN9__gnu_cxx17__normal_iteratorIP5pixelSt6vectorIS1_SaIS1_EEEC1ERKS2_,"x"
	.linkonce discard
	.align 2
	.globl	_ZN9__gnu_cxx17__normal_iteratorIP5pixelSt6vectorIS1_SaIS1_EEEC1ERKS2_
	.def	_ZN9__gnu_cxx17__normal_iteratorIP5pixelSt6vectorIS1_SaIS1_EEEC1ERKS2_;	.scl	2;	.type	32;	.endef
	.seh_proc	_ZN9__gnu_cxx17__normal_iteratorIP5pixelSt6vectorIS1_SaIS1_EEEC1ERKS2_
_ZN9__gnu_cxx17__normal_iteratorIP5pixelSt6vectorIS1_SaIS1_EEEC1ERKS2_:
.LFB2638:
	.loc 10 779 0
	.cfi_startproc
	pushq	%rbp
	.seh_pushreg	%rbp
	.cfi_def_cfa_offset 16
	.cfi_offset 6, -16
	movq	%rsp, %rbp
	.seh_setframe	%rbp, 0
	.cfi_def_cfa_register 6
	.seh_endprologue
	movq	%rcx, 16(%rbp)
	movq	%rdx, 24(%rbp)
.LBB33:
	.loc 10 780 0
	movq	24(%rbp), %rax
	movq	(%rax), %rdx
	movq	16(%rbp), %rax
	movq	%rdx, (%rax)
.LBE33:
	nop
	popq	%rbp
	.cfi_restore 6
	.cfi_def_cfa 7, 8
	ret
	.cfi_endproc
.LFE2638:
	.seh_endproc
	.section	.text$_ZNKSt6vectorI5pixelSaIS0_EE12_M_check_lenEyPKc,"x"
	.linkonce discard
	.align 2
	.globl	_ZNKSt6vectorI5pixelSaIS0_EE12_M_check_lenEyPKc
	.def	_ZNKSt6vectorI5pixelSaIS0_EE12_M_check_lenEyPKc;	.scl	2;	.type	32;	.endef
	.seh_proc	_ZNKSt6vectorI5pixelSaIS0_EE12_M_check_lenEyPKc
_ZNKSt6vectorI5pixelSaIS0_EE12_M_check_lenEyPKc:
.LFB2639:
	.loc 4 1497 0
	.cfi_startproc
	pushq	%rbp
	.seh_pushreg	%rbp
	.cfi_def_cfa_offset 16
	.cfi_offset 6, -16
	pushq	%rbx
	.seh_pushreg	%rbx
	.cfi_def_cfa_offset 24
	.cfi_offset 3, -24
	subq	$56, %rsp
	.seh_stackalloc	56
	.cfi_def_cfa_offset 80
	leaq	128(%rsp), %rbp
	.seh_setframe	%rbp, 128
	.cfi_def_cfa 6, -48
	.seh_endprologue
	movq	%rcx, -48(%rbp)
	movq	%rdx, -40(%rbp)
	movq	%r8, -32(%rbp)
	.loc 4 1499 0
	movq	-48(%rbp), %rcx
	call	_ZNKSt6vectorI5pixelSaIS0_EE8max_sizeEv
	movq	%rax, %rbx
	movq	-48(%rbp), %rcx
	call	_ZNKSt6vectorI5pixelSaIS0_EE4sizeEv
	subq	%rax, %rbx
	movq	%rbx, %rdx
	movq	-40(%rbp), %rax
	cmpq	%rax, %rdx
	setb	%al
	testb	%al, %al
	je	.L150
	.loc 4 1500 0
	movq	-32(%rbp), %rax
	movq	%rax, %rcx
	call	_ZSt20__throw_length_errorPKc
.L150:
	.loc 4 1502 0
	movq	-48(%rbp), %rcx
	call	_ZNKSt6vectorI5pixelSaIS0_EE4sizeEv
	movq	%rax, %rbx
	movq	-48(%rbp), %rcx
	call	_ZNKSt6vectorI5pixelSaIS0_EE4sizeEv
	movq	%rax, -96(%rbp)
	leaq	-40(%rbp), %rdx
	leaq	-96(%rbp), %rax
	movq	%rax, %rcx
	call	_ZSt3maxIyERKT_S2_S2_
	movq	(%rax), %rax
	addq	%rbx, %rax
	movq	%rax, -88(%rbp)
	.loc 4 1503 0
	movq	-48(%rbp), %rcx
	call	_ZNKSt6vectorI5pixelSaIS0_EE4sizeEv
	cmpq	%rax, -88(%rbp)
	jb	.L151
	.loc 4 1503 0 is_stmt 0 discriminator 2
	movq	-48(%rbp), %rcx
	call	_ZNKSt6vectorI5pixelSaIS0_EE8max_sizeEv
	cmpq	%rax, -88(%rbp)
	jbe	.L152
.L151:
	.loc 4 1503 0 discriminator 3
	movq	-48(%rbp), %rcx
	call	_ZNKSt6vectorI5pixelSaIS0_EE8max_sizeEv
	jmp	.L153
.L152:
	.loc 4 1503 0 discriminator 4
	movq	-88(%rbp), %rax
.L153:
	.loc 4 1504 0 is_stmt 1 discriminator 6
	addq	$56, %rsp
	popq	%rbx
	.cfi_restore 3
	popq	%rbp
	.cfi_restore 6
	.cfi_def_cfa 7, -40
	ret
	.cfi_endproc
.LFE2639:
	.seh_endproc
	.section	.text$_ZNSt6vectorI5pixelSaIS0_EE5beginEv,"x"
	.linkonce discard
	.align 2
	.globl	_ZNSt6vectorI5pixelSaIS0_EE5beginEv
	.def	_ZNSt6vectorI5pixelSaIS0_EE5beginEv;	.scl	2;	.type	32;	.endef
	.seh_proc	_ZNSt6vectorI5pixelSaIS0_EE5beginEv
_ZNSt6vectorI5pixelSaIS0_EE5beginEv:
.LFB2640:
	.loc 4 563 0
	.cfi_startproc
	pushq	%rbp
	.seh_pushreg	%rbp
	.cfi_def_cfa_offset 16
	.cfi_offset 6, -16
	movq	%rsp, %rbp
	.seh_setframe	%rbp, 0
	.cfi_def_cfa_register 6
	subq	$48, %rsp
	.seh_stackalloc	48
	.seh_endprologue
	movq	%rcx, 16(%rbp)
	.loc 4 564 0
	movq	16(%rbp), %rdx
	leaq	-8(%rbp), %rax
	movq	%rax, %rcx
	call	_ZN9__gnu_cxx17__normal_iteratorIP5pixelSt6vectorIS1_SaIS1_EEEC1ERKS2_
	movq	-8(%rbp), %rax
	addq	$48, %rsp
	popq	%rbp
	.cfi_restore 6
	.cfi_def_cfa 7, 8
	ret
	.cfi_endproc
.LFE2640:
	.seh_endproc
	.section	.text$_ZN9__gnu_cxxmiIP5pixelSt6vectorIS1_SaIS1_EEEENS_17__normal_iteratorIT_T0_E15difference_typeERKS9_SC_,"x"
	.linkonce discard
	.globl	_ZN9__gnu_cxxmiIP5pixelSt6vectorIS1_SaIS1_EEEENS_17__normal_iteratorIT_T0_E15difference_typeERKS9_SC_
	.def	_ZN9__gnu_cxxmiIP5pixelSt6vectorIS1_SaIS1_EEEENS_17__normal_iteratorIT_T0_E15difference_typeERKS9_SC_;	.scl	2;	.type	32;	.endef
	.seh_proc	_ZN9__gnu_cxxmiIP5pixelSt6vectorIS1_SaIS1_EEEENS_17__normal_iteratorIT_T0_E15difference_typeERKS9_SC_
_ZN9__gnu_cxxmiIP5pixelSt6vectorIS1_SaIS1_EEEENS_17__normal_iteratorIT_T0_E15difference_typeERKS9_SC_:
.LFB2641:
	.loc 10 962 0
	.cfi_startproc
	pushq	%rbp
	.seh_pushreg	%rbp
	.cfi_def_cfa_offset 16
	.cfi_offset 6, -16
	pushq	%rbx
	.seh_pushreg	%rbx
	.cfi_def_cfa_offset 24
	.cfi_offset 3, -24
	subq	$40, %rsp
	.seh_stackalloc	40
	.cfi_def_cfa_offset 64
	leaq	128(%rsp), %rbp
	.seh_setframe	%rbp, 128
	.cfi_def_cfa 6, -64
	.seh_endprologue
	movq	%rcx, -64(%rbp)
	movq	%rdx, -56(%rbp)
	.loc 10 965 0
	movq	-64(%rbp), %rcx
	call	_ZNK9__gnu_cxx17__normal_iteratorIP5pixelSt6vectorIS1_SaIS1_EEE4baseEv
	movq	(%rax), %rax
	movq	%rax, %rbx
	movq	-56(%rbp), %rax
	movq	%rax, %rcx
	call	_ZNK9__gnu_cxx17__normal_iteratorIP5pixelSt6vectorIS1_SaIS1_EEE4baseEv
	movq	(%rax), %rax
	subq	%rax, %rbx
	movq	%rbx, %rax
	sarq	$2, %rax
	addq	$40, %rsp
	popq	%rbx
	.cfi_restore 3
	popq	%rbp
	.cfi_restore 6
	.cfi_def_cfa 7, -24
	ret
	.cfi_endproc
.LFE2641:
	.seh_endproc
	.section	.text$_ZNK9__gnu_cxx17__normal_iteratorIP5pixelSt6vectorIS1_SaIS1_EEE4baseEv,"x"
	.linkonce discard
	.align 2
	.globl	_ZNK9__gnu_cxx17__normal_iteratorIP5pixelSt6vectorIS1_SaIS1_EEE4baseEv
	.def	_ZNK9__gnu_cxx17__normal_iteratorIP5pixelSt6vectorIS1_SaIS1_EEE4baseEv;	.scl	2;	.type	32;	.endef
	.seh_proc	_ZNK9__gnu_cxx17__normal_iteratorIP5pixelSt6vectorIS1_SaIS1_EEE4baseEv
_ZNK9__gnu_cxx17__normal_iteratorIP5pixelSt6vectorIS1_SaIS1_EEE4baseEv:
.LFB2642:
	.loc 10 844 0
	.cfi_startproc
	pushq	%rbp
	.seh_pushreg	%rbp
	.cfi_def_cfa_offset 16
	.cfi_offset 6, -16
	movq	%rsp, %rbp
	.seh_setframe	%rbp, 0
	.cfi_def_cfa_register 6
	.seh_endprologue
	movq	%rcx, 16(%rbp)
	.loc 10 845 0
	movq	16(%rbp), %rax
	popq	%rbp
	.cfi_restore 6
	.cfi_def_cfa 7, 8
	ret
	.cfi_endproc
.LFE2642:
	.seh_endproc
	.section	.text$_ZSt34__uninitialized_move_if_noexcept_aIP5pixelS1_SaIS0_EET0_T_S4_S3_RT1_,"x"
	.linkonce discard
	.globl	_ZSt34__uninitialized_move_if_noexcept_aIP5pixelS1_SaIS0_EET0_T_S4_S3_RT1_
	.def	_ZSt34__uninitialized_move_if_noexcept_aIP5pixelS1_SaIS0_EET0_T_S4_S3_RT1_;	.scl	2;	.type	32;	.endef
	.seh_proc	_ZSt34__uninitialized_move_if_noexcept_aIP5pixelS1_SaIS0_EET0_T_S4_S3_RT1_
_ZSt34__uninitialized_move_if_noexcept_aIP5pixelS1_SaIS0_EET0_T_S4_S3_RT1_:
.LFB2643:
	.loc 9 305 0
	.cfi_startproc
	pushq	%rbp
	.seh_pushreg	%rbp
	.cfi_def_cfa_offset 16
	.cfi_offset 6, -16
	pushq	%rbx
	.seh_pushreg	%rbx
	.cfi_def_cfa_offset 24
	.cfi_offset 3, -24
	subq	$40, %rsp
	.seh_stackalloc	40
	.cfi_def_cfa_offset 64
	leaq	128(%rsp), %rbp
	.seh_setframe	%rbp, 128
	.cfi_def_cfa 6, -64
	.seh_endprologue
	movq	%rcx, -64(%rbp)
	movq	%rdx, -56(%rbp)
	movq	%r8, -48(%rbp)
	movq	%r9, -40(%rbp)
	.loc 9 311 0
	movq	-56(%rbp), %rax
	movq	%rax, %rcx
	call	_ZSt32__make_move_if_noexcept_iteratorI5pixelSt13move_iteratorIPS0_EET0_PT_
	movq	%rax, %rbx
	movq	-64(%rbp), %rcx
	call	_ZSt32__make_move_if_noexcept_iteratorI5pixelSt13move_iteratorIPS0_EET0_PT_
	movq	%rax, %rcx
	.loc 9 312 0
	movq	-40(%rbp), %rdx
	movq	-48(%rbp), %rax
	movq	%rdx, %r9
	movq	%rax, %r8
	movq	%rbx, %rdx
	call	_ZSt22__uninitialized_copy_aISt13move_iteratorIP5pixelES2_S1_ET0_T_S5_S4_RSaIT1_E
	.loc 9 313 0
	addq	$40, %rsp
	popq	%rbx
	.cfi_restore 3
	popq	%rbp
	.cfi_restore 6
	.cfi_def_cfa 7, -24
	ret
	.cfi_endproc
.LFE2643:
	.seh_endproc
	.section	.text$_ZNSt16allocator_traitsISaI5pixelEE7destroyIS0_EEvRS1_PT_,"x"
	.linkonce discard
	.globl	_ZNSt16allocator_traitsISaI5pixelEE7destroyIS0_EEvRS1_PT_
	.def	_ZNSt16allocator_traitsISaI5pixelEE7destroyIS0_EEvRS1_PT_;	.scl	2;	.type	32;	.endef
	.seh_proc	_ZNSt16allocator_traitsISaI5pixelEE7destroyIS0_EEvRS1_PT_
_ZNSt16allocator_traitsISaI5pixelEE7destroyIS0_EEvRS1_PT_:
.LFB2644:
	.loc 11 486 0
	.cfi_startproc
	pushq	%rbp
	.seh_pushreg	%rbp
	.cfi_def_cfa_offset 16
	.cfi_offset 6, -16
	movq	%rsp, %rbp
	.seh_setframe	%rbp, 0
	.cfi_def_cfa_register 6
	subq	$32, %rsp
	.seh_stackalloc	32
	.seh_endprologue
	movq	%rcx, 16(%rbp)
	movq	%rdx, 24(%rbp)
	.loc 11 487 0
	movq	24(%rbp), %rax
	movq	%rax, %rdx
	movq	16(%rbp), %rcx
	call	_ZN9__gnu_cxx13new_allocatorI5pixelE7destroyIS1_EEvPT_
	nop
	addq	$32, %rsp
	popq	%rbp
	.cfi_restore 6
	.cfi_def_cfa 7, 8
	ret
	.cfi_endproc
.LFE2644:
	.seh_endproc
	.section	.text$_ZNSaI5pixelEC2Ev,"x"
	.linkonce discard
	.align 2
	.globl	_ZNSaI5pixelEC2Ev
	.def	_ZNSaI5pixelEC2Ev;	.scl	2;	.type	32;	.endef
	.seh_proc	_ZNSaI5pixelEC2Ev
_ZNSaI5pixelEC2Ev:
.LFB2680:
	.loc 8 131 0
	.cfi_startproc
	pushq	%rbp
	.seh_pushreg	%rbp
	.cfi_def_cfa_offset 16
	.cfi_offset 6, -16
	movq	%rsp, %rbp
	.seh_setframe	%rbp, 0
	.cfi_def_cfa_register 6
	subq	$32, %rsp
	.seh_stackalloc	32
	.seh_endprologue
	movq	%rcx, 16(%rbp)
.LBB34:
	.loc 8 131 0
	movq	16(%rbp), %rcx
	call	_ZN9__gnu_cxx13new_allocatorI5pixelEC2Ev
.LBE34:
	nop
	addq	$32, %rsp
	popq	%rbp
	.cfi_restore 6
	.cfi_def_cfa 7, 8
	ret
	.cfi_endproc
.LFE2680:
	.seh_endproc
	.section	.text$_ZN9__gnu_cxx13new_allocatorI5pixelED2Ev,"x"
	.linkonce discard
	.align 2
	.globl	_ZN9__gnu_cxx13new_allocatorI5pixelED2Ev
	.def	_ZN9__gnu_cxx13new_allocatorI5pixelED2Ev;	.scl	2;	.type	32;	.endef
	.seh_proc	_ZN9__gnu_cxx13new_allocatorI5pixelED2Ev
_ZN9__gnu_cxx13new_allocatorI5pixelED2Ev:
.LFB2683:
	.loc 12 86 0
	.cfi_startproc
	pushq	%rbp
	.seh_pushreg	%rbp
	.cfi_def_cfa_offset 16
	.cfi_offset 6, -16
	movq	%rsp, %rbp
	.seh_setframe	%rbp, 0
	.cfi_def_cfa_register 6
	.seh_endprologue
	movq	%rcx, 16(%rbp)
	.loc 12 86 0
	nop
	popq	%rbp
	.cfi_restore 6
	.cfi_def_cfa 7, 8
	ret
	.cfi_endproc
.LFE2683:
	.seh_endproc
	.section	.text$_ZNSt12_Destroy_auxILb1EE9__destroyIP5pixelEEvT_S4_,"x"
	.linkonce discard
	.globl	_ZNSt12_Destroy_auxILb1EE9__destroyIP5pixelEEvT_S4_
	.def	_ZNSt12_Destroy_auxILb1EE9__destroyIP5pixelEEvT_S4_;	.scl	2;	.type	32;	.endef
	.seh_proc	_ZNSt12_Destroy_auxILb1EE9__destroyIP5pixelEEvT_S4_
_ZNSt12_Destroy_auxILb1EE9__destroyIP5pixelEEvT_S4_:
.LFB2685:
	.loc 6 117 0
	.cfi_startproc
	pushq	%rbp
	.seh_pushreg	%rbp
	.cfi_def_cfa_offset 16
	.cfi_offset 6, -16
	movq	%rsp, %rbp
	.seh_setframe	%rbp, 0
	.cfi_def_cfa_register 6
	.seh_endprologue
	movq	%rcx, 16(%rbp)
	movq	%rdx, 24(%rbp)
	.loc 6 117 0
	nop
	popq	%rbp
	.cfi_restore 6
	.cfi_def_cfa 7, 8
	ret
	.cfi_endproc
.LFE2685:
	.seh_endproc
	.section	.text$_ZNSaIhEC2Ev,"x"
	.linkonce discard
	.align 2
	.globl	_ZNSaIhEC2Ev
	.def	_ZNSaIhEC2Ev;	.scl	2;	.type	32;	.endef
	.seh_proc	_ZNSaIhEC2Ev
_ZNSaIhEC2Ev:
.LFB2687:
	.loc 8 131 0
	.cfi_startproc
	pushq	%rbp
	.seh_pushreg	%rbp
	.cfi_def_cfa_offset 16
	.cfi_offset 6, -16
	movq	%rsp, %rbp
	.seh_setframe	%rbp, 0
	.cfi_def_cfa_register 6
	subq	$32, %rsp
	.seh_stackalloc	32
	.seh_endprologue
	movq	%rcx, 16(%rbp)
.LBB35:
	.loc 8 131 0
	movq	16(%rbp), %rcx
	call	_ZN9__gnu_cxx13new_allocatorIhEC2Ev
.LBE35:
	nop
	addq	$32, %rsp
	popq	%rbp
	.cfi_restore 6
	.cfi_def_cfa 7, 8
	ret
	.cfi_endproc
.LFE2687:
	.seh_endproc
	.section	.text$_ZNSt16allocator_traitsISaIhEE10deallocateERS0_Phy,"x"
	.linkonce discard
	.globl	_ZNSt16allocator_traitsISaIhEE10deallocateERS0_Phy
	.def	_ZNSt16allocator_traitsISaIhEE10deallocateERS0_Phy;	.scl	2;	.type	32;	.endef
	.seh_proc	_ZNSt16allocator_traitsISaIhEE10deallocateERS0_Phy
_ZNSt16allocator_traitsISaIhEE10deallocateERS0_Phy:
.LFB2689:
	.loc 11 461 0
	.cfi_startproc
	pushq	%rbp
	.seh_pushreg	%rbp
	.cfi_def_cfa_offset 16
	.cfi_offset 6, -16
	movq	%rsp, %rbp
	.seh_setframe	%rbp, 0
	.cfi_def_cfa_register 6
	subq	$32, %rsp
	.seh_stackalloc	32
	.seh_endprologue
	movq	%rcx, 16(%rbp)
	movq	%rdx, 24(%rbp)
	movq	%r8, 32(%rbp)
	.loc 11 462 0
	movq	32(%rbp), %rdx
	movq	24(%rbp), %rax
	movq	%rdx, %r8
	movq	%rax, %rdx
	movq	16(%rbp), %rcx
	call	_ZN9__gnu_cxx13new_allocatorIhE10deallocateEPhy
	nop
	addq	$32, %rsp
	popq	%rbp
	.cfi_restore 6
	.cfi_def_cfa 7, 8
	ret
	.cfi_endproc
.LFE2689:
	.seh_endproc
	.section	.text$_ZNSt12_Destroy_auxILb1EE9__destroyIPhEEvT_S3_,"x"
	.linkonce discard
	.globl	_ZNSt12_Destroy_auxILb1EE9__destroyIPhEEvT_S3_
	.def	_ZNSt12_Destroy_auxILb1EE9__destroyIPhEEvT_S3_;	.scl	2;	.type	32;	.endef
	.seh_proc	_ZNSt12_Destroy_auxILb1EE9__destroyIPhEEvT_S3_
_ZNSt12_Destroy_auxILb1EE9__destroyIPhEEvT_S3_:
.LFB2690:
	.loc 6 117 0
	.cfi_startproc
	pushq	%rbp
	.seh_pushreg	%rbp
	.cfi_def_cfa_offset 16
	.cfi_offset 6, -16
	movq	%rsp, %rbp
	.seh_setframe	%rbp, 0
	.cfi_def_cfa_register 6
	.seh_endprologue
	movq	%rcx, 16(%rbp)
	movq	%rdx, 24(%rbp)
	.loc 6 117 0
	nop
	popq	%rbp
	.cfi_restore 6
	.cfi_def_cfa 7, 8
	ret
	.cfi_endproc
.LFE2690:
	.seh_endproc
	.section	.text$_ZN9__gnu_cxx13new_allocatorIhEC2ERKS1_,"x"
	.linkonce discard
	.align 2
	.globl	_ZN9__gnu_cxx13new_allocatorIhEC2ERKS1_
	.def	_ZN9__gnu_cxx13new_allocatorIhEC2ERKS1_;	.scl	2;	.type	32;	.endef
	.seh_proc	_ZN9__gnu_cxx13new_allocatorIhEC2ERKS1_
_ZN9__gnu_cxx13new_allocatorIhEC2ERKS1_:
.LFB2692:
	.loc 12 81 0
	.cfi_startproc
	pushq	%rbp
	.seh_pushreg	%rbp
	.cfi_def_cfa_offset 16
	.cfi_offset 6, -16
	movq	%rsp, %rbp
	.seh_setframe	%rbp, 0
	.cfi_def_cfa_register 6
	.seh_endprologue
	movq	%rcx, 16(%rbp)
	movq	%rdx, 24(%rbp)
	.loc 12 81 0
	nop
	popq	%rbp
	.cfi_restore 6
	.cfi_def_cfa 7, 8
	ret
	.cfi_endproc
.LFE2692:
	.seh_endproc
	.section	.text$_ZNSt12_Vector_baseIhSaIhEE11_M_allocateEy,"x"
	.linkonce discard
	.align 2
	.globl	_ZNSt12_Vector_baseIhSaIhEE11_M_allocateEy
	.def	_ZNSt12_Vector_baseIhSaIhEE11_M_allocateEy;	.scl	2;	.type	32;	.endef
	.seh_proc	_ZNSt12_Vector_baseIhSaIhEE11_M_allocateEy
_ZNSt12_Vector_baseIhSaIhEE11_M_allocateEy:
.LFB2694:
	.loc 4 169 0
	.cfi_startproc
	pushq	%rbp
	.seh_pushreg	%rbp
	.cfi_def_cfa_offset 16
	.cfi_offset 6, -16
	movq	%rsp, %rbp
	.seh_setframe	%rbp, 0
	.cfi_def_cfa_register 6
	subq	$32, %rsp
	.seh_stackalloc	32
	.seh_endprologue
	movq	%rcx, 16(%rbp)
	movq	%rdx, 24(%rbp)
	.loc 4 172 0
	cmpq	$0, 24(%rbp)
	je	.L172
	.loc 4 172 0 is_stmt 0 discriminator 1
	movq	16(%rbp), %rax
	movq	24(%rbp), %rdx
	movq	%rax, %rcx
	call	_ZNSt16allocator_traitsISaIhEE8allocateERS0_y
	jmp	.L174
.L172:
	.loc 4 172 0 discriminator 2
	movl	$0, %eax
.L174:
	.loc 4 173 0 is_stmt 1 discriminator 5
	addq	$32, %rsp
	popq	%rbp
	.cfi_restore 6
	.cfi_def_cfa 7, 8
	ret
	.cfi_endproc
.LFE2694:
	.seh_endproc
	.section	.text$_ZNSt20__uninitialized_copyILb1EE13__uninit_copyIN9__gnu_cxx17__normal_iteratorIPKhSt6vectorIhSaIhEEEEPhEET0_T_SC_SB_,"x"
	.linkonce discard
	.globl	_ZNSt20__uninitialized_copyILb1EE13__uninit_copyIN9__gnu_cxx17__normal_iteratorIPKhSt6vectorIhSaIhEEEEPhEET0_T_SC_SB_
	.def	_ZNSt20__uninitialized_copyILb1EE13__uninit_copyIN9__gnu_cxx17__normal_iteratorIPKhSt6vectorIhSaIhEEEEPhEET0_T_SC_SB_;	.scl	2;	.type	32;	.endef
	.seh_proc	_ZNSt20__uninitialized_copyILb1EE13__uninit_copyIN9__gnu_cxx17__normal_iteratorIPKhSt6vectorIhSaIhEEEEPhEET0_T_SC_SB_
_ZNSt20__uninitialized_copyILb1EE13__uninit_copyIN9__gnu_cxx17__normal_iteratorIPKhSt6vectorIhSaIhEEEEPhEET0_T_SC_SB_:
.LFB2695:
	.loc 9 99 0
	.cfi_startproc
	pushq	%rbp
	.seh_pushreg	%rbp
	.cfi_def_cfa_offset 16
	.cfi_offset 6, -16
	movq	%rsp, %rbp
	.seh_setframe	%rbp, 0
	.cfi_def_cfa_register 6
	subq	$32, %rsp
	.seh_stackalloc	32
	.seh_endprologue
	movq	%rcx, 16(%rbp)
	movq	%rdx, 24(%rbp)
	movq	%r8, 32(%rbp)
	.loc 9 101 0
	movq	32(%rbp), %rdx
	movq	24(%rbp), %rax
	movq	%rdx, %r8
	movq	%rax, %rdx
	movq	16(%rbp), %rcx
	call	_ZSt4copyIN9__gnu_cxx17__normal_iteratorIPKhSt6vectorIhSaIhEEEEPhET0_T_SA_S9_
	addq	$32, %rsp
	popq	%rbp
	.cfi_restore 6
	.cfi_def_cfa 7, 8
	ret
	.cfi_endproc
.LFE2695:
	.seh_endproc
	.section	.text$_ZNK9__gnu_cxx13new_allocatorI5pixelE8max_sizeEv,"x"
	.linkonce discard
	.align 2
	.globl	_ZNK9__gnu_cxx13new_allocatorI5pixelE8max_sizeEv
	.def	_ZNK9__gnu_cxx13new_allocatorI5pixelE8max_sizeEv;	.scl	2;	.type	32;	.endef
	.seh_proc	_ZNK9__gnu_cxx13new_allocatorI5pixelE8max_sizeEv
_ZNK9__gnu_cxx13new_allocatorI5pixelE8max_sizeEv:
.LFB2696:
	.loc 12 129 0
	.cfi_startproc
	pushq	%rbp
	.seh_pushreg	%rbp
	.cfi_def_cfa_offset 16
	.cfi_offset 6, -16
	movq	%rsp, %rbp
	.seh_setframe	%rbp, 0
	.cfi_def_cfa_register 6
	.seh_endprologue
	movq	%rcx, 16(%rbp)
	.loc 12 130 0
	movabsq	$4611686018427387903, %rax
	popq	%rbp
	.cfi_restore 6
	.cfi_def_cfa 7, 8
	ret
	.cfi_endproc
.LFE2696:
	.seh_endproc
	.section	.text$_ZNSt16allocator_traitsISaI5pixelEE8allocateERS1_y,"x"
	.linkonce discard
	.globl	_ZNSt16allocator_traitsISaI5pixelEE8allocateERS1_y
	.def	_ZNSt16allocator_traitsISaI5pixelEE8allocateERS1_y;	.scl	2;	.type	32;	.endef
	.seh_proc	_ZNSt16allocator_traitsISaI5pixelEE8allocateERS1_y
_ZNSt16allocator_traitsISaI5pixelEE8allocateERS1_y:
.LFB2697:
	.loc 11 435 0
	.cfi_startproc
	pushq	%rbp
	.seh_pushreg	%rbp
	.cfi_def_cfa_offset 16
	.cfi_offset 6, -16
	movq	%rsp, %rbp
	.seh_setframe	%rbp, 0
	.cfi_def_cfa_register 6
	subq	$32, %rsp
	.seh_stackalloc	32
	.seh_endprologue
	movq	%rcx, 16(%rbp)
	movq	%rdx, 24(%rbp)
	.loc 11 436 0
	movq	24(%rbp), %rax
	movl	$0, %r8d
	movq	%rax, %rdx
	movq	16(%rbp), %rcx
	call	_ZN9__gnu_cxx13new_allocatorI5pixelE8allocateEyPKv
	addq	$32, %rsp
	popq	%rbp
	.cfi_restore 6
	.cfi_def_cfa 7, 8
	ret
	.cfi_endproc
.LFE2697:
	.seh_endproc
	.section	.text$_ZSt18uninitialized_copyISt13move_iteratorIP5pixelES2_ET0_T_S5_S4_,"x"
	.linkonce discard
	.globl	_ZSt18uninitialized_copyISt13move_iteratorIP5pixelES2_ET0_T_S5_S4_
	.def	_ZSt18uninitialized_copyISt13move_iteratorIP5pixelES2_ET0_T_S5_S4_;	.scl	2;	.type	32;	.endef
	.seh_proc	_ZSt18uninitialized_copyISt13move_iteratorIP5pixelES2_ET0_T_S5_S4_
_ZSt18uninitialized_copyISt13move_iteratorIP5pixelES2_ET0_T_S5_S4_:
.LFB2698:
	.loc 9 115 0
	.cfi_startproc
	pushq	%rbp
	.seh_pushreg	%rbp
	.cfi_def_cfa_offset 16
	.cfi_offset 6, -16
	movq	%rsp, %rbp
	.seh_setframe	%rbp, 0
	.cfi_def_cfa_register 6
	subq	$48, %rsp
	.seh_stackalloc	48
	.seh_endprologue
	movq	%rcx, 16(%rbp)
	movq	%rdx, 24(%rbp)
	movq	%r8, 32(%rbp)
	.loc 9 128 0
	movb	$1, -1(%rbp)
	.loc 9 134 0
	movq	32(%rbp), %rdx
	movq	24(%rbp), %rax
	movq	%rdx, %r8
	movq	%rax, %rdx
	movq	16(%rbp), %rcx
	call	_ZNSt20__uninitialized_copyILb0EE13__uninit_copyISt13move_iteratorIP5pixelES4_EET0_T_S7_S6_
	.loc 9 135 0
	addq	$48, %rsp
	popq	%rbp
	.cfi_restore 6
	.cfi_def_cfa 7, 8
	ret
	.cfi_endproc
.LFE2698:
	.seh_endproc
	.section	.text$_ZN9__gnu_cxx13new_allocatorI5pixelE10deallocateEPS1_y,"x"
	.linkonce discard
	.align 2
	.globl	_ZN9__gnu_cxx13new_allocatorI5pixelE10deallocateEPS1_y
	.def	_ZN9__gnu_cxx13new_allocatorI5pixelE10deallocateEPS1_y;	.scl	2;	.type	32;	.endef
	.seh_proc	_ZN9__gnu_cxx13new_allocatorI5pixelE10deallocateEPS1_y
_ZN9__gnu_cxx13new_allocatorI5pixelE10deallocateEPS1_y:
.LFB2699:
	.loc 12 116 0
	.cfi_startproc
	pushq	%rbp
	.seh_pushreg	%rbp
	.cfi_def_cfa_offset 16
	.cfi_offset 6, -16
	movq	%rsp, %rbp
	.seh_setframe	%rbp, 0
	.cfi_def_cfa_register 6
	subq	$32, %rsp
	.seh_stackalloc	32
	.seh_endprologue
	movq	%rcx, 16(%rbp)
	movq	%rdx, 24(%rbp)
	movq	%r8, 32(%rbp)
	.loc 12 125 0
	movq	24(%rbp), %rax
	movq	%rax, %rcx
	call	_ZdlPv
	.loc 12 126 0
	nop
	addq	$32, %rsp
	popq	%rbp
	.cfi_restore 6
	.cfi_def_cfa 7, 8
	ret
	.cfi_endproc
.LFE2699:
	.seh_endproc
	.section	.text$_ZSt3maxIyERKT_S2_S2_,"x"
	.linkonce discard
	.globl	_ZSt3maxIyERKT_S2_S2_
	.def	_ZSt3maxIyERKT_S2_S2_;	.scl	2;	.type	32;	.endef
	.seh_proc	_ZSt3maxIyERKT_S2_S2_
_ZSt3maxIyERKT_S2_S2_:
.LFB2700:
	.file 14 "c:/users/ian/downloads/pocketcpp-0.7/pocketcpp/mingw/include/c++/7.2.0/bits/stl_algobase.h"
	.loc 14 219 0
	.cfi_startproc
	pushq	%rbp
	.seh_pushreg	%rbp
	.cfi_def_cfa_offset 16
	.cfi_offset 6, -16
	movq	%rsp, %rbp
	.seh_setframe	%rbp, 0
	.cfi_def_cfa_register 6
	.seh_endprologue
	movq	%rcx, 16(%rbp)
	movq	%rdx, 24(%rbp)
	.loc 14 224 0
	movq	16(%rbp), %rax
	movq	(%rax), %rdx
	movq	24(%rbp), %rax
	movq	(%rax), %rax
	cmpq	%rax, %rdx
	jnb	.L185
	.loc 14 225 0
	movq	24(%rbp), %rax
	jmp	.L186
.L185:
	.loc 14 226 0
	movq	16(%rbp), %rax
.L186:
	.loc 14 227 0
	popq	%rbp
	.cfi_restore 6
	.cfi_def_cfa 7, 8
	ret
	.cfi_endproc
.LFE2700:
	.seh_endproc
	.section	.text$_ZN9__gnu_cxx13new_allocatorI5pixelE7destroyIS1_EEvPT_,"x"
	.linkonce discard
	.align 2
	.globl	_ZN9__gnu_cxx13new_allocatorI5pixelE7destroyIS1_EEvPT_
	.def	_ZN9__gnu_cxx13new_allocatorI5pixelE7destroyIS1_EEvPT_;	.scl	2;	.type	32;	.endef
	.seh_proc	_ZN9__gnu_cxx13new_allocatorI5pixelE7destroyIS1_EEvPT_
_ZN9__gnu_cxx13new_allocatorI5pixelE7destroyIS1_EEvPT_:
.LFB2701:
	.loc 12 140 0
	.cfi_startproc
	pushq	%rbp
	.seh_pushreg	%rbp
	.cfi_def_cfa_offset 16
	.cfi_offset 6, -16
	movq	%rsp, %rbp
	.seh_setframe	%rbp, 0
	.cfi_def_cfa_register 6
	.seh_endprologue
	movq	%rcx, 16(%rbp)
	movq	%rdx, 24(%rbp)
	.loc 12 140 0
	nop
	popq	%rbp
	.cfi_restore 6
	.cfi_def_cfa 7, 8
	ret
	.cfi_endproc
.LFE2701:
	.seh_endproc
	.section	.text$_ZN9__gnu_cxx13new_allocatorI5pixelEC2Ev,"x"
	.linkonce discard
	.align 2
	.globl	_ZN9__gnu_cxx13new_allocatorI5pixelEC2Ev
	.def	_ZN9__gnu_cxx13new_allocatorI5pixelEC2Ev;	.scl	2;	.type	32;	.endef
	.seh_proc	_ZN9__gnu_cxx13new_allocatorI5pixelEC2Ev
_ZN9__gnu_cxx13new_allocatorI5pixelEC2Ev:
.LFB2732:
	.loc 12 79 0
	.cfi_startproc
	pushq	%rbp
	.seh_pushreg	%rbp
	.cfi_def_cfa_offset 16
	.cfi_offset 6, -16
	movq	%rsp, %rbp
	.seh_setframe	%rbp, 0
	.cfi_def_cfa_register 6
	.seh_endprologue
	movq	%rcx, 16(%rbp)
	.loc 12 79 0
	nop
	popq	%rbp
	.cfi_restore 6
	.cfi_def_cfa 7, 8
	ret
	.cfi_endproc
.LFE2732:
	.seh_endproc
	.section	.text$_ZN9__gnu_cxx13new_allocatorIhEC2Ev,"x"
	.linkonce discard
	.align 2
	.globl	_ZN9__gnu_cxx13new_allocatorIhEC2Ev
	.def	_ZN9__gnu_cxx13new_allocatorIhEC2Ev;	.scl	2;	.type	32;	.endef
	.seh_proc	_ZN9__gnu_cxx13new_allocatorIhEC2Ev
_ZN9__gnu_cxx13new_allocatorIhEC2Ev:
.LFB2735:
	.loc 12 79 0
	.cfi_startproc
	pushq	%rbp
	.seh_pushreg	%rbp
	.cfi_def_cfa_offset 16
	.cfi_offset 6, -16
	movq	%rsp, %rbp
	.seh_setframe	%rbp, 0
	.cfi_def_cfa_register 6
	.seh_endprologue
	movq	%rcx, 16(%rbp)
	.loc 12 79 0
	nop
	popq	%rbp
	.cfi_restore 6
	.cfi_def_cfa 7, 8
	ret
	.cfi_endproc
.LFE2735:
	.seh_endproc
	.section	.text$_ZN9__gnu_cxx13new_allocatorIhE10deallocateEPhy,"x"
	.linkonce discard
	.align 2
	.globl	_ZN9__gnu_cxx13new_allocatorIhE10deallocateEPhy
	.def	_ZN9__gnu_cxx13new_allocatorIhE10deallocateEPhy;	.scl	2;	.type	32;	.endef
	.seh_proc	_ZN9__gnu_cxx13new_allocatorIhE10deallocateEPhy
_ZN9__gnu_cxx13new_allocatorIhE10deallocateEPhy:
.LFB2737:
	.loc 12 116 0
	.cfi_startproc
	pushq	%rbp
	.seh_pushreg	%rbp
	.cfi_def_cfa_offset 16
	.cfi_offset 6, -16
	movq	%rsp, %rbp
	.seh_setframe	%rbp, 0
	.cfi_def_cfa_register 6
	subq	$32, %rsp
	.seh_stackalloc	32
	.seh_endprologue
	movq	%rcx, 16(%rbp)
	movq	%rdx, 24(%rbp)
	movq	%r8, 32(%rbp)
	.loc 12 125 0
	movq	24(%rbp), %rax
	movq	%rax, %rcx
	call	_ZdlPv
	.loc 12 126 0
	nop
	addq	$32, %rsp
	popq	%rbp
	.cfi_restore 6
	.cfi_def_cfa 7, 8
	ret
	.cfi_endproc
.LFE2737:
	.seh_endproc
	.section	.text$_ZNSt16allocator_traitsISaIhEE8allocateERS0_y,"x"
	.linkonce discard
	.globl	_ZNSt16allocator_traitsISaIhEE8allocateERS0_y
	.def	_ZNSt16allocator_traitsISaIhEE8allocateERS0_y;	.scl	2;	.type	32;	.endef
	.seh_proc	_ZNSt16allocator_traitsISaIhEE8allocateERS0_y
_ZNSt16allocator_traitsISaIhEE8allocateERS0_y:
.LFB2738:
	.loc 11 435 0
	.cfi_startproc
	pushq	%rbp
	.seh_pushreg	%rbp
	.cfi_def_cfa_offset 16
	.cfi_offset 6, -16
	movq	%rsp, %rbp
	.seh_setframe	%rbp, 0
	.cfi_def_cfa_register 6
	subq	$32, %rsp
	.seh_stackalloc	32
	.seh_endprologue
	movq	%rcx, 16(%rbp)
	movq	%rdx, 24(%rbp)
	.loc 11 436 0
	movq	24(%rbp), %rax
	movl	$0, %r8d
	movq	%rax, %rdx
	movq	16(%rbp), %rcx
	call	_ZN9__gnu_cxx13new_allocatorIhE8allocateEyPKv
	addq	$32, %rsp
	popq	%rbp
	.cfi_restore 6
	.cfi_def_cfa 7, 8
	ret
	.cfi_endproc
.LFE2738:
	.seh_endproc
	.section	.text$_ZSt4copyIN9__gnu_cxx17__normal_iteratorIPKhSt6vectorIhSaIhEEEEPhET0_T_SA_S9_,"x"
	.linkonce discard
	.globl	_ZSt4copyIN9__gnu_cxx17__normal_iteratorIPKhSt6vectorIhSaIhEEEEPhET0_T_SA_S9_
	.def	_ZSt4copyIN9__gnu_cxx17__normal_iteratorIPKhSt6vectorIhSaIhEEEEPhET0_T_SA_S9_;	.scl	2;	.type	32;	.endef
	.seh_proc	_ZSt4copyIN9__gnu_cxx17__normal_iteratorIPKhSt6vectorIhSaIhEEEEPhET0_T_SA_S9_
_ZSt4copyIN9__gnu_cxx17__normal_iteratorIPKhSt6vectorIhSaIhEEEEPhET0_T_SA_S9_:
.LFB2739:
	.loc 14 446 0
	.cfi_startproc
	pushq	%rbp
	.seh_pushreg	%rbp
	.cfi_def_cfa_offset 16
	.cfi_offset 6, -16
	pushq	%rbx
	.seh_pushreg	%rbx
	.cfi_def_cfa_offset 24
	.cfi_offset 3, -24
	subq	$40, %rsp
	.seh_stackalloc	40
	.cfi_def_cfa_offset 64
	leaq	128(%rsp), %rbp
	.seh_setframe	%rbp, 128
	.cfi_def_cfa 6, -64
	.seh_endprologue
	movq	%rcx, -64(%rbp)
	movq	%rdx, -56(%rbp)
	movq	%r8, -48(%rbp)
	.loc 14 455 0
	movq	-56(%rbp), %rax
	movq	%rax, %rcx
	call	_ZSt12__miter_baseIN9__gnu_cxx17__normal_iteratorIPKhSt6vectorIhSaIhEEEEET_S8_
	movq	%rax, %rbx
	movq	-64(%rbp), %rcx
	call	_ZSt12__miter_baseIN9__gnu_cxx17__normal_iteratorIPKhSt6vectorIhSaIhEEEEET_S8_
	movq	%rax, %rcx
	.loc 14 456 0
	movq	-48(%rbp), %rax
	movq	%rax, %r8
	movq	%rbx, %rdx
	call	_ZSt14__copy_move_a2ILb0EN9__gnu_cxx17__normal_iteratorIPKhSt6vectorIhSaIhEEEEPhET1_T0_SA_S9_
	.loc 14 457 0
	addq	$40, %rsp
	popq	%rbx
	.cfi_restore 3
	popq	%rbp
	.cfi_restore 6
	.cfi_def_cfa 7, -24
	ret
	.cfi_endproc
.LFE2739:
	.seh_endproc
	.section	.text$_ZN9__gnu_cxx13new_allocatorI5pixelE8allocateEyPKv,"x"
	.linkonce discard
	.align 2
	.globl	_ZN9__gnu_cxx13new_allocatorI5pixelE8allocateEyPKv
	.def	_ZN9__gnu_cxx13new_allocatorI5pixelE8allocateEyPKv;	.scl	2;	.type	32;	.endef
	.seh_proc	_ZN9__gnu_cxx13new_allocatorI5pixelE8allocateEyPKv
_ZN9__gnu_cxx13new_allocatorI5pixelE8allocateEyPKv:
.LFB2740:
	.loc 12 99 0
	.cfi_startproc
	pushq	%rbp
	.seh_pushreg	%rbp
	.cfi_def_cfa_offset 16
	.cfi_offset 6, -16
	movq	%rsp, %rbp
	.seh_setframe	%rbp, 0
	.cfi_def_cfa_register 6
	subq	$32, %rsp
	.seh_stackalloc	32
	.seh_endprologue
	movq	%rcx, 16(%rbp)
	movq	%rdx, 24(%rbp)
	movq	%r8, 32(%rbp)
	.loc 12 101 0
	movq	16(%rbp), %rcx
	call	_ZNK9__gnu_cxx13new_allocatorI5pixelE8max_sizeEv
	cmpq	%rax, 24(%rbp)
	seta	%al
	testb	%al, %al
	je	.L196
	.loc 12 102 0
	call	_ZSt17__throw_bad_allocv
.L196:
	.loc 12 111 0
	movq	24(%rbp), %rax
	salq	$2, %rax
	movq	%rax, %rcx
	call	_Znwy
	.loc 12 112 0
	addq	$32, %rsp
	popq	%rbp
	.cfi_restore 6
	.cfi_def_cfa 7, 8
	ret
	.cfi_endproc
.LFE2740:
	.seh_endproc
	.section	.text$_ZNSt20__uninitialized_copyILb0EE13__uninit_copyISt13move_iteratorIP5pixelES4_EET0_T_S7_S6_,"x"
	.linkonce discard
	.globl	_ZNSt20__uninitialized_copyILb0EE13__uninit_copyISt13move_iteratorIP5pixelES4_EET0_T_S7_S6_
	.def	_ZNSt20__uninitialized_copyILb0EE13__uninit_copyISt13move_iteratorIP5pixelES4_EET0_T_S7_S6_;	.scl	2;	.type	32;	.endef
	.seh_proc	_ZNSt20__uninitialized_copyILb0EE13__uninit_copyISt13move_iteratorIP5pixelES4_EET0_T_S7_S6_
_ZNSt20__uninitialized_copyILb0EE13__uninit_copyISt13move_iteratorIP5pixelES4_EET0_T_S7_S6_:
.LFB2741:
	.loc 9 76 0
	.cfi_startproc
	.cfi_personality 0x9b,.LDFCM0
	.cfi_lsda 0x1c,.LLSDA2741
	pushq	%rbp
	.seh_pushreg	%rbp
	.cfi_def_cfa_offset 16
	.cfi_offset 6, -16
	pushq	%rbx
	.seh_pushreg	%rbx
	.cfi_def_cfa_offset 24
	.cfi_offset 3, -24
	subq	$56, %rsp
	.seh_stackalloc	56
	.cfi_def_cfa_offset 80
	leaq	128(%rsp), %rbp
	.seh_setframe	%rbp, 128
	.cfi_def_cfa 6, -48
	.seh_endprologue
	movq	%rcx, -48(%rbp)
	movq	%rdx, -40(%rbp)
	movq	%r8, -32(%rbp)
	.loc 9 79 0
	movq	-32(%rbp), %rax
	movq	%rax, -88(%rbp)
.L200:
	.loc 9 82 0 discriminator 3
	leaq	-40(%rbp), %rax
	movq	%rax, %rdx
	leaq	-48(%rbp), %rcx
.LEHB22:
	call	_ZStneIP5pixelEbRKSt13move_iteratorIT_ES6_
.LEHE22:
	testb	%al, %al
	je	.L199
	.loc 9 83 0 discriminator 2
	leaq	-48(%rbp), %rcx
	call	_ZNKSt13move_iteratorIP5pixelEdeEv
	movq	%rax, %rbx
	movq	-88(%rbp), %rax
	movq	%rax, %rcx
	call	_ZSt11__addressofI5pixelEPT_RS1_
	movq	%rbx, %rdx
	movq	%rax, %rcx
	call	_ZSt10_ConstructI5pixelJS0_EEvPT_DpOT0_
	.loc 9 82 0 discriminator 2
	leaq	-48(%rbp), %rcx
	call	_ZNSt13move_iteratorIP5pixelEppEv
	addq	$4, -88(%rbp)
	jmp	.L200
.L199:
	.loc 9 84 0
	movq	-88(%rbp), %rax
	jmp	.L206
.L204:
	.loc 9 86 0
	movq	%rax, %rcx
	call	__cxa_begin_catch
	.loc 9 88 0
	movq	-88(%rbp), %rdx
	movq	-32(%rbp), %rax
	movq	%rax, %rcx
	call	_ZSt8_DestroyIP5pixelEvT_S2_
.LEHB23:
	.loc 9 89 0
	call	__cxa_rethrow
.LEHE23:
.L205:
	movq	%rax, %rbx
	.loc 9 86 0
	call	__cxa_end_catch
	movq	%rbx, %rax
	movq	%rax, %rcx
.LEHB24:
	call	_Unwind_Resume
.LEHE24:
.L206:
	.loc 9 91 0
	addq	$56, %rsp
	popq	%rbx
	.cfi_restore 3
	popq	%rbp
	.cfi_restore 6
	.cfi_def_cfa 7, -40
	ret
	.cfi_endproc
.LFE2741:
	.seh_handler	__gxx_personality_seh0, @unwind, @except
	.seh_handlerdata
	.align 4
.LLSDA2741:
	.byte	0xff
	.byte	0x9b
	.uleb128 .LLSDATT2741-.LLSDATTD2741
.LLSDATTD2741:
	.byte	0x1
	.uleb128 .LLSDACSE2741-.LLSDACSB2741
.LLSDACSB2741:
	.uleb128 .LEHB22-.LFB2741
	.uleb128 .LEHE22-.LEHB22
	.uleb128 .L204-.LFB2741
	.uleb128 0x1
	.uleb128 .LEHB23-.LFB2741
	.uleb128 .LEHE23-.LEHB23
	.uleb128 .L205-.LFB2741
	.uleb128 0
	.uleb128 .LEHB24-.LFB2741
	.uleb128 .LEHE24-.LEHB24
	.uleb128 0
	.uleb128 0
.LLSDACSE2741:
	.byte	0x1
	.byte	0
	.align 4
	.long	0

.LLSDATT2741:
	.section	.text$_ZNSt20__uninitialized_copyILb0EE13__uninit_copyISt13move_iteratorIP5pixelES4_EET0_T_S7_S6_,"x"
	.linkonce discard
	.seh_endproc
	.section	.text$_ZN9__gnu_cxx13new_allocatorIhE8allocateEyPKv,"x"
	.linkonce discard
	.align 2
	.globl	_ZN9__gnu_cxx13new_allocatorIhE8allocateEyPKv
	.def	_ZN9__gnu_cxx13new_allocatorIhE8allocateEyPKv;	.scl	2;	.type	32;	.endef
	.seh_proc	_ZN9__gnu_cxx13new_allocatorIhE8allocateEyPKv
_ZN9__gnu_cxx13new_allocatorIhE8allocateEyPKv:
.LFB2769:
	.loc 12 99 0
	.cfi_startproc
	pushq	%rbp
	.seh_pushreg	%rbp
	.cfi_def_cfa_offset 16
	.cfi_offset 6, -16
	movq	%rsp, %rbp
	.seh_setframe	%rbp, 0
	.cfi_def_cfa_register 6
	subq	$32, %rsp
	.seh_stackalloc	32
	.seh_endprologue
	movq	%rcx, 16(%rbp)
	movq	%rdx, 24(%rbp)
	movq	%r8, 32(%rbp)
	.loc 12 101 0
	movq	16(%rbp), %rcx
	call	_ZNK9__gnu_cxx13new_allocatorIhE8max_sizeEv
	cmpq	%rax, 24(%rbp)
	seta	%al
	testb	%al, %al
	je	.L208
	.loc 12 102 0
	call	_ZSt17__throw_bad_allocv
.L208:
	.loc 12 111 0
	movq	24(%rbp), %rax
	movq	%rax, %rcx
	call	_Znwy
	.loc 12 112 0
	addq	$32, %rsp
	popq	%rbp
	.cfi_restore 6
	.cfi_def_cfa 7, 8
	ret
	.cfi_endproc
.LFE2769:
	.seh_endproc
	.section	.text$_ZSt12__miter_baseIN9__gnu_cxx17__normal_iteratorIPKhSt6vectorIhSaIhEEEEET_S8_,"x"
	.linkonce discard
	.globl	_ZSt12__miter_baseIN9__gnu_cxx17__normal_iteratorIPKhSt6vectorIhSaIhEEEEET_S8_
	.def	_ZSt12__miter_baseIN9__gnu_cxx17__normal_iteratorIPKhSt6vectorIhSaIhEEEEET_S8_;	.scl	2;	.type	32;	.endef
	.seh_proc	_ZSt12__miter_baseIN9__gnu_cxx17__normal_iteratorIPKhSt6vectorIhSaIhEEEEET_S8_
_ZSt12__miter_baseIN9__gnu_cxx17__normal_iteratorIPKhSt6vectorIhSaIhEEEEET_S8_:
.LFB2770:
	.file 15 "c:/users/ian/downloads/pocketcpp-0.7/pocketcpp/mingw/include/c++/7.2.0/bits/cpp_type_traits.h"
	.loc 15 408 0
	.cfi_startproc
	pushq	%rbp
	.seh_pushreg	%rbp
	.cfi_def_cfa_offset 16
	.cfi_offset 6, -16
	movq	%rsp, %rbp
	.seh_setframe	%rbp, 0
	.cfi_def_cfa_register 6
	.seh_endprologue
	movq	%rcx, 16(%rbp)
	.loc 15 409 0
	movq	16(%rbp), %rax
	popq	%rbp
	.cfi_restore 6
	.cfi_def_cfa 7, 8
	ret
	.cfi_endproc
.LFE2770:
	.seh_endproc
	.section	.text$_ZSt14__copy_move_a2ILb0EN9__gnu_cxx17__normal_iteratorIPKhSt6vectorIhSaIhEEEEPhET1_T0_SA_S9_,"x"
	.linkonce discard
	.globl	_ZSt14__copy_move_a2ILb0EN9__gnu_cxx17__normal_iteratorIPKhSt6vectorIhSaIhEEEEPhET1_T0_SA_S9_
	.def	_ZSt14__copy_move_a2ILb0EN9__gnu_cxx17__normal_iteratorIPKhSt6vectorIhSaIhEEEEPhET1_T0_SA_S9_;	.scl	2;	.type	32;	.endef
	.seh_proc	_ZSt14__copy_move_a2ILb0EN9__gnu_cxx17__normal_iteratorIPKhSt6vectorIhSaIhEEEEPhET1_T0_SA_S9_
_ZSt14__copy_move_a2ILb0EN9__gnu_cxx17__normal_iteratorIPKhSt6vectorIhSaIhEEEEPhET1_T0_SA_S9_:
.LFB2771:
	.loc 14 420 0
	.cfi_startproc
	pushq	%rbp
	.seh_pushreg	%rbp
	.cfi_def_cfa_offset 16
	.cfi_offset 6, -16
	pushq	%rsi
	.seh_pushreg	%rsi
	.cfi_def_cfa_offset 24
	.cfi_offset 4, -24
	pushq	%rbx
	.seh_pushreg	%rbx
	.cfi_def_cfa_offset 32
	.cfi_offset 3, -32
	movq	%rsp, %rbp
	.seh_setframe	%rbp, 0
	.cfi_def_cfa_register 6
	subq	$32, %rsp
	.seh_stackalloc	32
	.seh_endprologue
	movq	%rcx, 32(%rbp)
	movq	%rdx, 40(%rbp)
	movq	%r8, 48(%rbp)
	.loc 14 422 0
	movq	48(%rbp), %rax
	movq	%rax, %rcx
	call	_ZSt12__niter_baseIPhET_S1_
	movq	%rax, %rsi
	movq	40(%rbp), %rax
	movq	%rax, %rcx
	call	_ZSt12__niter_baseIPKhSt6vectorIhSaIhEEET_N9__gnu_cxx17__normal_iteratorIS5_T0_EE
	movq	%rax, %rbx
	movq	32(%rbp), %rcx
	call	_ZSt12__niter_baseIPKhSt6vectorIhSaIhEEET_N9__gnu_cxx17__normal_iteratorIS5_T0_EE
	.loc 14 424 0
	movq	%rsi, %r8
	movq	%rbx, %rdx
	movq	%rax, %rcx
	call	_ZSt13__copy_move_aILb0EPKhPhET1_T0_S4_S3_
	.loc 14 425 0
	addq	$32, %rsp
	popq	%rbx
	.cfi_restore 3
	popq	%rsi
	.cfi_restore 4
	popq	%rbp
	.cfi_restore 6
	.cfi_def_cfa 7, 24
	ret
	.cfi_endproc
.LFE2771:
	.seh_endproc
	.section	.text$_ZStneIP5pixelEbRKSt13move_iteratorIT_ES6_,"x"
	.linkonce discard
	.globl	_ZStneIP5pixelEbRKSt13move_iteratorIT_ES6_
	.def	_ZStneIP5pixelEbRKSt13move_iteratorIT_ES6_;	.scl	2;	.type	32;	.endef
	.seh_proc	_ZStneIP5pixelEbRKSt13move_iteratorIT_ES6_
_ZStneIP5pixelEbRKSt13move_iteratorIT_ES6_:
.LFB2772:
	.loc 10 1136 0
	.cfi_startproc
	pushq	%rbp
	.seh_pushreg	%rbp
	.cfi_def_cfa_offset 16
	.cfi_offset 6, -16
	movq	%rsp, %rbp
	.seh_setframe	%rbp, 0
	.cfi_def_cfa_register 6
	subq	$32, %rsp
	.seh_stackalloc	32
	.seh_endprologue
	movq	%rcx, 16(%rbp)
	movq	%rdx, 24(%rbp)
	.loc 10 1138 0
	movq	24(%rbp), %rax
	movq	%rax, %rdx
	movq	16(%rbp), %rcx
	call	_ZSteqIP5pixelEbRKSt13move_iteratorIT_ES6_
	xorl	$1, %eax
	addq	$32, %rsp
	popq	%rbp
	.cfi_restore 6
	.cfi_def_cfa 7, 8
	ret
	.cfi_endproc
.LFE2772:
	.seh_endproc
	.section	.text$_ZNSt13move_iteratorIP5pixelEppEv,"x"
	.linkonce discard
	.align 2
	.globl	_ZNSt13move_iteratorIP5pixelEppEv
	.def	_ZNSt13move_iteratorIP5pixelEppEv;	.scl	2;	.type	32;	.endef
	.seh_proc	_ZNSt13move_iteratorIP5pixelEppEv
_ZNSt13move_iteratorIP5pixelEppEv:
.LFB2773:
	.loc 10 1057 0
	.cfi_startproc
	pushq	%rbp
	.seh_pushreg	%rbp
	.cfi_def_cfa_offset 16
	.cfi_offset 6, -16
	movq	%rsp, %rbp
	.seh_setframe	%rbp, 0
	.cfi_def_cfa_register 6
	.seh_endprologue
	movq	%rcx, 16(%rbp)
	.loc 10 1059 0
	movq	16(%rbp), %rax
	movq	(%rax), %rax
	leaq	4(%rax), %rdx
	movq	16(%rbp), %rax
	movq	%rdx, (%rax)
	.loc 10 1060 0
	movq	16(%rbp), %rax
	.loc 10 1061 0
	popq	%rbp
	.cfi_restore 6
	.cfi_def_cfa 7, 8
	ret
	.cfi_endproc
.LFE2773:
	.seh_endproc
	.section	.text$_ZSt11__addressofI5pixelEPT_RS1_,"x"
	.linkonce discard
	.globl	_ZSt11__addressofI5pixelEPT_RS1_
	.def	_ZSt11__addressofI5pixelEPT_RS1_;	.scl	2;	.type	32;	.endef
	.seh_proc	_ZSt11__addressofI5pixelEPT_RS1_
_ZSt11__addressofI5pixelEPT_RS1_:
.LFB2774:
	.loc 13 47 0
	.cfi_startproc
	pushq	%rbp
	.seh_pushreg	%rbp
	.cfi_def_cfa_offset 16
	.cfi_offset 6, -16
	movq	%rsp, %rbp
	.seh_setframe	%rbp, 0
	.cfi_def_cfa_register 6
	.seh_endprologue
	movq	%rcx, 16(%rbp)
	.loc 13 48 0
	movq	16(%rbp), %rax
	popq	%rbp
	.cfi_restore 6
	.cfi_def_cfa 7, 8
	ret
	.cfi_endproc
.LFE2774:
	.seh_endproc
	.section	.text$_ZNKSt13move_iteratorIP5pixelEdeEv,"x"
	.linkonce discard
	.align 2
	.globl	_ZNKSt13move_iteratorIP5pixelEdeEv
	.def	_ZNKSt13move_iteratorIP5pixelEdeEv;	.scl	2;	.type	32;	.endef
	.seh_proc	_ZNKSt13move_iteratorIP5pixelEdeEv
_ZNKSt13move_iteratorIP5pixelEdeEv:
.LFB2775:
	.loc 10 1049 0
	.cfi_startproc
	pushq	%rbp
	.seh_pushreg	%rbp
	.cfi_def_cfa_offset 16
	.cfi_offset 6, -16
	movq	%rsp, %rbp
	.seh_setframe	%rbp, 0
	.cfi_def_cfa_register 6
	.seh_endprologue
	movq	%rcx, 16(%rbp)
	.loc 10 1050 0
	movq	16(%rbp), %rax
	movq	(%rax), %rax
	popq	%rbp
	.cfi_restore 6
	.cfi_def_cfa 7, 8
	ret
	.cfi_endproc
.LFE2775:
	.seh_endproc
	.section	.text$_ZSt10_ConstructI5pixelJS0_EEvPT_DpOT0_,"x"
	.linkonce discard
	.globl	_ZSt10_ConstructI5pixelJS0_EEvPT_DpOT0_
	.def	_ZSt10_ConstructI5pixelJS0_EEvPT_DpOT0_;	.scl	2;	.type	32;	.endef
	.seh_proc	_ZSt10_ConstructI5pixelJS0_EEvPT_DpOT0_
_ZSt10_ConstructI5pixelJS0_EEvPT_DpOT0_:
.LFB2776:
	.loc 6 74 0
	.cfi_startproc
	pushq	%rbp
	.seh_pushreg	%rbp
	.cfi_def_cfa_offset 16
	.cfi_offset 6, -16
	pushq	%rbx
	.seh_pushreg	%rbx
	.cfi_def_cfa_offset 24
	.cfi_offset 3, -24
	subq	$40, %rsp
	.seh_stackalloc	40
	.cfi_def_cfa_offset 64
	leaq	128(%rsp), %rbp
	.seh_setframe	%rbp, 128
	.cfi_def_cfa 6, -64
	.seh_endprologue
	movq	%rcx, -64(%rbp)
	movq	%rdx, -56(%rbp)
	.loc 6 75 0
	movq	-56(%rbp), %rax
	movq	%rax, %rcx
	call	_ZSt7forwardI5pixelEOT_RNSt16remove_referenceIS1_E4typeE
	movq	%rax, %rbx
	movq	-64(%rbp), %rax
	movq	%rax, %rdx
	movl	$4, %ecx
	call	_ZnwyPv
	testq	%rax, %rax
	je	.L225
	movl	(%rbx), %edx
	movl	%edx, (%rax)
.L225:
	nop
	addq	$40, %rsp
	popq	%rbx
	.cfi_restore 3
	popq	%rbp
	.cfi_restore 6
	.cfi_def_cfa 7, -24
	ret
	.cfi_endproc
.LFE2776:
	.seh_endproc
	.section	.text$_ZNK9__gnu_cxx13new_allocatorIhE8max_sizeEv,"x"
	.linkonce discard
	.align 2
	.globl	_ZNK9__gnu_cxx13new_allocatorIhE8max_sizeEv
	.def	_ZNK9__gnu_cxx13new_allocatorIhE8max_sizeEv;	.scl	2;	.type	32;	.endef
	.seh_proc	_ZNK9__gnu_cxx13new_allocatorIhE8max_sizeEv
_ZNK9__gnu_cxx13new_allocatorIhE8max_sizeEv:
.LFB2787:
	.loc 12 129 0
	.cfi_startproc
	pushq	%rbp
	.seh_pushreg	%rbp
	.cfi_def_cfa_offset 16
	.cfi_offset 6, -16
	movq	%rsp, %rbp
	.seh_setframe	%rbp, 0
	.cfi_def_cfa_register 6
	.seh_endprologue
	movq	%rcx, 16(%rbp)
	.loc 12 130 0
	movq	$-1, %rax
	popq	%rbp
	.cfi_restore 6
	.cfi_def_cfa 7, 8
	ret
	.cfi_endproc
.LFE2787:
	.seh_endproc
	.section	.text$_ZSt12__niter_baseIPKhSt6vectorIhSaIhEEET_N9__gnu_cxx17__normal_iteratorIS5_T0_EE,"x"
	.linkonce discard
	.globl	_ZSt12__niter_baseIPKhSt6vectorIhSaIhEEET_N9__gnu_cxx17__normal_iteratorIS5_T0_EE
	.def	_ZSt12__niter_baseIPKhSt6vectorIhSaIhEEET_N9__gnu_cxx17__normal_iteratorIS5_T0_EE;	.scl	2;	.type	32;	.endef
	.seh_proc	_ZSt12__niter_baseIPKhSt6vectorIhSaIhEEET_N9__gnu_cxx17__normal_iteratorIS5_T0_EE
_ZSt12__niter_baseIPKhSt6vectorIhSaIhEEET_N9__gnu_cxx17__normal_iteratorIS5_T0_EE:
.LFB2788:
	.loc 10 983 0
	.cfi_startproc
	pushq	%rbp
	.seh_pushreg	%rbp
	.cfi_def_cfa_offset 16
	.cfi_offset 6, -16
	movq	%rsp, %rbp
	.seh_setframe	%rbp, 0
	.cfi_def_cfa_register 6
	subq	$32, %rsp
	.seh_stackalloc	32
	.seh_endprologue
	movq	%rcx, 16(%rbp)
	.loc 10 984 0
	leaq	16(%rbp), %rcx
	call	_ZNK9__gnu_cxx17__normal_iteratorIPKhSt6vectorIhSaIhEEE4baseEv
	movq	(%rax), %rax
	addq	$32, %rsp
	popq	%rbp
	.cfi_restore 6
	.cfi_def_cfa 7, 8
	ret
	.cfi_endproc
.LFE2788:
	.seh_endproc
	.section	.text$_ZSt12__niter_baseIPhET_S1_,"x"
	.linkonce discard
	.globl	_ZSt12__niter_baseIPhET_S1_
	.def	_ZSt12__niter_baseIPhET_S1_;	.scl	2;	.type	32;	.endef
	.seh_proc	_ZSt12__niter_baseIPhET_S1_
_ZSt12__niter_baseIPhET_S1_:
.LFB2789:
	.loc 14 277 0
	.cfi_startproc
	pushq	%rbp
	.seh_pushreg	%rbp
	.cfi_def_cfa_offset 16
	.cfi_offset 6, -16
	movq	%rsp, %rbp
	.seh_setframe	%rbp, 0
	.cfi_def_cfa_register 6
	.seh_endprologue
	movq	%rcx, 16(%rbp)
	.loc 14 278 0
	movq	16(%rbp), %rax
	popq	%rbp
	.cfi_restore 6
	.cfi_def_cfa 7, 8
	ret
	.cfi_endproc
.LFE2789:
	.seh_endproc
	.section	.text$_ZSt13__copy_move_aILb0EPKhPhET1_T0_S4_S3_,"x"
	.linkonce discard
	.globl	_ZSt13__copy_move_aILb0EPKhPhET1_T0_S4_S3_
	.def	_ZSt13__copy_move_aILb0EPKhPhET1_T0_S4_S3_;	.scl	2;	.type	32;	.endef
	.seh_proc	_ZSt13__copy_move_aILb0EPKhPhET1_T0_S4_S3_
_ZSt13__copy_move_aILb0EPKhPhET1_T0_S4_S3_:
.LFB2790:
	.loc 14 375 0
	.cfi_startproc
	pushq	%rbp
	.seh_pushreg	%rbp
	.cfi_def_cfa_offset 16
	.cfi_offset 6, -16
	movq	%rsp, %rbp
	.seh_setframe	%rbp, 0
	.cfi_def_cfa_register 6
	subq	$48, %rsp
	.seh_stackalloc	48
	.seh_endprologue
	movq	%rcx, 16(%rbp)
	movq	%rdx, 24(%rbp)
	movq	%r8, 32(%rbp)
	.loc 14 380 0
	movb	$1, -1(%rbp)
	.loc 14 386 0
	movq	32(%rbp), %rdx
	movq	24(%rbp), %rax
	movq	%rdx, %r8
	movq	%rax, %rdx
	movq	16(%rbp), %rcx
	call	_ZNSt11__copy_moveILb0ELb1ESt26random_access_iterator_tagE8__copy_mIhEEPT_PKS3_S6_S4_
	.loc 14 387 0
	addq	$48, %rsp
	popq	%rbp
	.cfi_restore 6
	.cfi_def_cfa 7, 8
	ret
	.cfi_endproc
.LFE2790:
	.seh_endproc
	.section	.text$_ZSteqIP5pixelEbRKSt13move_iteratorIT_ES6_,"x"
	.linkonce discard
	.globl	_ZSteqIP5pixelEbRKSt13move_iteratorIT_ES6_
	.def	_ZSteqIP5pixelEbRKSt13move_iteratorIT_ES6_;	.scl	2;	.type	32;	.endef
	.seh_proc	_ZSteqIP5pixelEbRKSt13move_iteratorIT_ES6_
_ZSteqIP5pixelEbRKSt13move_iteratorIT_ES6_:
.LFB2791:
	.loc 10 1124 0
	.cfi_startproc
	pushq	%rbp
	.seh_pushreg	%rbp
	.cfi_def_cfa_offset 16
	.cfi_offset 6, -16
	pushq	%rbx
	.seh_pushreg	%rbx
	.cfi_def_cfa_offset 24
	.cfi_offset 3, -24
	subq	$40, %rsp
	.seh_stackalloc	40
	.cfi_def_cfa_offset 64
	leaq	128(%rsp), %rbp
	.seh_setframe	%rbp, 128
	.cfi_def_cfa 6, -64
	.seh_endprologue
	movq	%rcx, -64(%rbp)
	movq	%rdx, -56(%rbp)
	.loc 10 1126 0
	movq	-64(%rbp), %rcx
	call	_ZNKSt13move_iteratorIP5pixelE4baseEv
	movq	%rax, %rbx
	movq	-56(%rbp), %rax
	movq	%rax, %rcx
	call	_ZNKSt13move_iteratorIP5pixelE4baseEv
	cmpq	%rax, %rbx
	sete	%al
	addq	$40, %rsp
	popq	%rbx
	.cfi_restore 3
	popq	%rbp
	.cfi_restore 6
	.cfi_def_cfa 7, -24
	ret
	.cfi_endproc
.LFE2791:
	.seh_endproc
	.section	.text$_ZSt7forwardI5pixelEOT_RNSt16remove_referenceIS1_E4typeE,"x"
	.linkonce discard
	.globl	_ZSt7forwardI5pixelEOT_RNSt16remove_referenceIS1_E4typeE
	.def	_ZSt7forwardI5pixelEOT_RNSt16remove_referenceIS1_E4typeE;	.scl	2;	.type	32;	.endef
	.seh_proc	_ZSt7forwardI5pixelEOT_RNSt16remove_referenceIS1_E4typeE
_ZSt7forwardI5pixelEOT_RNSt16remove_referenceIS1_E4typeE:
.LFB2792:
	.loc 13 73 0
	.cfi_startproc
	pushq	%rbp
	.seh_pushreg	%rbp
	.cfi_def_cfa_offset 16
	.cfi_offset 6, -16
	movq	%rsp, %rbp
	.seh_setframe	%rbp, 0
	.cfi_def_cfa_register 6
	.seh_endprologue
	movq	%rcx, 16(%rbp)
	.loc 13 74 0
	movq	16(%rbp), %rax
	popq	%rbp
	.cfi_restore 6
	.cfi_def_cfa 7, 8
	ret
	.cfi_endproc
.LFE2792:
	.seh_endproc
	.section	.text$_ZNK9__gnu_cxx17__normal_iteratorIPKhSt6vectorIhSaIhEEE4baseEv,"x"
	.linkonce discard
	.align 2
	.globl	_ZNK9__gnu_cxx17__normal_iteratorIPKhSt6vectorIhSaIhEEE4baseEv
	.def	_ZNK9__gnu_cxx17__normal_iteratorIPKhSt6vectorIhSaIhEEE4baseEv;	.scl	2;	.type	32;	.endef
	.seh_proc	_ZNK9__gnu_cxx17__normal_iteratorIPKhSt6vectorIhSaIhEEE4baseEv
_ZNK9__gnu_cxx17__normal_iteratorIPKhSt6vectorIhSaIhEEE4baseEv:
.LFB2795:
	.loc 10 844 0
	.cfi_startproc
	pushq	%rbp
	.seh_pushreg	%rbp
	.cfi_def_cfa_offset 16
	.cfi_offset 6, -16
	movq	%rsp, %rbp
	.seh_setframe	%rbp, 0
	.cfi_def_cfa_register 6
	.seh_endprologue
	movq	%rcx, 16(%rbp)
	.loc 10 845 0
	movq	16(%rbp), %rax
	popq	%rbp
	.cfi_restore 6
	.cfi_def_cfa 7, 8
	ret
	.cfi_endproc
.LFE2795:
	.seh_endproc
	.section	.text$_ZNSt11__copy_moveILb0ELb1ESt26random_access_iterator_tagE8__copy_mIhEEPT_PKS3_S6_S4_,"x"
	.linkonce discard
	.globl	_ZNSt11__copy_moveILb0ELb1ESt26random_access_iterator_tagE8__copy_mIhEEPT_PKS3_S6_S4_
	.def	_ZNSt11__copy_moveILb0ELb1ESt26random_access_iterator_tagE8__copy_mIhEEPT_PKS3_S6_S4_;	.scl	2;	.type	32;	.endef
	.seh_proc	_ZNSt11__copy_moveILb0ELb1ESt26random_access_iterator_tagE8__copy_mIhEEPT_PKS3_S6_S4_
_ZNSt11__copy_moveILb0ELb1ESt26random_access_iterator_tagE8__copy_mIhEEPT_PKS3_S6_S4_:
.LFB2796:
	.loc 14 357 0
	.cfi_startproc
	pushq	%rbp
	.seh_pushreg	%rbp
	.cfi_def_cfa_offset 16
	.cfi_offset 6, -16
	movq	%rsp, %rbp
	.seh_setframe	%rbp, 0
	.cfi_def_cfa_register 6
	subq	$48, %rsp
	.seh_stackalloc	48
	.seh_endprologue
	movq	%rcx, 16(%rbp)
	movq	%rdx, 24(%rbp)
	movq	%r8, 32(%rbp)
	.loc 14 366 0
	movq	24(%rbp), %rdx
	movq	16(%rbp), %rax
	subq	%rax, %rdx
	movq	%rdx, %rax
	movq	%rax, -8(%rbp)
	.loc 14 367 0
	cmpq	$0, -8(%rbp)
	je	.L241
	.loc 14 368 0
	movq	-8(%rbp), %rdx
	movq	32(%rbp), %rax
	movq	%rdx, %r8
	movq	16(%rbp), %rdx
	movq	%rax, %rcx
	call	memmove
.L241:
	.loc 14 369 0
	movq	-8(%rbp), %rdx
	movq	32(%rbp), %rax
	addq	%rdx, %rax
	.loc 14 370 0
	addq	$48, %rsp
	popq	%rbp
	.cfi_restore 6
	.cfi_def_cfa 7, 8
	ret
	.cfi_endproc
.LFE2796:
	.seh_endproc
	.section	.text$_ZNKSt13move_iteratorIP5pixelE4baseEv,"x"
	.linkonce discard
	.align 2
	.globl	_ZNKSt13move_iteratorIP5pixelE4baseEv
	.def	_ZNKSt13move_iteratorIP5pixelE4baseEv;	.scl	2;	.type	32;	.endef
	.seh_proc	_ZNKSt13move_iteratorIP5pixelE4baseEv
_ZNKSt13move_iteratorIP5pixelE4baseEv:
.LFB2797:
	.loc 10 1045 0
	.cfi_startproc
	pushq	%rbp
	.seh_pushreg	%rbp
	.cfi_def_cfa_offset 16
	.cfi_offset 6, -16
	movq	%rsp, %rbp
	.seh_setframe	%rbp, 0
	.cfi_def_cfa_register 6
	.seh_endprologue
	movq	%rcx, 16(%rbp)
	.loc 10 1046 0
	movq	16(%rbp), %rax
	movq	(%rax), %rax
	popq	%rbp
	.cfi_restore 6
	.cfi_def_cfa 7, 8
	ret
	.cfi_endproc
.LFE2797:
	.seh_endproc
	.text
	.def	__tcf_0;	.scl	3;	.type	32;	.endef
	.seh_proc	__tcf_0
__tcf_0:
.LFB2799:
	.file 16 "c:/users/ian/downloads/pocketcpp-0.7/pocketcpp/mingw/include/c++/7.2.0/iostream"
	.loc 16 74 0
	.cfi_startproc
	pushq	%rbp
	.seh_pushreg	%rbp
	.cfi_def_cfa_offset 16
	.cfi_offset 6, -16
	movq	%rsp, %rbp
	.seh_setframe	%rbp, 0
	.cfi_def_cfa_register 6
	subq	$32, %rsp
	.seh_stackalloc	32
	.seh_endprologue
	.loc 16 74 0
	leaq	_ZStL8__ioinit(%rip), %rcx
	call	_ZNSt8ios_base4InitD1Ev
	nop
	addq	$32, %rsp
	popq	%rbp
	.cfi_restore 6
	.cfi_def_cfa 7, 8
	ret
	.cfi_endproc
.LFE2799:
	.seh_endproc
	.def	_Z41__static_initialization_and_destruction_0ii;	.scl	3;	.type	32;	.endef
	.seh_proc	_Z41__static_initialization_and_destruction_0ii
_Z41__static_initialization_and_destruction_0ii:
.LFB2798:
	.loc 3 63 0
	.cfi_startproc
	pushq	%rbp
	.seh_pushreg	%rbp
	.cfi_def_cfa_offset 16
	.cfi_offset 6, -16
	movq	%rsp, %rbp
	.seh_setframe	%rbp, 0
	.cfi_def_cfa_register 6
	subq	$32, %rsp
	.seh_stackalloc	32
	.seh_endprologue
	movl	%ecx, 16(%rbp)
	movl	%edx, 24(%rbp)
	.loc 3 63 0
	cmpl	$1, 16(%rbp)
	jne	.L248
	.loc 3 63 0 is_stmt 0 discriminator 1
	cmpl	$65535, 24(%rbp)
	jne	.L248
	.loc 16 74 0 is_stmt 1
	leaq	_ZStL8__ioinit(%rip), %rcx
	call	_ZNSt8ios_base4InitC1Ev
	leaq	__tcf_0(%rip), %rcx
	call	atexit
.L248:
	.loc 3 63 0
	nop
	addq	$32, %rsp
	popq	%rbp
	.cfi_restore 6
	.cfi_def_cfa 7, 8
	ret
	.cfi_endproc
.LFE2798:
	.seh_endproc
	.def	_GLOBAL__sub_I__ZN3pngC2EPKc;	.scl	3;	.type	32;	.endef
	.seh_proc	_GLOBAL__sub_I__ZN3pngC2EPKc
_GLOBAL__sub_I__ZN3pngC2EPKc:
.LFB2800:
	.loc 3 63 0
	.cfi_startproc
	pushq	%rbp
	.seh_pushreg	%rbp
	.cfi_def_cfa_offset 16
	.cfi_offset 6, -16
	movq	%rsp, %rbp
	.seh_setframe	%rbp, 0
	.cfi_def_cfa_register 6
	subq	$32, %rsp
	.seh_stackalloc	32
	.seh_endprologue
	.loc 3 63 0
	movl	$65535, %edx
	movl	$1, %ecx
	call	_Z41__static_initialization_and_destruction_0ii
	nop
	addq	$32, %rsp
	popq	%rbp
	.cfi_restore 6
	.cfi_def_cfa 7, 8
	ret
	.cfi_endproc
.LFE2800:
	.seh_endproc
	.section	.ctors,"w"
	.align 8
	.quad	_GLOBAL__sub_I__ZN3pngC2EPKc
	.text
.Letext0:
	.file 17 "<built-in>"
	.file 18 "c:/users/ian/downloads/pocketcpp-0.7/pocketcpp/mingw/include/c++/7.2.0/x86_64-w64-mingw32/bits/c++config.h"
	.file 19 "c:/users/ian/downloads/pocketcpp-0.7/pocketcpp/mingw/include/c++/7.2.0/bits/basic_string.h"
	.file 20 "c:/users/ian/downloads/pocketcpp-0.7/pocketcpp/mingw/include/c++/7.2.0/bits/basic_string.tcc"
	.file 21 "c:/users/ian/downloads/pocketcpp-0.7/pocketcpp/mingw/include/c++/7.2.0/type_traits"
	.file 22 "c:/users/ian/downloads/pocketcpp-0.7/pocketcpp/mingw/include/c++/7.2.0/bits/stl_pair.h"
	.file 23 "c:/users/ian/downloads/pocketcpp-0.7/pocketcpp/mingw/include/c++/7.2.0/bits/stl_iterator_base_types.h"
	.file 24 "c:/users/ian/downloads/pocketcpp-0.7/pocketcpp/mingw/include/c++/7.2.0/debug/debug.h"
	.file 25 "c:/users/ian/downloads/pocketcpp-0.7/pocketcpp/mingw/include/c++/7.2.0/bits/exception_ptr.h"
	.file 26 "c:/users/ian/downloads/pocketcpp-0.7/pocketcpp/mingw/include/c++/7.2.0/cmath"
	.file 27 "c:/users/ian/downloads/pocketcpp-0.7/pocketcpp/mingw/include/c++/7.2.0/cwchar"
	.file 28 "c:/users/ian/downloads/pocketcpp-0.7/pocketcpp/mingw/include/c++/7.2.0/bits/char_traits.h"
	.file 29 "c:/users/ian/downloads/pocketcpp-0.7/pocketcpp/mingw/include/c++/7.2.0/cstdint"
	.file 30 "c:/users/ian/downloads/pocketcpp-0.7/pocketcpp/mingw/include/c++/7.2.0/clocale"
	.file 31 "c:/users/ian/downloads/pocketcpp-0.7/pocketcpp/mingw/include/c++/7.2.0/cstdlib"
	.file 32 "c:/users/ian/downloads/pocketcpp-0.7/pocketcpp/mingw/include/c++/7.2.0/cstdio"
	.file 33 "c:/users/ian/downloads/pocketcpp-0.7/pocketcpp/mingw/include/c++/7.2.0/initializer_list"
	.file 34 "c:/users/ian/downloads/pocketcpp-0.7/pocketcpp/mingw/include/c++/7.2.0/system_error"
	.file 35 "c:/users/ian/downloads/pocketcpp-0.7/pocketcpp/mingw/include/c++/7.2.0/bits/ios_base.h"
	.file 36 "c:/users/ian/downloads/pocketcpp-0.7/pocketcpp/mingw/include/c++/7.2.0/cwctype"
	.file 37 "c:/users/ian/downloads/pocketcpp-0.7/pocketcpp/mingw/include/c++/7.2.0/iosfwd"
	.file 38 "c:/users/ian/downloads/pocketcpp-0.7/pocketcpp/mingw/include/c++/7.2.0/bits/stl_iterator_base_funcs.h"
	.file 39 "c:/users/ian/downloads/pocketcpp-0.7/pocketcpp/mingw/include/c++/7.2.0/bits/predefined_ops.h"
	.file 40 "c:/users/ian/downloads/pocketcpp-0.7/pocketcpp/mingw/include/c++/7.2.0/ext/numeric_traits.h"
	.file 41 "c:/users/ian/downloads/pocketcpp-0.7/pocketcpp/mingw/include/c++/7.2.0/ext/type_traits.h"
	.file 42 "c:/users/ian/downloads/pocketcpp-0.7/pocketcpp/mingw/x86_64-w64-mingw32/include/crtdefs.h"
	.file 43 "c:/users/ian/downloads/pocketcpp-0.7/pocketcpp/mingw/x86_64-w64-mingw32/include/locale.h"
	.file 44 "pixel.h"
	.file 45 "c:/users/ian/downloads/pocketcpp-0.7/pocketcpp/mingw/x86_64-w64-mingw32/include/math.h"
	.file 46 "c:/users/ian/downloads/pocketcpp-0.7/pocketcpp/mingw/x86_64-w64-mingw32/include/stdlib.h"
	.file 47 "c:/users/ian/downloads/pocketcpp-0.7/pocketcpp/mingw/x86_64-w64-mingw32/include/malloc.h"
	.file 48 "lodepng.h"
	.file 49 "c:/users/ian/downloads/pocketcpp-0.7/pocketcpp/mingw/x86_64-w64-mingw32/include/wchar.h"
	.file 50 "c:/users/ian/downloads/pocketcpp-0.7/pocketcpp/mingw/x86_64-w64-mingw32/include/swprintf.inl"
	.file 51 "c:/users/ian/downloads/pocketcpp-0.7/pocketcpp/mingw/x86_64-w64-mingw32/include/string.h"
	.file 52 "c:/users/ian/downloads/pocketcpp-0.7/pocketcpp/mingw/x86_64-w64-mingw32/include/stdint.h"
	.file 53 "c:/users/ian/downloads/pocketcpp-0.7/pocketcpp/mingw/x86_64-w64-mingw32/include/stdio.h"
	.file 54 "c:/users/ian/downloads/pocketcpp-0.7/pocketcpp/mingw/x86_64-w64-mingw32/include/ctype.h"
	.file 55 "c:/users/ian/downloads/pocketcpp-0.7/pocketcpp/mingw/include/c++/7.2.0/x86_64-w64-mingw32/bits/gthr-default.h"
	.file 56 "c:/users/ian/downloads/pocketcpp-0.7/pocketcpp/mingw/include/c++/7.2.0/x86_64-w64-mingw32/bits/atomic_word.h"
	.file 57 "png.h"
	.file 58 "c:/users/ian/downloads/pocketcpp-0.7/pocketcpp/mingw/x86_64-w64-mingw32/include/wctype.h"
	.data
	.align 8
.LDFCM0:
	.quad	__gxx_personality_seh0
	.ident	"GCC: (GNU) 7.2.0"
	.def	_Unwind_Resume;	.scl	2;	.type	32;	.endef
	.def	_ZNSaIcEC1Ev;	.scl	2;	.type	32;	.endef
	.def	_ZNSt7__cxx1112basic_stringIcSt11char_traitsIcESaIcEEC1EPKcRKS3_;	.scl	2;	.type	32;	.endef
	.def	_ZN7lodepng6decodeERSt6vectorIhSaIhEERjS4_RKNSt7__cxx1112basic_stringIcSt11char_traitsIcESaIcEEE16LodePNGColorTypej;	.scl	2;	.type	32;	.endef
	.def	_ZNSt7__cxx1112basic_stringIcSt11char_traitsIcESaIcEED1Ev;	.scl	2;	.type	32;	.endef
	.def	_ZNSaIcED1Ev;	.scl	2;	.type	32;	.endef
	.def	_ZStlsISt11char_traitsIcEERSt13basic_ostreamIcT_ES5_PKc;	.scl	2;	.type	32;	.endef
	.def	_ZNSolsEj;	.scl	2;	.type	32;	.endef
	.def	_ZNSolsEPFRSoS_E;	.scl	2;	.type	32;	.endef
	.def	exit;	.scl	2;	.type	32;	.endef
	.def	malloc;	.scl	2;	.type	32;	.endef
	.def	_ZN5pixelC1Ecccc;	.scl	2;	.type	32;	.endef
	.def	_ZSt20__throw_length_errorPKc;	.scl	2;	.type	32;	.endef
	.def	__cxa_begin_catch;	.scl	2;	.type	32;	.endef
	.def	__cxa_rethrow;	.scl	2;	.type	32;	.endef
	.def	__cxa_end_catch;	.scl	2;	.type	32;	.endef
	.def	_ZdlPv;	.scl	2;	.type	32;	.endef
	.def	_ZSt17__throw_bad_allocv;	.scl	2;	.type	32;	.endef
	.def	_Znwy;	.scl	2;	.type	32;	.endef
	.def	memmove;	.scl	2;	.type	32;	.endef
	.def	_ZNSt8ios_base4InitD1Ev;	.scl	2;	.type	32;	.endef
	.def	_ZNSt8ios_base4InitC1Ev;	.scl	2;	.type	32;	.endef
	.def	atexit;	.scl	2;	.type	32;	.endef
	.section	.rdata$.refptr._ZSt4endlIcSt11char_traitsIcEERSt13basic_ostreamIT_T0_ES6_, "dr"
	.globl	.refptr._ZSt4endlIcSt11char_traitsIcEERSt13basic_ostreamIT_T0_ES6_
	.linkonce	discard
.refptr._ZSt4endlIcSt11char_traitsIcEERSt13basic_ostreamIT_T0_ES6_:
	.quad	_ZSt4endlIcSt11char_traitsIcEERSt13basic_ostreamIT_T0_ES6_
	.section	.rdata$.refptr._ZSt4cout, "dr"
	.globl	.refptr._ZSt4cout
	.linkonce	discard
.refptr._ZSt4cout:
	.quad	_ZSt4cout
