	.file	"rigidbody.cpp"
	.text
.Ltext0:
	.cfi_sections	.debug_frame
	.section	.text$_ZSt3absf,"x"
	.linkonce discard
	.globl	_ZSt3absf
	.def	_ZSt3absf;	.scl	2;	.type	32;	.endef
	.seh_proc	_ZSt3absf
_ZSt3absf:
.LFB15:
	.file 1 "c:/users/ian/downloads/pocketcpp-0.7/pocketcpp/mingw/include/c++/7.2.0/bits/std_abs.h"
	.loc 1 75 0
	.cfi_startproc
	pushq	%rbp
	.seh_pushreg	%rbp
	.cfi_def_cfa_offset 16
	.cfi_offset 6, -16
	movq	%rsp, %rbp
	.seh_setframe	%rbp, 0
	.cfi_def_cfa_register 6
	.seh_endprologue
	movss	%xmm0, 16(%rbp)
	.loc 1 75 0
	movss	16(%rbp), %xmm1
	movss	.LC0(%rip), %xmm0
	andps	%xmm1, %xmm0
	popq	%rbp
	.cfi_restore 6
	.cfi_def_cfa 7, 8
	ret
	.cfi_endproc
.LFE15:
	.seh_endproc
	.section	.text$_ZN7boxsize7getMaxXEv,"x"
	.linkonce discard
	.align 2
	.globl	_ZN7boxsize7getMaxXEv
	.def	_ZN7boxsize7getMaxXEv;	.scl	2;	.type	32;	.endef
	.seh_proc	_ZN7boxsize7getMaxXEv
_ZN7boxsize7getMaxXEv:
.LFB243:
	.file 2 "boxsize.h"
	.loc 2 26 0
	.cfi_startproc
	pushq	%rbp
	.seh_pushreg	%rbp
	.cfi_def_cfa_offset 16
	.cfi_offset 6, -16
	movq	%rsp, %rbp
	.seh_setframe	%rbp, 0
	.cfi_def_cfa_register 6
	.seh_endprologue
	movq	%rcx, 16(%rbp)
	.loc 2 26 0
	movq	16(%rbp), %rax
	movl	8(%rax), %edx
	movq	16(%rbp), %rax
	movl	(%rax), %eax
	addl	%edx, %eax
	popq	%rbp
	.cfi_restore 6
	.cfi_def_cfa 7, 8
	ret
	.cfi_endproc
.LFE243:
	.seh_endproc
	.section	.text$_ZN7boxsize7getMaxYEv,"x"
	.linkonce discard
	.align 2
	.globl	_ZN7boxsize7getMaxYEv
	.def	_ZN7boxsize7getMaxYEv;	.scl	2;	.type	32;	.endef
	.seh_proc	_ZN7boxsize7getMaxYEv
_ZN7boxsize7getMaxYEv:
.LFB244:
	.loc 2 27 0
	.cfi_startproc
	pushq	%rbp
	.seh_pushreg	%rbp
	.cfi_def_cfa_offset 16
	.cfi_offset 6, -16
	movq	%rsp, %rbp
	.seh_setframe	%rbp, 0
	.cfi_def_cfa_register 6
	.seh_endprologue
	movq	%rcx, 16(%rbp)
	.loc 2 27 0
	movq	16(%rbp), %rax
	movl	12(%rax), %edx
	movq	16(%rbp), %rax
	movl	4(%rax), %eax
	addl	%edx, %eax
	popq	%rbp
	.cfi_restore 6
	.cfi_def_cfa 7, 8
	ret
	.cfi_endproc
.LFE244:
	.seh_endproc
	.section	.text$_ZN7boxsize7getMinXEv,"x"
	.linkonce discard
	.align 2
	.globl	_ZN7boxsize7getMinXEv
	.def	_ZN7boxsize7getMinXEv;	.scl	2;	.type	32;	.endef
	.seh_proc	_ZN7boxsize7getMinXEv
_ZN7boxsize7getMinXEv:
.LFB245:
	.loc 2 28 0
	.cfi_startproc
	pushq	%rbp
	.seh_pushreg	%rbp
	.cfi_def_cfa_offset 16
	.cfi_offset 6, -16
	movq	%rsp, %rbp
	.seh_setframe	%rbp, 0
	.cfi_def_cfa_register 6
	.seh_endprologue
	movq	%rcx, 16(%rbp)
	.loc 2 28 0
	movq	16(%rbp), %rax
	movl	(%rax), %eax
	popq	%rbp
	.cfi_restore 6
	.cfi_def_cfa 7, 8
	ret
	.cfi_endproc
.LFE245:
	.seh_endproc
	.section	.text$_ZN7boxsize7getMinYEv,"x"
	.linkonce discard
	.align 2
	.globl	_ZN7boxsize7getMinYEv
	.def	_ZN7boxsize7getMinYEv;	.scl	2;	.type	32;	.endef
	.seh_proc	_ZN7boxsize7getMinYEv
_ZN7boxsize7getMinYEv:
.LFB246:
	.loc 2 29 0
	.cfi_startproc
	pushq	%rbp
	.seh_pushreg	%rbp
	.cfi_def_cfa_offset 16
	.cfi_offset 6, -16
	movq	%rsp, %rbp
	.seh_setframe	%rbp, 0
	.cfi_def_cfa_register 6
	.seh_endprologue
	movq	%rcx, 16(%rbp)
	.loc 2 29 0
	movq	16(%rbp), %rax
	movl	4(%rax), %eax
	popq	%rbp
	.cfi_restore 6
	.cfi_def_cfa 7, 8
	ret
	.cfi_endproc
.LFE246:
	.seh_endproc
	.section .rdata,"dr"
_ZStL19piecewise_construct:
	.space 1
	.section	.text$_ZN9rigidbody11degsetangleEf,"x"
	.linkonce discard
	.align 2
	.globl	_ZN9rigidbody11degsetangleEf
	.def	_ZN9rigidbody11degsetangleEf;	.scl	2;	.type	32;	.endef
	.seh_proc	_ZN9rigidbody11degsetangleEf
_ZN9rigidbody11degsetangleEf:
.LFB1265:
	.file 3 "rigidbody.h"
	.loc 3 20 0
	.cfi_startproc
	pushq	%rbp
	.seh_pushreg	%rbp
	.cfi_def_cfa_offset 16
	.cfi_offset 6, -16
	movq	%rsp, %rbp
	.seh_setframe	%rbp, 0
	.cfi_def_cfa_register 6
	subq	$32, %rsp
	.seh_stackalloc	32
	.seh_endprologue
	movq	%rcx, 16(%rbp)
	movss	%xmm1, 24(%rbp)
	.loc 3 20 0
	movss	24(%rbp), %xmm0
	movaps	%xmm0, %xmm1
	movq	16(%rbp), %rcx
	call	_ZN9rigidbody4wrapEf
	movd	%xmm0, %eax
	movl	%eax, 24(%rbp)
	movq	16(%rbp), %rax
	movss	24(%rbp), %xmm0
	movss	%xmm0, (%rax)
	movl	24(%rbp), %eax
	movd	%eax, %xmm0
	call	_ZN9rigidbody8degtoradEf
	movd	%xmm0, %edx
	movq	16(%rbp), %rax
	movl	%edx, 4(%rax)
	nop
	addq	$32, %rsp
	popq	%rbp
	.cfi_restore 6
	.cfi_def_cfa 7, 8
	ret
	.cfi_endproc
.LFE1265:
	.seh_endproc
	.section	.text$_ZN9rigidbody7getMaxXEv,"x"
	.linkonce discard
	.align 2
	.globl	_ZN9rigidbody7getMaxXEv
	.def	_ZN9rigidbody7getMaxXEv;	.scl	2;	.type	32;	.endef
	.seh_proc	_ZN9rigidbody7getMaxXEv
_ZN9rigidbody7getMaxXEv:
.LFB1267:
	.loc 3 23 0
	.cfi_startproc
	pushq	%rbp
	.seh_pushreg	%rbp
	.cfi_def_cfa_offset 16
	.cfi_offset 6, -16
	movq	%rsp, %rbp
	.seh_setframe	%rbp, 0
	.cfi_def_cfa_register 6
	subq	$32, %rsp
	.seh_stackalloc	32
	.seh_endprologue
	movq	%rcx, 16(%rbp)
	.loc 3 23 0
	movq	16(%rbp), %rax
	movl	32(%rax), %edx
	movq	16(%rbp), %rax
	movl	12(%rax), %eax
	movd	%eax, %xmm0
	call	_ZN9rigidbody6getMaxEfi
	addq	$32, %rsp
	popq	%rbp
	.cfi_restore 6
	.cfi_def_cfa 7, 8
	ret
	.cfi_endproc
.LFE1267:
	.seh_endproc
	.section	.text$_ZN9rigidbody7getMaxYEv,"x"
	.linkonce discard
	.align 2
	.globl	_ZN9rigidbody7getMaxYEv
	.def	_ZN9rigidbody7getMaxYEv;	.scl	2;	.type	32;	.endef
	.seh_proc	_ZN9rigidbody7getMaxYEv
_ZN9rigidbody7getMaxYEv:
.LFB1268:
	.loc 3 24 0
	.cfi_startproc
	pushq	%rbp
	.seh_pushreg	%rbp
	.cfi_def_cfa_offset 16
	.cfi_offset 6, -16
	movq	%rsp, %rbp
	.seh_setframe	%rbp, 0
	.cfi_def_cfa_register 6
	subq	$32, %rsp
	.seh_stackalloc	32
	.seh_endprologue
	movq	%rcx, 16(%rbp)
	.loc 3 24 0
	movq	16(%rbp), %rax
	movl	36(%rax), %edx
	movq	16(%rbp), %rax
	movl	16(%rax), %eax
	movd	%eax, %xmm0
	call	_ZN9rigidbody6getMaxEfi
	addq	$32, %rsp
	popq	%rbp
	.cfi_restore 6
	.cfi_def_cfa 7, 8
	ret
	.cfi_endproc
.LFE1268:
	.seh_endproc
	.section	.text$_ZN9rigidbody7getMinXEv,"x"
	.linkonce discard
	.align 2
	.globl	_ZN9rigidbody7getMinXEv
	.def	_ZN9rigidbody7getMinXEv;	.scl	2;	.type	32;	.endef
	.seh_proc	_ZN9rigidbody7getMinXEv
_ZN9rigidbody7getMinXEv:
.LFB1269:
	.loc 3 25 0
	.cfi_startproc
	pushq	%rbp
	.seh_pushreg	%rbp
	.cfi_def_cfa_offset 16
	.cfi_offset 6, -16
	movq	%rsp, %rbp
	.seh_setframe	%rbp, 0
	.cfi_def_cfa_register 6
	subq	$32, %rsp
	.seh_stackalloc	32
	.seh_endprologue
	movq	%rcx, 16(%rbp)
	.loc 3 25 0
	movq	16(%rbp), %rax
	movl	12(%rax), %eax
	movd	%eax, %xmm0
	call	_ZN9rigidbody6getMinEf
	addq	$32, %rsp
	popq	%rbp
	.cfi_restore 6
	.cfi_def_cfa 7, 8
	ret
	.cfi_endproc
.LFE1269:
	.seh_endproc
	.section	.text$_ZN9rigidbody7getMinYEv,"x"
	.linkonce discard
	.align 2
	.globl	_ZN9rigidbody7getMinYEv
	.def	_ZN9rigidbody7getMinYEv;	.scl	2;	.type	32;	.endef
	.seh_proc	_ZN9rigidbody7getMinYEv
_ZN9rigidbody7getMinYEv:
.LFB1270:
	.loc 3 26 0
	.cfi_startproc
	pushq	%rbp
	.seh_pushreg	%rbp
	.cfi_def_cfa_offset 16
	.cfi_offset 6, -16
	movq	%rsp, %rbp
	.seh_setframe	%rbp, 0
	.cfi_def_cfa_register 6
	subq	$32, %rsp
	.seh_stackalloc	32
	.seh_endprologue
	movq	%rcx, 16(%rbp)
	.loc 3 26 0
	movq	16(%rbp), %rax
	movl	16(%rax), %eax
	movd	%eax, %xmm0
	call	_ZN9rigidbody6getMinEf
	addq	$32, %rsp
	popq	%rbp
	.cfi_restore 6
	.cfi_def_cfa 7, 8
	ret
	.cfi_endproc
.LFE1270:
	.seh_endproc
	.section	.text$_ZN9rigidbody6getMaxEfi,"x"
	.linkonce discard
	.globl	_ZN9rigidbody6getMaxEfi
	.def	_ZN9rigidbody6getMaxEfi;	.scl	2;	.type	32;	.endef
	.seh_proc	_ZN9rigidbody6getMaxEfi
_ZN9rigidbody6getMaxEfi:
.LFB1274:
	.loc 3 70 0
	.cfi_startproc
	pushq	%rbp
	.seh_pushreg	%rbp
	.cfi_def_cfa_offset 16
	.cfi_offset 6, -16
	movq	%rsp, %rbp
	.seh_setframe	%rbp, 0
	.cfi_def_cfa_register 6
	.seh_endprologue
	movss	%xmm0, 16(%rbp)
	movl	%edx, 24(%rbp)
	.loc 3 70 0
	cvtsi2ss	24(%rbp), %xmm0
	addss	16(%rbp), %xmm0
	cvttss2si	%xmm0, %eax
	popq	%rbp
	.cfi_restore 6
	.cfi_def_cfa 7, 8
	ret
	.cfi_endproc
.LFE1274:
	.seh_endproc
	.section	.text$_ZN9rigidbody6getMinEf,"x"
	.linkonce discard
	.globl	_ZN9rigidbody6getMinEf
	.def	_ZN9rigidbody6getMinEf;	.scl	2;	.type	32;	.endef
	.seh_proc	_ZN9rigidbody6getMinEf
_ZN9rigidbody6getMinEf:
.LFB1275:
	.loc 3 71 0
	.cfi_startproc
	pushq	%rbp
	.seh_pushreg	%rbp
	.cfi_def_cfa_offset 16
	.cfi_offset 6, -16
	movq	%rsp, %rbp
	.seh_setframe	%rbp, 0
	.cfi_def_cfa_register 6
	.seh_endprologue
	movss	%xmm0, 16(%rbp)
	.loc 3 71 0
	movss	16(%rbp), %xmm0
	cvttss2si	%xmm0, %eax
	popq	%rbp
	.cfi_restore 6
	.cfi_def_cfa 7, 8
	ret
	.cfi_endproc
.LFE1275:
	.seh_endproc
	.section	.text$_ZN9rigidbody8degtoradEf,"x"
	.linkonce discard
	.globl	_ZN9rigidbody8degtoradEf
	.def	_ZN9rigidbody8degtoradEf;	.scl	2;	.type	32;	.endef
	.seh_proc	_ZN9rigidbody8degtoradEf
_ZN9rigidbody8degtoradEf:
.LFB1276:
	.loc 3 74 0
	.cfi_startproc
	pushq	%rbp
	.seh_pushreg	%rbp
	.cfi_def_cfa_offset 16
	.cfi_offset 6, -16
	movq	%rsp, %rbp
	.seh_setframe	%rbp, 0
	.cfi_def_cfa_register 6
	.seh_endprologue
	movss	%xmm0, 16(%rbp)
	.loc 3 74 0
	movss	16(%rbp), %xmm1
	movss	.LC1(%rip), %xmm0
	mulss	%xmm1, %xmm0
	movss	.LC2(%rip), %xmm1
	divss	%xmm1, %xmm0
	popq	%rbp
	.cfi_restore 6
	.cfi_def_cfa 7, 8
	ret
	.cfi_endproc
.LFE1276:
	.seh_endproc
	.text
	.align 2
	.globl	_ZN9rigidbodyC2Ev
	.def	_ZN9rigidbodyC2Ev;	.scl	2;	.type	32;	.endef
	.seh_proc	_ZN9rigidbodyC2Ev
_ZN9rigidbodyC2Ev:
.LFB1279:
	.file 4 "rigidbody.cpp"
	.loc 4 6 0
	.cfi_startproc
	pushq	%rbp
	.seh_pushreg	%rbp
	.cfi_def_cfa_offset 16
	.cfi_offset 6, -16
	movq	%rsp, %rbp
	.seh_setframe	%rbp, 0
	.cfi_def_cfa_register 6
	.seh_endprologue
	movq	%rcx, 16(%rbp)
	.loc 4 8 0
	nop
	popq	%rbp
	.cfi_restore 6
	.cfi_def_cfa 7, 8
	ret
	.cfi_endproc
.LFE1279:
	.seh_endproc
	.globl	_ZN9rigidbodyC1Ev
	.def	_ZN9rigidbodyC1Ev;	.scl	2;	.type	32;	.endef
	.set	_ZN9rigidbodyC1Ev,_ZN9rigidbodyC2Ev
	.align 2
	.globl	_ZN9rigidbodyC2EffP7boxsizeS1_
	.def	_ZN9rigidbodyC2EffP7boxsizeS1_;	.scl	2;	.type	32;	.endef
	.seh_proc	_ZN9rigidbodyC2EffP7boxsizeS1_
_ZN9rigidbodyC2EffP7boxsizeS1_:
.LFB1282:
	.loc 4 15 0
	.cfi_startproc
	pushq	%rbp
	.seh_pushreg	%rbp
	.cfi_def_cfa_offset 16
	.cfi_offset 6, -16
	movq	%rsp, %rbp
	.seh_setframe	%rbp, 0
	.cfi_def_cfa_register 6
	subq	$32, %rsp
	.seh_stackalloc	32
	.seh_endprologue
	movq	%rcx, 16(%rbp)
	movss	%xmm1, 24(%rbp)
	movss	%xmm2, 32(%rbp)
	movq	%r9, 40(%rbp)
.LBB2:
	.loc 4 17 0
	movq	16(%rbp), %rax
	movss	24(%rbp), %xmm0
	movss	%xmm0, 8(%rax)
	.loc 4 18 0
	movss	32(%rbp), %xmm0
	movaps	%xmm0, %xmm1
	movq	16(%rbp), %rcx
	call	_ZN9rigidbody11degsetangleEf
	.loc 4 19 0
	movq	40(%rbp), %rax
	movl	(%rax), %eax
	cvtsi2ss	%eax, %xmm0
	movq	16(%rbp), %rax
	movss	%xmm0, 12(%rax)
	.loc 4 20 0
	movq	40(%rbp), %rax
	movl	4(%rax), %eax
	cvtsi2ss	%eax, %xmm0
	movq	16(%rbp), %rax
	movss	%xmm0, 16(%rax)
	.loc 4 21 0
	movq	40(%rbp), %rax
	movl	8(%rax), %edx
	movq	16(%rbp), %rax
	movl	%edx, 32(%rax)
	.loc 4 22 0
	movq	40(%rbp), %rax
	movl	12(%rax), %edx
	movq	16(%rbp), %rax
	movl	%edx, 36(%rax)
	.loc 4 23 0
	movq	16(%rbp), %rax
	movq	48(%rbp), %rdx
	movq	%rdx, 24(%rax)
.LBE2:
	.loc 4 24 0
	nop
	addq	$32, %rsp
	popq	%rbp
	.cfi_restore 6
	.cfi_def_cfa 7, 8
	ret
	.cfi_endproc
.LFE1282:
	.seh_endproc
	.globl	_ZN9rigidbodyC1EffP7boxsizeS1_
	.def	_ZN9rigidbodyC1EffP7boxsizeS1_;	.scl	2;	.type	32;	.endef
	.set	_ZN9rigidbodyC1EffP7boxsizeS1_,_ZN9rigidbodyC2EffP7boxsizeS1_
	.align 2
	.globl	_ZN9rigidbody6updateEf
	.def	_ZN9rigidbody6updateEf;	.scl	2;	.type	32;	.endef
	.seh_proc	_ZN9rigidbody6updateEf
_ZN9rigidbody6updateEf:
.LFB1284:
	.loc 4 27 0
	.cfi_startproc
	pushq	%rbp
	.seh_pushreg	%rbp
	.cfi_def_cfa_offset 16
	.cfi_offset 6, -16
	movq	%rsp, %rbp
	.seh_setframe	%rbp, 0
	.cfi_def_cfa_register 6
	subq	$48, %rsp
	.seh_stackalloc	48
	.seh_endprologue
	movq	%rcx, 16(%rbp)
	movss	%xmm1, 24(%rbp)
	.loc 4 28 0
	movq	16(%rbp), %rax
	movss	8(%rax), %xmm0
	movss	24(%rbp), %xmm1
	mulss	%xmm1, %xmm0
	movss	%xmm0, -4(%rbp)
	.loc 4 30 0
	movss	-4(%rbp), %xmm0
	movaps	%xmm0, %xmm1
	movq	16(%rbp), %rcx
	call	_ZN9rigidbody4moveEf
	.loc 4 31 0
	nop
	addq	$48, %rsp
	popq	%rbp
	.cfi_restore 6
	.cfi_def_cfa 7, 8
	ret
	.cfi_endproc
.LFE1284:
	.seh_endproc
	.align 2
	.globl	_ZN9rigidbody4moveEf
	.def	_ZN9rigidbody4moveEf;	.scl	2;	.type	32;	.endef
	.seh_proc	_ZN9rigidbody4moveEf
_ZN9rigidbody4moveEf:
.LFB1285:
	.loc 4 34 0
	.cfi_startproc
	pushq	%rbp
	.seh_pushreg	%rbp
	.cfi_def_cfa_offset 16
	.cfi_offset 6, -16
	movq	%rsp, %rbp
	.seh_setframe	%rbp, 0
	.cfi_def_cfa_register 6
	subq	$64, %rsp
	.seh_stackalloc	64
	movaps	%xmm6, -16(%rbp)
	.seh_savexmm	%xmm6, 48
	.cfi_offset 23, -32
	.seh_endprologue
	movq	%rcx, 16(%rbp)
	movss	%xmm1, 24(%rbp)
	.loc 4 37 0
	movq	16(%rbp), %rax
	movb	$0, 44(%rax)
	movq	16(%rbp), %rax
	movzbl	44(%rax), %eax
	movb	%al, -17(%rbp)
.L31:
	.loc 4 38 0
	movq	16(%rbp), %rax
	movss	(%rax), %xmm0
	leaq	-32(%rbp), %rax
	movq	%rax, %r8
	movaps	%xmm0, %xmm1
	movq	16(%rbp), %rcx
	call	_ZN9rigidbody14distanceToWallEfPi
	movd	%xmm0, %eax
	movl	%eax, -24(%rbp)
	movss	24(%rbp), %xmm0
	ucomiss	-24(%rbp), %xmm0
	setnb	%al
	testb	%al, %al
	je	.L30
.LBB3:
	.loc 4 44 0
	movss	24(%rbp), %xmm0
	subss	-24(%rbp), %xmm0
	movss	%xmm0, 24(%rbp)
	.loc 4 45 0
	movl	-32(%rbp), %edx
	movq	16(%rbp), %rax
	movl	%edx, 40(%rax)
	movq	16(%rbp), %rax
	movl	40(%rax), %edx
	movq	16(%rbp), %rax
	movss	(%rax), %xmm0
	cvttss2si	%xmm0, %eax
	movl	%edx, %r8d
	movl	%eax, %edx
	movq	16(%rbp), %rcx
	call	_ZN9rigidbody6bounceEii
	movl	%eax, -28(%rbp)
	.loc 4 46 0
	movl	-32(%rbp), %edx
	cvtsi2ss	-28(%rbp), %xmm0
	movq	16(%rbp), %rax
	movss	(%rax), %xmm1
	movl	%edx, %r9d
	movaps	%xmm0, %xmm2
	movq	16(%rbp), %rcx
	call	_ZN9rigidbody11getNewAngleEffi
	movaps	%xmm0, %xmm1
	movq	16(%rbp), %rcx
	call	_ZN9rigidbody11degsetangleEf
	.loc 4 47 0
	movl	-32(%rbp), %eax
	movl	%eax, %edx
	movq	16(%rbp), %rcx
	call	_ZN9rigidbody13setdefaultposEi
	.loc 4 48 0
	movb	$1, -17(%rbp)
	movq	16(%rbp), %rax
	movzbl	-17(%rbp), %edx
	movb	%dl, 44(%rax)
.LBE3:
	.loc 4 38 0
	jmp	.L31
.L30:
	.loc 4 51 0
	movss	24(%rbp), %xmm0
	pxor	%xmm1, %xmm1
	ucomiss	%xmm1, %xmm0
	ja	.L34
	.loc 4 56 0
	jmp	.L35
.L34:
	.loc 4 51 0 discriminator 1
	movzbl	-17(%rbp), %eax
	xorl	$1, %eax
	testb	%al, %al
	je	.L35
	.loc 4 53 0
	movq	16(%rbp), %rax
	movss	12(%rax), %xmm0
	cvtss2sd	%xmm0, %xmm6
	movq	16(%rbp), %rax
	movss	4(%rax), %xmm0
	cvtss2sd	%xmm0, %xmm5
	movq	%xmm5, %rax
	movq	%rax, %xmm0
	call	cos
	movq	%xmm0, %rax
	cvtss2sd	24(%rbp), %xmm0
	movq	%rax, %xmm3
	mulsd	%xmm0, %xmm3
	movapd	%xmm3, %xmm0
	addsd	%xmm6, %xmm0
	cvtsd2ss	%xmm0, %xmm0
	movq	16(%rbp), %rax
	movss	%xmm0, 12(%rax)
	.loc 4 54 0
	movq	16(%rbp), %rax
	movss	16(%rax), %xmm0
	cvtss2sd	%xmm0, %xmm6
	movq	16(%rbp), %rax
	movss	4(%rax), %xmm0
	cvtss2sd	%xmm0, %xmm2
	movq	%xmm2, %rax
	movq	%rax, %xmm0
	call	sin
	movq	%xmm0, %rax
	cvtss2sd	24(%rbp), %xmm0
	movq	%rax, %xmm4
	mulsd	%xmm0, %xmm4
	movapd	%xmm4, %xmm0
	subsd	%xmm0, %xmm6
	movapd	%xmm6, %xmm0
	cvtsd2ss	%xmm0, %xmm0
	movq	16(%rbp), %rax
	movss	%xmm0, 16(%rax)
.L35:
	.loc 4 56 0
	nop
	movaps	-16(%rbp), %xmm6
	addq	$64, %rsp
	.cfi_restore 23
	popq	%rbp
	.cfi_restore 6
	.cfi_def_cfa 7, 8
	ret
	.cfi_endproc
.LFE1285:
	.seh_endproc
	.align 2
	.globl	_ZN9rigidbody15distanceToSide0Ev
	.def	_ZN9rigidbody15distanceToSide0Ev;	.scl	2;	.type	32;	.endef
	.seh_proc	_ZN9rigidbody15distanceToSide0Ev
_ZN9rigidbody15distanceToSide0Ev:
.LFB1286:
	.loc 4 59 0
	.cfi_startproc
	pushq	%rbp
	.seh_pushreg	%rbp
	.cfi_def_cfa_offset 16
	.cfi_offset 6, -16
	movq	%rsp, %rbp
	.seh_setframe	%rbp, 0
	.cfi_def_cfa_register 6
	subq	$112, %rsp
	.seh_stackalloc	112
	movaps	%xmm6, -64(%rbp)
	.seh_savexmm	%xmm6, 48
	movaps	%xmm7, -48(%rbp)
	.seh_savexmm	%xmm7, 64
	movaps	%xmm8, -32(%rbp)
	.seh_savexmm	%xmm8, 80
	movaps	%xmm9, -16(%rbp)
	.seh_savexmm	%xmm9, 96
	.cfi_offset 23, -80
	.cfi_offset 24, -64
	.cfi_offset 25, -48
	.cfi_offset 26, -32
	.seh_endprologue
	movq	%rcx, 16(%rbp)
	.loc 4 60 0
	movq	16(%rbp), %rax
	movss	(%rax), %xmm7
	movq	16(%rbp), %rcx
	call	_ZN9rigidbody7getMinYEv
	cvtsi2ss	%eax, %xmm6
	movq	16(%rbp), %rax
	movq	24(%rax), %rax
	movq	%rax, %rcx
	call	_ZN7boxsize7getMaxXEv
	cvtsi2ss	%eax, %xmm9
	movq	16(%rbp), %rcx
	call	_ZN9rigidbody7getMinYEv
	cvtsi2ss	%eax, %xmm8
	movq	16(%rbp), %rcx
	call	_ZN9rigidbody7getMaxXEv
	cvtsi2ss	%eax, %xmm0
	movss	%xmm7, 40(%rsp)
	movss	%xmm6, 32(%rsp)
	movaps	%xmm9, %xmm3
	movaps	%xmm8, %xmm2
	movaps	%xmm0, %xmm1
	movq	16(%rbp), %rcx
	call	_ZN9rigidbody14distanceToWallEfffff
	.loc 4 61 0
	movaps	-64(%rbp), %xmm6
	movaps	-48(%rbp), %xmm7
	movaps	-32(%rbp), %xmm8
	movaps	-16(%rbp), %xmm9
	addq	$112, %rsp
	.cfi_restore 26
	.cfi_restore 25
	.cfi_restore 24
	.cfi_restore 23
	popq	%rbp
	.cfi_restore 6
	.cfi_def_cfa 7, 8
	ret
	.cfi_endproc
.LFE1286:
	.seh_endproc
	.align 2
	.globl	_ZN9rigidbody15distanceToSide1Ev
	.def	_ZN9rigidbody15distanceToSide1Ev;	.scl	2;	.type	32;	.endef
	.seh_proc	_ZN9rigidbody15distanceToSide1Ev
_ZN9rigidbody15distanceToSide1Ev:
.LFB1287:
	.loc 4 64 0
	.cfi_startproc
	pushq	%rbp
	.seh_pushreg	%rbp
	.cfi_def_cfa_offset 16
	.cfi_offset 6, -16
	movq	%rsp, %rbp
	.seh_setframe	%rbp, 0
	.cfi_def_cfa_register 6
	subq	$112, %rsp
	.seh_stackalloc	112
	movaps	%xmm6, -64(%rbp)
	.seh_savexmm	%xmm6, 48
	movaps	%xmm7, -48(%rbp)
	.seh_savexmm	%xmm7, 64
	movaps	%xmm8, -32(%rbp)
	.seh_savexmm	%xmm8, 80
	movaps	%xmm9, -16(%rbp)
	.seh_savexmm	%xmm9, 96
	.cfi_offset 23, -80
	.cfi_offset 24, -64
	.cfi_offset 25, -48
	.cfi_offset 26, -32
	.seh_endprologue
	movq	%rcx, 16(%rbp)
	.loc 4 65 0
	movq	16(%rbp), %rax
	movss	(%rax), %xmm7
	movq	16(%rbp), %rax
	movq	24(%rax), %rax
	movl	4(%rax), %eax
	cvtsi2ss	%eax, %xmm6
	movq	16(%rbp), %rcx
	call	_ZN9rigidbody7getMinXEv
	cvtsi2ss	%eax, %xmm9
	movq	16(%rbp), %rcx
	call	_ZN9rigidbody7getMinYEv
	cvtsi2ss	%eax, %xmm8
	movq	16(%rbp), %rcx
	call	_ZN9rigidbody7getMinXEv
	cvtsi2ss	%eax, %xmm0
	movss	%xmm7, 40(%rsp)
	movss	%xmm6, 32(%rsp)
	movaps	%xmm9, %xmm3
	movaps	%xmm8, %xmm2
	movaps	%xmm0, %xmm1
	movq	16(%rbp), %rcx
	call	_ZN9rigidbody14distanceToWallEfffff
	.loc 4 66 0
	movaps	-64(%rbp), %xmm6
	movaps	-48(%rbp), %xmm7
	movaps	-32(%rbp), %xmm8
	movaps	-16(%rbp), %xmm9
	addq	$112, %rsp
	.cfi_restore 26
	.cfi_restore 25
	.cfi_restore 24
	.cfi_restore 23
	popq	%rbp
	.cfi_restore 6
	.cfi_def_cfa 7, 8
	ret
	.cfi_endproc
.LFE1287:
	.seh_endproc
	.align 2
	.globl	_ZN9rigidbody15distanceToSide2Ev
	.def	_ZN9rigidbody15distanceToSide2Ev;	.scl	2;	.type	32;	.endef
	.seh_proc	_ZN9rigidbody15distanceToSide2Ev
_ZN9rigidbody15distanceToSide2Ev:
.LFB1288:
	.loc 4 69 0
	.cfi_startproc
	pushq	%rbp
	.seh_pushreg	%rbp
	.cfi_def_cfa_offset 16
	.cfi_offset 6, -16
	movq	%rsp, %rbp
	.seh_setframe	%rbp, 0
	.cfi_def_cfa_register 6
	subq	$112, %rsp
	.seh_stackalloc	112
	movaps	%xmm6, -64(%rbp)
	.seh_savexmm	%xmm6, 48
	movaps	%xmm7, -48(%rbp)
	.seh_savexmm	%xmm7, 64
	movaps	%xmm8, -32(%rbp)
	.seh_savexmm	%xmm8, 80
	movaps	%xmm9, -16(%rbp)
	.seh_savexmm	%xmm9, 96
	.cfi_offset 23, -80
	.cfi_offset 24, -64
	.cfi_offset 25, -48
	.cfi_offset 26, -32
	.seh_endprologue
	movq	%rcx, 16(%rbp)
	.loc 4 70 0
	movq	16(%rbp), %rax
	movss	(%rax), %xmm7
	movq	16(%rbp), %rcx
	call	_ZN9rigidbody7getMinYEv
	cvtsi2ss	%eax, %xmm6
	movq	16(%rbp), %rax
	movq	24(%rax), %rax
	movl	(%rax), %eax
	cvtsi2ss	%eax, %xmm9
	movq	16(%rbp), %rcx
	call	_ZN9rigidbody7getMinYEv
	cvtsi2ss	%eax, %xmm8
	movq	16(%rbp), %rcx
	call	_ZN9rigidbody7getMinXEv
	cvtsi2ss	%eax, %xmm0
	movss	%xmm7, 40(%rsp)
	movss	%xmm6, 32(%rsp)
	movaps	%xmm9, %xmm3
	movaps	%xmm8, %xmm2
	movaps	%xmm0, %xmm1
	movq	16(%rbp), %rcx
	call	_ZN9rigidbody14distanceToWallEfffff
	.loc 4 71 0
	movaps	-64(%rbp), %xmm6
	movaps	-48(%rbp), %xmm7
	movaps	-32(%rbp), %xmm8
	movaps	-16(%rbp), %xmm9
	addq	$112, %rsp
	.cfi_restore 26
	.cfi_restore 25
	.cfi_restore 24
	.cfi_restore 23
	popq	%rbp
	.cfi_restore 6
	.cfi_def_cfa 7, 8
	ret
	.cfi_endproc
.LFE1288:
	.seh_endproc
	.align 2
	.globl	_ZN9rigidbody15distanceToSide3Ev
	.def	_ZN9rigidbody15distanceToSide3Ev;	.scl	2;	.type	32;	.endef
	.seh_proc	_ZN9rigidbody15distanceToSide3Ev
_ZN9rigidbody15distanceToSide3Ev:
.LFB1289:
	.loc 4 74 0
	.cfi_startproc
	pushq	%rbp
	.seh_pushreg	%rbp
	.cfi_def_cfa_offset 16
	.cfi_offset 6, -16
	movq	%rsp, %rbp
	.seh_setframe	%rbp, 0
	.cfi_def_cfa_register 6
	subq	$112, %rsp
	.seh_stackalloc	112
	movaps	%xmm6, -64(%rbp)
	.seh_savexmm	%xmm6, 48
	movaps	%xmm7, -48(%rbp)
	.seh_savexmm	%xmm7, 64
	movaps	%xmm8, -32(%rbp)
	.seh_savexmm	%xmm8, 80
	movaps	%xmm9, -16(%rbp)
	.seh_savexmm	%xmm9, 96
	.cfi_offset 23, -80
	.cfi_offset 24, -64
	.cfi_offset 25, -48
	.cfi_offset 26, -32
	.seh_endprologue
	movq	%rcx, 16(%rbp)
	.loc 4 75 0
	movq	16(%rbp), %rax
	movss	(%rax), %xmm7
	movq	16(%rbp), %rax
	movq	24(%rax), %rax
	movq	%rax, %rcx
	call	_ZN7boxsize7getMaxYEv
	cvtsi2ss	%eax, %xmm6
	movq	16(%rbp), %rcx
	call	_ZN9rigidbody7getMaxXEv
	cvtsi2ss	%eax, %xmm9
	movq	16(%rbp), %rcx
	call	_ZN9rigidbody7getMaxYEv
	cvtsi2ss	%eax, %xmm8
	movq	16(%rbp), %rcx
	call	_ZN9rigidbody7getMaxXEv
	cvtsi2ss	%eax, %xmm0
	movss	%xmm7, 40(%rsp)
	movss	%xmm6, 32(%rsp)
	movaps	%xmm9, %xmm3
	movaps	%xmm8, %xmm2
	movaps	%xmm0, %xmm1
	movq	16(%rbp), %rcx
	call	_ZN9rigidbody14distanceToWallEfffff
	.loc 4 76 0
	movaps	-64(%rbp), %xmm6
	movaps	-48(%rbp), %xmm7
	movaps	-32(%rbp), %xmm8
	movaps	-16(%rbp), %xmm9
	addq	$112, %rsp
	.cfi_restore 26
	.cfi_restore 25
	.cfi_restore 24
	.cfi_restore 23
	popq	%rbp
	.cfi_restore 6
	.cfi_def_cfa 7, 8
	ret
	.cfi_endproc
.LFE1289:
	.seh_endproc
	.align 2
	.globl	_ZN9rigidbody11getNewAngleEffi
	.def	_ZN9rigidbody11getNewAngleEffi;	.scl	2;	.type	32;	.endef
	.seh_proc	_ZN9rigidbody11getNewAngleEffi
_ZN9rigidbody11getNewAngleEffi:
.LFB1290:
	.loc 4 79 0
	.cfi_startproc
	pushq	%rbp
	.seh_pushreg	%rbp
	.cfi_def_cfa_offset 16
	.cfi_offset 6, -16
	movq	%rsp, %rbp
	.seh_setframe	%rbp, 0
	.cfi_def_cfa_register 6
	.seh_endprologue
	movq	%rcx, 16(%rbp)
	movss	%xmm1, 24(%rbp)
	movss	%xmm2, 32(%rbp)
	movl	%r9d, 40(%rbp)
	.loc 4 80 0
	movl	40(%rbp), %eax
	leal	1(%rax), %edx
	movl	%edx, %eax
	sarl	$31, %eax
	shrl	$30, %eax
	addl	%eax, %edx
	andl	$3, %edx
	subl	%eax, %edx
	movl	%edx, %eax
	imull	$90, %eax, %eax
	cvtsi2ss	%eax, %xmm0
	addss	32(%rbp), %xmm0
	.loc 4 86 0
	popq	%rbp
	.cfi_restore 6
	.cfi_def_cfa 7, 8
	ret
	.cfi_endproc
.LFE1290:
	.seh_endproc
	.align 2
	.globl	_ZN9rigidbody13setdefaultposEi
	.def	_ZN9rigidbody13setdefaultposEi;	.scl	2;	.type	32;	.endef
	.seh_proc	_ZN9rigidbody13setdefaultposEi
_ZN9rigidbody13setdefaultposEi:
.LFB1291:
	.loc 4 89 0
	.cfi_startproc
	pushq	%rbp
	.seh_pushreg	%rbp
	.cfi_def_cfa_offset 16
	.cfi_offset 6, -16
	movq	%rsp, %rbp
	.seh_setframe	%rbp, 0
	.cfi_def_cfa_register 6
	subq	$32, %rsp
	.seh_stackalloc	32
	.seh_endprologue
	movq	%rcx, 16(%rbp)
	movl	%edx, 24(%rbp)
	.loc 4 90 0
	movl	24(%rbp), %eax
	cmpl	$1, %eax
	je	.L48
	cmpl	$1, %eax
	jg	.L49
	testl	%eax, %eax
	je	.L50
	jmp	.L47
.L49:
	cmpl	$2, %eax
	je	.L51
	cmpl	$3, %eax
	je	.L52
	jmp	.L47
.L50:
	.loc 4 93 0
	movq	16(%rbp), %rax
	movq	24(%rax), %rax
	movq	%rax, %rcx
	call	_ZN7boxsize7getMaxXEv
	movl	%eax, %edx
	movq	16(%rbp), %rax
	movl	32(%rax), %eax
	subl	%eax, %edx
	movl	%edx, %eax
	cvtsi2ss	%eax, %xmm0
	movq	16(%rbp), %rax
	movss	%xmm0, 12(%rax)
	.loc 4 94 0
	jmp	.L53
.L48:
	.loc 4 96 0
	movq	16(%rbp), %rax
	movq	24(%rax), %rax
	movq	%rax, %rcx
	call	_ZN7boxsize7getMinYEv
	cvtsi2ss	%eax, %xmm0
	movq	16(%rbp), %rax
	movss	%xmm0, 16(%rax)
	.loc 4 97 0
	jmp	.L53
.L51:
	.loc 4 99 0
	movq	16(%rbp), %rax
	movq	24(%rax), %rax
	movq	%rax, %rcx
	call	_ZN7boxsize7getMinXEv
	cvtsi2ss	%eax, %xmm0
	movq	16(%rbp), %rax
	movss	%xmm0, 12(%rax)
	.loc 4 100 0
	jmp	.L53
.L52:
	.loc 4 102 0
	movq	16(%rbp), %rax
	movq	24(%rax), %rax
	movq	%rax, %rcx
	call	_ZN7boxsize7getMaxYEv
	movl	%eax, %edx
	movq	16(%rbp), %rax
	movl	36(%rax), %eax
	subl	%eax, %edx
	movl	%edx, %eax
	cvtsi2ss	%eax, %xmm0
	movq	16(%rbp), %rax
	movss	%xmm0, 16(%rax)
	.loc 4 103 0
	jmp	.L53
.L47:
	.loc 4 105 0
	movl	$99892, %ecx
	call	exit
.L53:
	.loc 4 108 0
	nop
	addq	$32, %rsp
	popq	%rbp
	.cfi_restore 6
	.cfi_def_cfa 7, 8
	ret
	.cfi_endproc
.LFE1291:
	.seh_endproc
	.align 2
	.globl	_ZN9rigidbody6bounceEii
	.def	_ZN9rigidbody6bounceEii;	.scl	2;	.type	32;	.endef
	.seh_proc	_ZN9rigidbody6bounceEii
_ZN9rigidbody6bounceEii:
.LFB1292:
	.loc 4 111 0
	.cfi_startproc
	pushq	%rbp
	.seh_pushreg	%rbp
	.cfi_def_cfa_offset 16
	.cfi_offset 6, -16
	movq	%rsp, %rbp
	.seh_setframe	%rbp, 0
	.cfi_def_cfa_register 6
	subq	$16, %rsp
	.seh_stackalloc	16
	.seh_endprologue
	movq	%rcx, 16(%rbp)
	movl	%edx, 24(%rbp)
	movl	%r8d, 32(%rbp)
	.loc 4 112 0
	movl	32(%rbp), %eax
	addl	$1, %eax
	imull	$90, %eax, %eax
	movl	%eax, -4(%rbp)
	.loc 4 113 0
	movl	-4(%rbp), %eax
	subl	24(%rbp), %eax
	.loc 4 122 0
	addq	$16, %rsp
	popq	%rbp
	.cfi_restore 6
	.cfi_def_cfa 7, 8
	ret
	.cfi_endproc
.LFE1292:
	.seh_endproc
	.align 2
	.globl	_ZN9rigidbody14distanceToWallEfffff
	.def	_ZN9rigidbody14distanceToWallEfffff;	.scl	2;	.type	32;	.endef
	.seh_proc	_ZN9rigidbody14distanceToWallEfffff
_ZN9rigidbody14distanceToWallEfffff:
.LFB1293:
	.loc 4 126 0
	.cfi_startproc
	pushq	%rbp
	.seh_pushreg	%rbp
	.cfi_def_cfa_offset 16
	.cfi_offset 6, -16
	movq	%rsp, %rbp
	.seh_setframe	%rbp, 0
	.cfi_def_cfa_register 6
	subq	$48, %rsp
	.seh_stackalloc	48
	.seh_endprologue
	movq	%rcx, 16(%rbp)
	movss	%xmm1, 24(%rbp)
	movss	%xmm2, 32(%rbp)
	movss	%xmm3, 40(%rbp)
	.loc 4 127 0
	movss	48(%rbp), %xmm2
	movss	32(%rbp), %xmm1
	movss	40(%rbp), %xmm0
	movl	24(%rbp), %eax
	movaps	%xmm2, %xmm3
	movaps	%xmm1, %xmm2
	movaps	%xmm0, %xmm1
	movd	%eax, %xmm0
	call	_ZN9rigidbody8distanceEffff
	movd	%xmm0, %eax
	movl	%eax, -4(%rbp)
	.loc 4 128 0
	movl	56(%rbp), %eax
	movd	%eax, %xmm0
	call	_ZN9rigidbody8degtoradEf
	cvtss2sd	%xmm0, %xmm5
	movq	%xmm5, %rax
	movq	%rax, %xmm0
	call	sin
	movq	%xmm0, %rax
	cvtss2sd	-4(%rbp), %xmm0
	movq	%rax, %xmm4
	mulsd	%xmm0, %xmm4
	movapd	%xmm4, %xmm0
	cvtsd2ss	%xmm0, %xmm3
	movss	%xmm3, -8(%rbp)
	.loc 4 129 0
	movl	-8(%rbp), %eax
	movd	%eax, %xmm0
	call	_ZSt3absf
	.loc 4 130 0
	addq	$48, %rsp
	popq	%rbp
	.cfi_restore 6
	.cfi_def_cfa 7, 8
	ret
	.cfi_endproc
.LFE1293:
	.seh_endproc
	.align 2
	.globl	_ZN9rigidbody14distanceToWallEfPi
	.def	_ZN9rigidbody14distanceToWallEfPi;	.scl	2;	.type	32;	.endef
	.seh_proc	_ZN9rigidbody14distanceToWallEfPi
_ZN9rigidbody14distanceToWallEfPi:
.LFB1294:
	.loc 4 133 0
	.cfi_startproc
	pushq	%rbp
	.seh_pushreg	%rbp
	.cfi_def_cfa_offset 16
	.cfi_offset 6, -16
	movq	%rsp, %rbp
	.seh_setframe	%rbp, 0
	.cfi_def_cfa_register 6
	subq	$96, %rsp
	.seh_stackalloc	96
	movaps	%xmm6, -48(%rbp)
	.seh_savexmm	%xmm6, 48
	movaps	%xmm7, -32(%rbp)
	.seh_savexmm	%xmm7, 64
	movaps	%xmm8, -16(%rbp)
	.seh_savexmm	%xmm8, 80
	.cfi_offset 23, -64
	.cfi_offset 24, -48
	.cfi_offset 25, -32
	.seh_endprologue
	movq	%rcx, 16(%rbp)
	movss	%xmm1, 24(%rbp)
	movq	%r8, 32(%rbp)
	.loc 4 134 0
	movss	24(%rbp), %xmm0
	movaps	%xmm0, %xmm1
	movq	16(%rbp), %rcx
	call	_ZN9rigidbody7getWallEf
	movl	%eax, %edx
	movq	32(%rbp), %rax
	movl	%edx, (%rax)
	.loc 4 135 0
	movq	32(%rbp), %rax
	movl	(%rax), %eax
	cmpl	$1, %eax
	je	.L60
	cmpl	$1, %eax
	jg	.L61
	testl	%eax, %eax
	je	.L62
	jmp	.L59
.L61:
	cmpl	$2, %eax
	je	.L63
	cmpl	$3, %eax
	je	.L64
	jmp	.L59
.L62:
	.loc 4 138 0
	movq	16(%rbp), %rcx
	call	_ZN9rigidbody7getMinYEv
	cvtsi2ss	%eax, %xmm6
	movq	16(%rbp), %rax
	movq	24(%rax), %rax
	movq	%rax, %rcx
	call	_ZN7boxsize7getMaxXEv
	cvtsi2ss	%eax, %xmm8
	movq	16(%rbp), %rcx
	call	_ZN9rigidbody7getMinYEv
	cvtsi2ss	%eax, %xmm7
	movq	16(%rbp), %rcx
	call	_ZN9rigidbody7getMaxXEv
	cvtsi2ss	%eax, %xmm1
	movss	24(%rbp), %xmm0
	movss	%xmm0, 40(%rsp)
	movss	%xmm6, 32(%rsp)
	movaps	%xmm8, %xmm3
	movaps	%xmm7, %xmm2
	movq	16(%rbp), %rcx
	call	_ZN9rigidbody14distanceToWallEfffff
	jmp	.L65
.L60:
	.loc 4 140 0
	movq	16(%rbp), %rax
	movq	24(%rax), %rax
	movl	4(%rax), %eax
	cvtsi2ss	%eax, %xmm6
	movq	16(%rbp), %rcx
	call	_ZN9rigidbody7getMinXEv
	cvtsi2ss	%eax, %xmm8
	movq	16(%rbp), %rcx
	call	_ZN9rigidbody7getMinYEv
	cvtsi2ss	%eax, %xmm7
	movq	16(%rbp), %rcx
	call	_ZN9rigidbody7getMinXEv
	cvtsi2ss	%eax, %xmm1
	movss	24(%rbp), %xmm0
	movss	%xmm0, 40(%rsp)
	movss	%xmm6, 32(%rsp)
	movaps	%xmm8, %xmm3
	movaps	%xmm7, %xmm2
	movq	16(%rbp), %rcx
	call	_ZN9rigidbody14distanceToWallEfffff
	jmp	.L65
.L63:
	.loc 4 142 0
	movq	16(%rbp), %rcx
	call	_ZN9rigidbody7getMinYEv
	cvtsi2ss	%eax, %xmm6
	movq	16(%rbp), %rax
	movq	24(%rax), %rax
	movl	(%rax), %eax
	cvtsi2ss	%eax, %xmm8
	movq	16(%rbp), %rcx
	call	_ZN9rigidbody7getMinYEv
	cvtsi2ss	%eax, %xmm7
	movq	16(%rbp), %rcx
	call	_ZN9rigidbody7getMinXEv
	cvtsi2ss	%eax, %xmm1
	movss	24(%rbp), %xmm0
	movss	%xmm0, 40(%rsp)
	movss	%xmm6, 32(%rsp)
	movaps	%xmm8, %xmm3
	movaps	%xmm7, %xmm2
	movq	16(%rbp), %rcx
	call	_ZN9rigidbody14distanceToWallEfffff
	jmp	.L65
.L64:
	.loc 4 144 0
	movq	16(%rbp), %rax
	movq	24(%rax), %rax
	movq	%rax, %rcx
	call	_ZN7boxsize7getMaxYEv
	cvtsi2ss	%eax, %xmm6
	movq	16(%rbp), %rcx
	call	_ZN9rigidbody7getMaxXEv
	cvtsi2ss	%eax, %xmm8
	movq	16(%rbp), %rcx
	call	_ZN9rigidbody7getMaxYEv
	cvtsi2ss	%eax, %xmm7
	movq	16(%rbp), %rcx
	call	_ZN9rigidbody7getMaxXEv
	cvtsi2ss	%eax, %xmm1
	movss	24(%rbp), %xmm0
	movss	%xmm0, 40(%rsp)
	movss	%xmm6, 32(%rsp)
	movaps	%xmm8, %xmm3
	movaps	%xmm7, %xmm2
	movq	16(%rbp), %rcx
	call	_ZN9rigidbody14distanceToWallEfffff
	jmp	.L65
.L59:
	.loc 4 146 0
	movl	$99893, %ecx
	call	exit
.L65:
	.loc 4 149 0
	movaps	-48(%rbp), %xmm6
	movaps	-32(%rbp), %xmm7
	movaps	-16(%rbp), %xmm8
	addq	$96, %rsp
	.cfi_restore 25
	.cfi_restore 24
	.cfi_restore 23
	popq	%rbp
	.cfi_restore 6
	.cfi_def_cfa 7, 8
	ret
	.cfi_endproc
.LFE1294:
	.seh_endproc
	.align 2
	.globl	_ZN9rigidbody7getWallEf
	.def	_ZN9rigidbody7getWallEf;	.scl	2;	.type	32;	.endef
	.seh_proc	_ZN9rigidbody7getWallEf
_ZN9rigidbody7getWallEf:
.LFB1295:
	.loc 4 152 0
	.cfi_startproc
	pushq	%rbp
	.seh_pushreg	%rbp
	.cfi_def_cfa_offset 16
	.cfi_offset 6, -16
	movq	%rsp, %rbp
	.seh_setframe	%rbp, 0
	.cfi_def_cfa_register 6
	subq	$48, %rsp
	.seh_stackalloc	48
	.seh_endprologue
	movq	%rcx, 16(%rbp)
	movss	%xmm1, 24(%rbp)
	.loc 4 154 0
	movss	24(%rbp), %xmm0
	movaps	%xmm0, %xmm1
	movq	16(%rbp), %rcx
	call	_ZN9rigidbody4wrapEf
	movaps	%xmm0, %xmm1
	movq	16(%rbp), %rcx
	call	_ZN9rigidbody11getQuadrantEf
	movl	%eax, -4(%rbp)
	.loc 4 159 0
	movl	-4(%rbp), %eax
	cmpl	$2, %eax
	je	.L68
	cmpl	$2, %eax
	jg	.L69
	cmpl	$1, %eax
	je	.L70
	jmp	.L67
.L69:
	cmpl	$3, %eax
	je	.L71
	cmpl	$4, %eax
	je	.L72
	jmp	.L67
.L70:
	.loc 4 162 0
	movq	16(%rbp), %rcx
	call	_ZN9rigidbody15distanceToSide0Ev
	movd	%xmm0, %eax
	movl	%eax, -8(%rbp)
	.loc 4 163 0
	movq	16(%rbp), %rcx
	call	_ZN9rigidbody15distanceToSide1Ev
	movd	%xmm0, %eax
	movl	%eax, -12(%rbp)
	.loc 4 164 0
	movss	-12(%rbp), %xmm0
	ucomiss	-8(%rbp), %xmm0
	seta	%al
	xorl	$1, %eax
	movzbl	%al, %eax
	jmp	.L66
.L68:
	.loc 4 166 0
	movq	16(%rbp), %rcx
	call	_ZN9rigidbody15distanceToSide1Ev
	movd	%xmm0, %eax
	movl	%eax, -8(%rbp)
	.loc 4 167 0
	movq	16(%rbp), %rcx
	call	_ZN9rigidbody15distanceToSide2Ev
	movd	%xmm0, %eax
	movl	%eax, -12(%rbp)
	.loc 4 168 0
	movss	-12(%rbp), %xmm0
	ucomiss	-8(%rbp), %xmm0
	jbe	.L86
	.loc 4 168 0 is_stmt 0 discriminator 1
	movl	$1, %eax
	jmp	.L66
.L86:
	.loc 4 168 0 discriminator 2
	movl	$2, %eax
	jmp	.L66
.L71:
	.loc 4 170 0 is_stmt 1
	movq	16(%rbp), %rcx
	call	_ZN9rigidbody15distanceToSide2Ev
	movd	%xmm0, %eax
	movl	%eax, -8(%rbp)
	.loc 4 171 0
	movq	16(%rbp), %rcx
	call	_ZN9rigidbody15distanceToSide3Ev
	movd	%xmm0, %eax
	movl	%eax, -12(%rbp)
	.loc 4 172 0
	movss	-12(%rbp), %xmm0
	ucomiss	-8(%rbp), %xmm0
	jbe	.L87
	.loc 4 172 0 is_stmt 0 discriminator 1
	movl	$2, %eax
	jmp	.L66
.L87:
	.loc 4 172 0 discriminator 2
	movl	$3, %eax
	jmp	.L66
.L72:
	.loc 4 174 0 is_stmt 1
	movq	16(%rbp), %rcx
	call	_ZN9rigidbody15distanceToSide3Ev
	movd	%xmm0, %eax
	movl	%eax, -8(%rbp)
	.loc 4 175 0
	movq	16(%rbp), %rcx
	call	_ZN9rigidbody15distanceToSide0Ev
	movd	%xmm0, %eax
	movl	%eax, -12(%rbp)
	.loc 4 176 0
	movss	-12(%rbp), %xmm0
	ucomiss	-8(%rbp), %xmm0
	jbe	.L88
	.loc 4 176 0 is_stmt 0 discriminator 1
	movl	$3, %eax
	jmp	.L66
.L88:
	.loc 4 176 0 discriminator 2
	movl	$0, %eax
	jmp	.L66
.L67:
.L66:
	.loc 4 178 0 is_stmt 1
	addq	$48, %rsp
	popq	%rbp
	.cfi_restore 6
	.cfi_def_cfa 7, 8
	ret
	.cfi_endproc
.LFE1295:
	.seh_endproc
	.align 2
	.globl	_ZN9rigidbody11getQuadrantEf
	.def	_ZN9rigidbody11getQuadrantEf;	.scl	2;	.type	32;	.endef
	.seh_proc	_ZN9rigidbody11getQuadrantEf
_ZN9rigidbody11getQuadrantEf:
.LFB1296:
	.loc 4 181 0
	.cfi_startproc
	pushq	%rbp
	.seh_pushreg	%rbp
	.cfi_def_cfa_offset 16
	.cfi_offset 6, -16
	movq	%rsp, %rbp
	.seh_setframe	%rbp, 0
	.cfi_def_cfa_register 6
	.seh_endprologue
	movq	%rcx, 16(%rbp)
	movss	%xmm1, 24(%rbp)
	.loc 4 182 0
	movss	.LC4(%rip), %xmm0
	ucomiss	24(%rbp), %xmm0
	jbe	.L94
	.loc 4 183 0
	movl	$1, %eax
	jmp	.L92
.L94:
	.loc 4 185 0
	movss	24(%rbp), %xmm0
	movss	.LC5(%rip), %xmm1
	divss	%xmm1, %xmm0
	cvttss2si	%xmm0, %eax
	addl	$1, %eax
.L92:
	.loc 4 186 0
	popq	%rbp
	.cfi_restore 6
	.cfi_def_cfa 7, 8
	ret
	.cfi_endproc
.LFE1296:
	.seh_endproc
	.align 2
	.globl	_ZN9rigidbody4wrapEf
	.def	_ZN9rigidbody4wrapEf;	.scl	2;	.type	32;	.endef
	.seh_proc	_ZN9rigidbody4wrapEf
_ZN9rigidbody4wrapEf:
.LFB1297:
	.loc 4 189 0
	.cfi_startproc
	pushq	%rbp
	.seh_pushreg	%rbp
	.cfi_def_cfa_offset 16
	.cfi_offset 6, -16
	movq	%rsp, %rbp
	.seh_setframe	%rbp, 0
	.cfi_def_cfa_register 6
	.seh_endprologue
	movq	%rcx, 16(%rbp)
	movss	%xmm1, 24(%rbp)
.L98:
	.loc 4 196 0
	movss	24(%rbp), %xmm0
	ucomiss	.LC6(%rip), %xmm0
	jnb	.L102
	jmp	.L96
.L102:
	.loc 4 197 0
	movss	24(%rbp), %xmm0
	movss	.LC6(%rip), %xmm1
	subss	%xmm1, %xmm0
	movss	%xmm0, 24(%rbp)
	.loc 4 196 0
	jmp	.L98
.L96:
	.loc 4 199 0
	pxor	%xmm0, %xmm0
	ucomiss	24(%rbp), %xmm0
	jbe	.L104
	.loc 4 201 0
	movss	24(%rbp), %xmm1
	movss	.LC6(%rip), %xmm0
	addss	%xmm1, %xmm0
	movss	%xmm0, 24(%rbp)
	.loc 4 199 0
	jmp	.L96
.L104:
	.loc 4 203 0
	movss	24(%rbp), %xmm0
	.loc 4 204 0
	popq	%rbp
	.cfi_restore 6
	.cfi_def_cfa 7, 8
	ret
	.cfi_endproc
.LFE1297:
	.seh_endproc
	.align 2
	.globl	_ZN9rigidbody8distanceEffff
	.def	_ZN9rigidbody8distanceEffff;	.scl	2;	.type	32;	.endef
	.seh_proc	_ZN9rigidbody8distanceEffff
_ZN9rigidbody8distanceEffff:
.LFB1298:
	.loc 4 207 0
	.cfi_startproc
	pushq	%rbp
	.seh_pushreg	%rbp
	.cfi_def_cfa_offset 16
	.cfi_offset 6, -16
	movq	%rsp, %rbp
	.seh_setframe	%rbp, 0
	.cfi_def_cfa_register 6
	subq	$48, %rsp
	.seh_stackalloc	48
	.seh_endprologue
	movss	%xmm0, 16(%rbp)
	movss	%xmm1, 24(%rbp)
	movss	%xmm2, 32(%rbp)
	movss	%xmm3, 40(%rbp)
	.loc 4 208 0
	movss	24(%rbp), %xmm0
	movaps	%xmm0, %xmm1
	subss	16(%rbp), %xmm1
	movss	24(%rbp), %xmm0
	subss	16(%rbp), %xmm0
	mulss	%xmm0, %xmm1
	movss	40(%rbp), %xmm0
	movaps	%xmm0, %xmm2
	subss	32(%rbp), %xmm2
	movss	40(%rbp), %xmm0
	subss	32(%rbp), %xmm0
	mulss	%xmm2, %xmm0
	addss	%xmm1, %xmm0
	movss	%xmm0, -4(%rbp)
	.loc 4 209 0
	cvtss2sd	-4(%rbp), %xmm4
	movq	%xmm4, %rax
	movq	%rax, %xmm0
	call	sqrt
	movq	%xmm0, %rax
	movq	%rax, %xmm5
	cvtsd2ss	%xmm5, %xmm0
	.loc 4 210 0
	addq	$48, %rsp
	popq	%rbp
	.cfi_restore 6
	.cfi_def_cfa 7, 8
	ret
	.cfi_endproc
.LFE1298:
	.seh_endproc
	.section .rdata,"dr"
	.align 16
.LC0:
	.long	2147483647
	.long	0
	.long	0
	.long	0
	.align 4
.LC1:
	.long	1078530011
	.align 4
.LC2:
	.long	1127481344
	.align 4
.LC4:
	.long	1065353216
	.align 4
.LC5:
	.long	1119092736
	.align 4
.LC6:
	.long	1135869952
	.text
.Letext0:
	.file 5 "c:/users/ian/downloads/pocketcpp-0.7/pocketcpp/mingw/include/c++/7.2.0/cmath"
	.file 6 "c:/users/ian/downloads/pocketcpp-0.7/pocketcpp/mingw/include/c++/7.2.0/type_traits"
	.file 7 "c:/users/ian/downloads/pocketcpp-0.7/pocketcpp/mingw/include/c++/7.2.0/x86_64-w64-mingw32/bits/c++config.h"
	.file 8 "c:/users/ian/downloads/pocketcpp-0.7/pocketcpp/mingw/include/c++/7.2.0/bits/stl_pair.h"
	.file 9 "c:/users/ian/downloads/pocketcpp-0.7/pocketcpp/mingw/include/c++/7.2.0/debug/debug.h"
	.file 10 "c:/users/ian/downloads/pocketcpp-0.7/pocketcpp/mingw/include/c++/7.2.0/cwchar"
	.file 11 "c:/users/ian/downloads/pocketcpp-0.7/pocketcpp/mingw/include/c++/7.2.0/cstdint"
	.file 12 "<built-in>"
	.file 13 "c:/users/ian/downloads/pocketcpp-0.7/pocketcpp/mingw/include/c++/7.2.0/bits/exception_ptr.h"
	.file 14 "c:/users/ian/downloads/pocketcpp-0.7/pocketcpp/mingw/include/c++/7.2.0/new"
	.file 15 "c:/users/ian/downloads/pocketcpp-0.7/pocketcpp/mingw/include/c++/7.2.0/clocale"
	.file 16 "c:/users/ian/downloads/pocketcpp-0.7/pocketcpp/mingw/include/c++/7.2.0/cstdlib"
	.file 17 "c:/users/ian/downloads/pocketcpp-0.7/pocketcpp/mingw/include/c++/7.2.0/cstdio"
	.file 18 "c:/users/ian/downloads/pocketcpp-0.7/pocketcpp/mingw/include/c++/7.2.0/bits/basic_string.h"
	.file 19 "c:/users/ian/downloads/pocketcpp-0.7/pocketcpp/mingw/include/c++/7.2.0/bits/predefined_ops.h"
	.file 20 "c:/users/ian/downloads/pocketcpp-0.7/pocketcpp/mingw/include/c++/7.2.0/ext/new_allocator.h"
	.file 21 "c:/users/ian/downloads/pocketcpp-0.7/pocketcpp/mingw/include/c++/7.2.0/ext/numeric_traits.h"
	.file 22 "c:/users/ian/downloads/pocketcpp-0.7/pocketcpp/mingw/x86_64-w64-mingw32/include/crtdefs.h"
	.file 23 "c:/users/ian/downloads/pocketcpp-0.7/pocketcpp/mingw/x86_64-w64-mingw32/include/locale.h"
	.file 24 "c:/users/ian/downloads/pocketcpp-0.7/pocketcpp/mingw/x86_64-w64-mingw32/include/math.h"
	.file 25 "c:/users/ian/downloads/pocketcpp-0.7/pocketcpp/mingw/x86_64-w64-mingw32/include/stdlib.h"
	.file 26 "c:/users/ian/downloads/pocketcpp-0.7/pocketcpp/mingw/x86_64-w64-mingw32/include/malloc.h"
	.file 27 "c:/users/ian/downloads/pocketcpp-0.7/pocketcpp/mingw/x86_64-w64-mingw32/include/wchar.h"
	.file 28 "c:/users/ian/downloads/pocketcpp-0.7/pocketcpp/mingw/x86_64-w64-mingw32/include/swprintf.inl"
	.file 29 "c:/users/ian/downloads/pocketcpp-0.7/pocketcpp/mingw/x86_64-w64-mingw32/include/stdint.h"
	.file 30 "c:/users/ian/downloads/pocketcpp-0.7/pocketcpp/mingw/x86_64-w64-mingw32/include/stdio.h"
	.file 31 "c:/users/ian/downloads/pocketcpp-0.7/pocketcpp/mingw/x86_64-w64-mingw32/include/ctype.h"
	.file 32 "c:/users/ian/downloads/pocketcpp-0.7/pocketcpp/mingw/include/c++/7.2.0/x86_64-w64-mingw32/bits/gthr-default.h"
	.file 33 "c:/users/ian/downloads/pocketcpp-0.7/pocketcpp/mingw/include/c++/7.2.0/stdlib.h"