	.file	"rigidbox.cpp"
	.text
.Ltext0:
	.cfi_sections	.debug_frame
	.section	.text$_ZN7boxsizeC2Ev,"x"
	.linkonce discard
	.align 2
	.globl	_ZN7boxsizeC2Ev
	.def	_ZN7boxsizeC2Ev;	.scl	2;	.type	32;	.endef
	.seh_proc	_ZN7boxsizeC2Ev
_ZN7boxsizeC2Ev:
.LFB241:
	.file 1 "boxsize.h"
	.loc 1 19 0
	.cfi_startproc
	pushq	%rbp
	.seh_pushreg	%rbp
	.cfi_def_cfa_offset 16
	.cfi_offset 6, -16
	movq	%rsp, %rbp
	.seh_setframe	%rbp, 0
	.cfi_def_cfa_register 6
	.seh_endprologue
	movq	%rcx, 16(%rbp)
	.loc 1 21 0
	nop
	popq	%rbp
	.cfi_restore 6
	.cfi_def_cfa 7, 8
	ret
	.cfi_endproc
.LFE241:
	.seh_endproc
	.section	.text$_ZN7boxsize10charactersEv,"x"
	.linkonce discard
	.align 2
	.globl	_ZN7boxsize10charactersEv
	.def	_ZN7boxsize10charactersEv;	.scl	2;	.type	32;	.endef
	.seh_proc	_ZN7boxsize10charactersEv
_ZN7boxsize10charactersEv:
.LFB247:
	.loc 1 30 0
	.cfi_startproc
	pushq	%rbp
	.seh_pushreg	%rbp
	.cfi_def_cfa_offset 16
	.cfi_offset 6, -16
	movq	%rsp, %rbp
	.seh_setframe	%rbp, 0
	.cfi_def_cfa_register 6
	.seh_endprologue
	movq	%rcx, 16(%rbp)
	.loc 1 31 0
	movq	16(%rbp), %rax
	movl	8(%rax), %edx
	movq	16(%rbp), %rax
	movl	12(%rax), %eax
	imull	%edx, %eax
	.loc 1 32 0
	popq	%rbp
	.cfi_restore 6
	.cfi_def_cfa 7, 8
	ret
	.cfi_endproc
.LFE247:
	.seh_endproc
	.section	.text$_ZN7boxsize3getEii,"x"
	.linkonce discard
	.align 2
	.globl	_ZN7boxsize3getEii
	.def	_ZN7boxsize3getEii;	.scl	2;	.type	32;	.endef
	.seh_proc	_ZN7boxsize3getEii
_ZN7boxsize3getEii:
.LFB248:
	.loc 1 33 0
	.cfi_startproc
	pushq	%rbp
	.seh_pushreg	%rbp
	.cfi_def_cfa_offset 16
	.cfi_offset 6, -16
	movq	%rsp, %rbp
	.seh_setframe	%rbp, 0
	.cfi_def_cfa_register 6
	.seh_endprologue
	movq	%rcx, 16(%rbp)
	movl	%edx, 24(%rbp)
	movl	%r8d, 32(%rbp)
	.loc 1 34 0
	movq	16(%rbp), %rax
	movl	8(%rax), %eax
	imull	32(%rbp), %eax
	movl	%eax, %edx
	movl	24(%rbp), %eax
	addl	%edx, %eax
	.loc 1 35 0
	popq	%rbp
	.cfi_restore 6
	.cfi_def_cfa 7, 8
	ret
	.cfi_endproc
.LFE248:
	.seh_endproc
	.section .rdata,"dr"
_ZStL19piecewise_construct:
	.space 1
	.section	.text$_ZN3boxC1ER7boxsizePcib,"x"
	.linkonce discard
	.align 2
	.globl	_ZN3boxC1ER7boxsizePcib
	.def	_ZN3boxC1ER7boxsizePcib;	.scl	2;	.type	32;	.endef
	.seh_proc	_ZN3boxC1ER7boxsizePcib
_ZN3boxC1ER7boxsizePcib:
.LFB1241:
	.file 2 "box.h"
	.loc 2 10 0
	.cfi_startproc
	pushq	%rbp
	.seh_pushreg	%rbp
	.cfi_def_cfa_offset 16
	.cfi_offset 6, -16
	movq	%rsp, %rbp
	.seh_setframe	%rbp, 0
	.cfi_def_cfa_register 6
	subq	$48, %rsp
	.seh_stackalloc	48
	.seh_endprologue
	movq	%rcx, 16(%rbp)
	movq	%rdx, 24(%rbp)
	movq	%r8, 32(%rbp)
	movl	%r9d, 40(%rbp)
	movl	48(%rbp), %eax
	movb	%al, -4(%rbp)
.LBB2:
	.loc 2 10 0
	movq	16(%rbp), %rcx
	movq	24(%rbp), %rax
	movq	8(%rax), %rdx
	movq	(%rax), %rax
	movq	%rax, (%rcx)
	movq	%rdx, 8(%rcx)
	.loc 2 11 0
	movq	16(%rbp), %rax
	movl	40(%rbp), %edx
	movl	%edx, 32(%rax)
	.loc 2 12 0
	movq	16(%rbp), %rax
	movq	32(%rbp), %rdx
	movq	%rdx, 40(%rax)
	.loc 2 16 0
	movq	16(%rbp), %rax
	movb	$1, 17(%rax)
	.loc 2 17 0
	movq	16(%rbp), %rax
	movb	$0, 16(%rax)
	.loc 2 18 0
	movq	16(%rbp), %rax
	movb	$1, 18(%rax)
	.loc 2 19 0
	movzbl	-4(%rbp), %eax
	movl	%eax, %edx
	movq	16(%rbp), %rcx
	call	_ZN3box8setAlphaEb
	.loc 2 21 0
	movq	16(%rbp), %rcx
	call	_ZN3box5clearEv
.LBE2:
	.loc 2 22 0
	nop
	addq	$48, %rsp
	popq	%rbp
	.cfi_restore 6
	.cfi_def_cfa 7, 8
	ret
	.cfi_endproc
.LFE1241:
	.seh_endproc
	.section	.text$_ZN3boxC1Ev,"x"
	.linkonce discard
	.align 2
	.globl	_ZN3boxC1Ev
	.def	_ZN3boxC1Ev;	.scl	2;	.type	32;	.endef
	.seh_proc	_ZN3boxC1Ev
_ZN3boxC1Ev:
.LFB1244:
	.loc 2 24 0
	.cfi_startproc
	pushq	%rbp
	.seh_pushreg	%rbp
	.cfi_def_cfa_offset 16
	.cfi_offset 6, -16
	movq	%rsp, %rbp
	.seh_setframe	%rbp, 0
	.cfi_def_cfa_register 6
	subq	$32, %rsp
	.seh_stackalloc	32
	.seh_endprologue
	movq	%rcx, 16(%rbp)
.LBB3:
	.loc 2 25 0
	movq	16(%rbp), %rax
	movq	%rax, %rcx
	call	_ZN7boxsizeC2Ev
.LBE3:
	.loc 2 28 0
	nop
	addq	$32, %rsp
	popq	%rbp
	.cfi_restore 6
	.cfi_def_cfa 7, 8
	ret
	.cfi_endproc
.LFE1244:
	.seh_endproc
	.section	.text$_ZN3box8setAlphaEb,"x"
	.linkonce discard
	.align 2
	.globl	_ZN3box8setAlphaEb
	.def	_ZN3box8setAlphaEb;	.scl	2;	.type	32;	.endef
	.seh_proc	_ZN3box8setAlphaEb
_ZN3box8setAlphaEb:
.LFB1249:
	.loc 2 51 0
	.cfi_startproc
	pushq	%rbp
	.seh_pushreg	%rbp
	.cfi_def_cfa_offset 16
	.cfi_offset 6, -16
	movq	%rsp, %rbp
	.seh_setframe	%rbp, 0
	.cfi_def_cfa_register 6
	.seh_endprologue
	movq	%rcx, 16(%rbp)
	movl	%edx, %eax
	movb	%al, 24(%rbp)
.L10:
	.loc 2 52 0
	movq	16(%rbp), %rax
	movzbl	16(%rax), %eax
	testb	%al, %al
	je	.L9
	jmp	.L10
.L9:
	.loc 2 53 0
	movq	16(%rbp), %rax
	movb	$1, 16(%rax)
	.loc 2 54 0
	movq	16(%rbp), %rax
	movzbl	24(%rbp), %edx
	movb	%dl, 49(%rax)
	.loc 2 55 0
	cmpb	$0, 24(%rbp)
	je	.L11
	.loc 2 56 0
	movq	16(%rbp), %rax
	movb	$0, 48(%rax)
	jmp	.L12
.L11:
	.loc 2 60 0
	movq	16(%rbp), %rax
	movb	$32, 48(%rax)
.L12:
	.loc 2 62 0
	movq	16(%rbp), %rax
	movb	$0, 16(%rax)
	.loc 2 63 0
	nop
	popq	%rbp
	.cfi_restore 6
	.cfi_def_cfa 7, 8
	ret
	.cfi_endproc
.LFE1249:
	.seh_endproc
	.section	.text$_ZN3box5clearEv,"x"
	.linkonce discard
	.align 2
	.globl	_ZN3box5clearEv
	.def	_ZN3box5clearEv;	.scl	2;	.type	32;	.endef
	.seh_proc	_ZN3box5clearEv
_ZN3box5clearEv:
.LFB1250:
	.loc 2 65 0
	.cfi_startproc
	pushq	%rbp
	.seh_pushreg	%rbp
	.cfi_def_cfa_offset 16
	.cfi_offset 6, -16
	movq	%rsp, %rbp
	.seh_setframe	%rbp, 0
	.cfi_def_cfa_register 6
	subq	$48, %rsp
	.seh_stackalloc	48
	.seh_endprologue
	movq	%rcx, 16(%rbp)
.LBB4:
	.loc 2 66 0
	movq	16(%rbp), %rax
	movzbl	18(%rax), %eax
	testb	%al, %al
	je	.L19
.L16:
.LBB5:
	.loc 2 67 0
	movq	16(%rbp), %rax
	movzbl	16(%rax), %eax
	testb	%al, %al
	je	.L15
	jmp	.L16
.L15:
	.loc 2 68 0
	movq	16(%rbp), %rax
	movb	$1, 16(%rax)
	.loc 2 69 0
	movq	16(%rbp), %rax
	movq	%rax, %rcx
	call	_ZN7boxsize10charactersEv
	movl	%eax, -8(%rbp)
.LBB6:
	.loc 2 70 0
	movl	$0, -4(%rbp)
.L18:
	.loc 2 70 0 is_stmt 0 discriminator 3
	movl	-4(%rbp), %eax
	cmpl	-8(%rbp), %eax
	jge	.L17
	.loc 2 71 0 is_stmt 1 discriminator 2
	movq	16(%rbp), %rax
	movq	40(%rax), %rdx
	movl	-4(%rbp), %eax
	cltq
	addq	%rax, %rdx
	movq	16(%rbp), %rax
	movzbl	48(%rax), %eax
	movb	%al, (%rdx)
	.loc 2 70 0 discriminator 2
	addl	$1, -4(%rbp)
	jmp	.L18
.L17:
.LBE6:
	.loc 2 73 0
	movq	16(%rbp), %rax
	movb	$0, 16(%rax)
.L19:
.LBE5:
.LBE4:
	.loc 2 75 0
	nop
	addq	$48, %rsp
	popq	%rbp
	.cfi_restore 6
	.cfi_def_cfa 7, 8
	ret
	.cfi_endproc
.LFE1250:
	.seh_endproc
	.section	.text$_ZN5pixel3sumEv,"x"
	.linkonce discard
	.align 2
	.globl	_ZN5pixel3sumEv
	.def	_ZN5pixel3sumEv;	.scl	2;	.type	32;	.endef
	.seh_proc	_ZN5pixel3sumEv
_ZN5pixel3sumEv:
.LFB1623:
	.file 3 "pixel.h"
	.loc 3 11 0
	.cfi_startproc
	pushq	%rbp
	.seh_pushreg	%rbp
	.cfi_def_cfa_offset 16
	.cfi_offset 6, -16
	movq	%rsp, %rbp
	.seh_setframe	%rbp, 0
	.cfi_def_cfa_register 6
	.seh_endprologue
	movq	%rcx, 16(%rbp)
	.loc 3 12 0
	movq	16(%rbp), %rax
	movzbl	(%rax), %eax
	movzbl	%al, %edx
	movq	16(%rbp), %rax
	movzbl	1(%rax), %eax
	movzbl	%al, %eax
	addl	%eax, %edx
	movq	16(%rbp), %rax
	movzbl	2(%rax), %eax
	movzbl	%al, %eax
	addl	%edx, %eax
	.loc 3 13 0
	popq	%rbp
	.cfi_restore 6
	.cfi_def_cfa 7, 8
	ret
	.cfi_endproc
.LFE1623:
	.seh_endproc
	.section	.text$_ZN5pixel5valueEj,"x"
	.linkonce discard
	.align 2
	.globl	_ZN5pixel5valueEj
	.def	_ZN5pixel5valueEj;	.scl	2;	.type	32;	.endef
	.seh_proc	_ZN5pixel5valueEj
_ZN5pixel5valueEj:
.LFB1625:
	.loc 3 17 0
	.cfi_startproc
	pushq	%rbp
	.seh_pushreg	%rbp
	.cfi_def_cfa_offset 16
	.cfi_offset 6, -16
	movq	%rsp, %rbp
	.seh_setframe	%rbp, 0
	.cfi_def_cfa_register 6
	.seh_endprologue
	movq	%rcx, 16(%rbp)
	movl	%edx, 24(%rbp)
	.loc 3 18 0
	movl	24(%rbp), %eax
	testq	%rax, %rax
	js	.L23
	cvtsi2ssq	%rax, %xmm0
	jmp	.L24
.L23:
	movq	%rax, %rdx
	shrq	%rdx
	andl	$1, %eax
	orq	%rax, %rdx
	cvtsi2ssq	%rdx, %xmm0
	addss	%xmm0, %xmm0
.L24:
	movss	.LC0(%rip), %xmm1
	divss	%xmm1, %xmm0
	movaps	%xmm0, %xmm1
	movq	16(%rbp), %rax
	movzbl	3(%rax), %eax
	movzbl	%al, %eax
	cvtsi2ss	%eax, %xmm0
	mulss	%xmm1, %xmm0
	.loc 3 19 0
	popq	%rbp
	.cfi_restore 6
	.cfi_def_cfa 7, 8
	ret
	.cfi_endproc
.LFE1625:
	.seh_endproc
	.section	.text$_ZN5pixel8negativeEv,"x"
	.linkonce discard
	.align 2
	.globl	_ZN5pixel8negativeEv
	.def	_ZN5pixel8negativeEv;	.scl	2;	.type	32;	.endef
	.seh_proc	_ZN5pixel8negativeEv
_ZN5pixel8negativeEv:
.LFB1626:
	.loc 3 20 0
	.cfi_startproc
	pushq	%rbp
	.seh_pushreg	%rbp
	.cfi_def_cfa_offset 16
	.cfi_offset 6, -16
	movq	%rsp, %rbp
	.seh_setframe	%rbp, 0
	.cfi_def_cfa_register 6
	subq	$32, %rsp
	.seh_stackalloc	32
	.seh_endprologue
	movq	%rcx, 16(%rbp)
	.loc 3 21 0
	movq	16(%rbp), %rcx
	call	_ZN5pixel3sumEv
	movl	%eax, %eax
	testq	%rax, %rax
	js	.L27
	cvtsi2ssq	%rax, %xmm0
	jmp	.L28
.L27:
	movq	%rax, %rdx
	shrq	%rdx
	andl	$1, %eax
	orq	%rax, %rdx
	cvtsi2ssq	%rdx, %xmm0
	addss	%xmm0, %xmm0
.L28:
	movss	.LC0(%rip), %xmm1
	subss	%xmm0, %xmm1
	movaps	%xmm1, %xmm0
	cvttss2siq	%xmm0, %rax
	.loc 3 22 0
	addq	$32, %rsp
	popq	%rbp
	.cfi_restore 6
	.cfi_def_cfa 7, 8
	ret
	.cfi_endproc
.LFE1626:
	.seh_endproc
	.section	.text$_ZN5pixel13negativeValueEv,"x"
	.linkonce discard
	.align 2
	.globl	_ZN5pixel13negativeValueEv
	.def	_ZN5pixel13negativeValueEv;	.scl	2;	.type	32;	.endef
	.seh_proc	_ZN5pixel13negativeValueEv
_ZN5pixel13negativeValueEv:
.LFB1627:
	.loc 3 23 0
	.cfi_startproc
	pushq	%rbp
	.seh_pushreg	%rbp
	.cfi_def_cfa_offset 16
	.cfi_offset 6, -16
	movq	%rsp, %rbp
	.seh_setframe	%rbp, 0
	.cfi_def_cfa_register 6
	subq	$32, %rsp
	.seh_stackalloc	32
	.seh_endprologue
	movq	%rcx, 16(%rbp)
	.loc 3 24 0
	movq	16(%rbp), %rcx
	call	_ZN5pixel8negativeEv
	movl	%eax, %edx
	movq	16(%rbp), %rcx
	call	_ZN5pixel5valueEj
	.loc 3 25 0
	addq	$32, %rsp
	popq	%rbp
	.cfi_restore 6
	.cfi_def_cfa 7, 8
	ret
	.cfi_endproc
.LFE1627:
	.seh_endproc
.lcomm _ZStL8__ioinit,1,1
	.text
	.align 2
	.globl	_ZN8rigidboxC2EffPcP7boxsizeS2_b
	.def	_ZN8rigidboxC2EffPcP7boxsizeS2_b;	.scl	2;	.type	32;	.endef
	.seh_proc	_ZN8rigidboxC2EffPcP7boxsizeS2_b
_ZN8rigidboxC2EffPcP7boxsizeS2_b:
.LFB2148:
	.file 4 "rigidbox.cpp"
	.loc 4 19 0
	.cfi_startproc
	pushq	%rbp
	.seh_pushreg	%rbp
	.cfi_def_cfa_offset 16
	.cfi_offset 6, -16
	pushq	%rsi
	.seh_pushreg	%rsi
	.cfi_def_cfa_offset 24
	.cfi_offset 4, -24
	pushq	%rbx
	.seh_pushreg	%rbx
	.cfi_def_cfa_offset 32
	.cfi_offset 3, -32
	movq	%rsp, %rbp
	.seh_setframe	%rbp, 0
	.cfi_def_cfa_register 6
	subq	$64, %rsp
	.seh_stackalloc	64
	.seh_endprologue
	movq	%rcx, 32(%rbp)
	movss	%xmm1, 40(%rbp)
	movss	%xmm2, 48(%rbp)
	movq	%r9, 56(%rbp)
	movl	80(%rbp), %eax
	movb	%al, -4(%rbp)
.LBB7:
	.loc 4 21 0
	movq	32(%rbp), %rax
	movq	64(%rbp), %rcx
	movss	48(%rbp), %xmm1
	movss	40(%rbp), %xmm0
	movq	72(%rbp), %rdx
	movq	%rdx, 32(%rsp)
	movq	%rcx, %r9
	movaps	%xmm1, %xmm2
	movaps	%xmm0, %xmm1
	movq	%rax, %rcx
	call	_ZN9rigidbodyC2EffP7boxsizeS1_
	movq	32(%rbp), %rax
	leaq	48(%rax), %rsi
	movzbl	-4(%rbp), %ebx
	movq	64(%rbp), %rax
	movq	%rax, %rcx
	call	_ZN7boxsize10charactersEv
	movl	%eax, %ecx
	movq	56(%rbp), %rdx
	movq	64(%rbp), %rax
	movl	%ebx, 32(%rsp)
	movl	%ecx, %r9d
	movq	%rdx, %r8
	movq	%rax, %rdx
	movq	%rsi, %rcx
	call	_ZN3boxC1ER7boxsizePcib
	.loc 4 23 0
	movq	32(%rbp), %rax
	movq	56(%rbp), %rdx
	movq	%rdx, 104(%rax)
.LBE7:
	.loc 4 24 0
	nop
	addq	$64, %rsp
	popq	%rbx
	.cfi_restore 3
	popq	%rsi
	.cfi_restore 4
	popq	%rbp
	.cfi_restore 6
	.cfi_def_cfa 7, 24
	ret
	.cfi_endproc
.LFE2148:
	.seh_endproc
	.globl	_ZN8rigidboxC1EffPcP7boxsizeS2_b
	.def	_ZN8rigidboxC1EffPcP7boxsizeS2_b;	.scl	2;	.type	32;	.endef
	.set	_ZN8rigidboxC1EffPcP7boxsizeS2_b,_ZN8rigidboxC2EffPcP7boxsizeS2_b
	.align 2
	.globl	_ZN8rigidboxC2Ev
	.def	_ZN8rigidboxC2Ev;	.scl	2;	.type	32;	.endef
	.seh_proc	_ZN8rigidboxC2Ev
_ZN8rigidboxC2Ev:
.LFB2151:
	.loc 4 26 0
	.cfi_startproc
	pushq	%rbp
	.seh_pushreg	%rbp
	.cfi_def_cfa_offset 16
	.cfi_offset 6, -16
	movq	%rsp, %rbp
	.seh_setframe	%rbp, 0
	.cfi_def_cfa_register 6
	subq	$32, %rsp
	.seh_stackalloc	32
	.seh_endprologue
	movq	%rcx, 16(%rbp)
.LBB8:
	.loc 4 27 0
	movq	16(%rbp), %rax
	movq	%rax, %rcx
	call	_ZN9rigidbodyC2Ev
	movq	16(%rbp), %rax
	addq	$48, %rax
	movq	%rax, %rcx
	call	_ZN3boxC1Ev
.LBE8:
	.loc 4 29 0
	nop
	addq	$32, %rsp
	popq	%rbp
	.cfi_restore 6
	.cfi_def_cfa 7, 8
	ret
	.cfi_endproc
.LFE2151:
	.seh_endproc
	.globl	_ZN8rigidboxC1Ev
	.def	_ZN8rigidboxC1Ev;	.scl	2;	.type	32;	.endef
	.set	_ZN8rigidboxC1Ev,_ZN8rigidboxC2Ev
	.align 2
	.globl	_ZN8rigidboxD2Ev
	.def	_ZN8rigidboxD2Ev;	.scl	2;	.type	32;	.endef
	.seh_proc	_ZN8rigidboxD2Ev
_ZN8rigidboxD2Ev:
.LFB2154:
	.loc 4 31 0
	.cfi_startproc
	pushq	%rbp
	.seh_pushreg	%rbp
	.cfi_def_cfa_offset 16
	.cfi_offset 6, -16
	movq	%rsp, %rbp
	.seh_setframe	%rbp, 0
	.cfi_def_cfa_register 6
	.seh_endprologue
	movq	%rcx, 16(%rbp)
	.loc 4 33 0
	nop
	popq	%rbp
	.cfi_restore 6
	.cfi_def_cfa 7, 8
	ret
	.cfi_endproc
.LFE2154:
	.seh_endproc
	.globl	_ZN8rigidboxD1Ev
	.def	_ZN8rigidboxD1Ev;	.scl	2;	.type	32;	.endef
	.set	_ZN8rigidboxD1Ev,_ZN8rigidboxD2Ev
	.align 2
	.globl	_ZN8rigidbox11sampleImageER3png
	.def	_ZN8rigidbox11sampleImageER3png;	.scl	2;	.type	32;	.endef
	.seh_proc	_ZN8rigidbox11sampleImageER3png
_ZN8rigidbox11sampleImageER3png:
.LFB2156:
	.loc 4 36 0
	.cfi_startproc
	pushq	%rbp
	.seh_pushreg	%rbp
	.cfi_def_cfa_offset 16
	.cfi_offset 6, -16
	pushq	%rsi
	.seh_pushreg	%rsi
	.cfi_def_cfa_offset 24
	.cfi_offset 4, -24
	pushq	%rbx
	.seh_pushreg	%rbx
	.cfi_def_cfa_offset 32
	.cfi_offset 3, -32
	movq	%rsp, %rbp
	.seh_setframe	%rbp, 0
	.cfi_def_cfa_register 6
	subq	$48, %rsp
	.seh_stackalloc	48
	.seh_endprologue
	movq	%rcx, 32(%rbp)
	movq	%rdx, 40(%rbp)
.LBB9:
	.loc 4 37 0
	movl	$0, -4(%rbp)
.L69:
	.loc 4 37 0 is_stmt 0 discriminator 1
	movq	32(%rbp), %rax
	movl	60(%rax), %eax
	cmpl	%eax, -4(%rbp)
	jge	.L89
.LBB10:
.LBB11:
	.loc 4 38 0 is_stmt 1
	movl	$0, -8(%rbp)
.L68:
	.loc 4 38 0 is_stmt 0 discriminator 2
	movq	32(%rbp), %rax
	movl	56(%rax), %eax
	cmpl	%eax, -8(%rbp)
	jge	.L37
	.loc 4 39 0 is_stmt 1
	movq	32(%rbp), %rax
	leaq	48(%rax), %r8
	movl	-4(%rbp), %ecx
	movl	-8(%rbp), %edx
	movq	40(%rbp), %rax
	movq	%r8, %r9
	movl	%ecx, %r8d
	movq	%rax, %rcx
	call	_ZN3png9getSampleEiiP7boxsize
	movq	%rax, %rcx
	call	_ZN5pixel13negativeValueEv
	ucomiss	.LC1(%rip), %xmm0
	jbe	.L80
	.loc 4 39 0 is_stmt 0 discriminator 1
	movl	$64, %ebx
	jmp	.L40
.L80:
	.loc 4 39 0 discriminator 2
	movq	32(%rbp), %rax
	leaq	48(%rax), %r8
	movl	-4(%rbp), %ecx
	movl	-8(%rbp), %edx
	movq	40(%rbp), %rax
	movq	%r8, %r9
	movl	%ecx, %r8d
	movq	%rax, %rcx
	call	_ZN3png9getSampleEiiP7boxsize
	movq	%rax, %rcx
	call	_ZN5pixel13negativeValueEv
	ucomiss	.LC2(%rip), %xmm0
	jbe	.L81
	.loc 4 39 0 discriminator 4
	movl	$37, %ebx
	jmp	.L40
.L81:
	.loc 4 39 0 discriminator 5
	movq	32(%rbp), %rax
	leaq	48(%rax), %r8
	movl	-4(%rbp), %ecx
	movl	-8(%rbp), %edx
	movq	40(%rbp), %rax
	movq	%r8, %r9
	movl	%ecx, %r8d
	movq	%rax, %rcx
	call	_ZN3png9getSampleEiiP7boxsize
	movq	%rax, %rcx
	call	_ZN5pixel13negativeValueEv
	ucomiss	.LC3(%rip), %xmm0
	jbe	.L82
	.loc 4 39 0 discriminator 7
	movl	$35, %ebx
	jmp	.L40
.L82:
	.loc 4 39 0 discriminator 8
	movq	32(%rbp), %rax
	leaq	48(%rax), %r8
	movl	-4(%rbp), %ecx
	movl	-8(%rbp), %edx
	movq	40(%rbp), %rax
	movq	%r8, %r9
	movl	%ecx, %r8d
	movq	%rax, %rcx
	call	_ZN3png9getSampleEiiP7boxsize
	movq	%rax, %rcx
	call	_ZN5pixel13negativeValueEv
	ucomiss	.LC4(%rip), %xmm0
	jbe	.L83
	.loc 4 39 0 discriminator 10
	movl	$42, %ebx
	jmp	.L40
.L83:
	.loc 4 39 0 discriminator 11
	movq	32(%rbp), %rax
	leaq	48(%rax), %r8
	movl	-4(%rbp), %ecx
	movl	-8(%rbp), %edx
	movq	40(%rbp), %rax
	movq	%r8, %r9
	movl	%ecx, %r8d
	movq	%rax, %rcx
	call	_ZN3png9getSampleEiiP7boxsize
	movq	%rax, %rcx
	call	_ZN5pixel13negativeValueEv
	ucomiss	.LC5(%rip), %xmm0
	jbe	.L84
	.loc 4 39 0 discriminator 13
	movl	$43, %ebx
	jmp	.L40
.L84:
	.loc 4 39 0 discriminator 14
	movq	32(%rbp), %rax
	leaq	48(%rax), %r8
	movl	-4(%rbp), %ecx
	movl	-8(%rbp), %edx
	movq	40(%rbp), %rax
	movq	%r8, %r9
	movl	%ecx, %r8d
	movq	%rax, %rcx
	call	_ZN3png9getSampleEiiP7boxsize
	movq	%rax, %rcx
	call	_ZN5pixel13negativeValueEv
	ucomiss	.LC6(%rip), %xmm0
	jbe	.L85
	.loc 4 39 0 discriminator 16
	movl	$61, %ebx
	jmp	.L40
.L85:
	.loc 4 39 0 discriminator 17
	movq	32(%rbp), %rax
	leaq	48(%rax), %r8
	movl	-4(%rbp), %ecx
	movl	-8(%rbp), %edx
	movq	40(%rbp), %rax
	movq	%r8, %r9
	movl	%ecx, %r8d
	movq	%rax, %rcx
	call	_ZN3png9getSampleEiiP7boxsize
	movq	%rax, %rcx
	call	_ZN5pixel13negativeValueEv
	ucomiss	.LC7(%rip), %xmm0
	jbe	.L86
	.loc 4 39 0 discriminator 19
	movl	$45, %ebx
	jmp	.L40
.L86:
	.loc 4 39 0 discriminator 20
	movq	32(%rbp), %rax
	leaq	48(%rax), %r8
	movl	-4(%rbp), %ecx
	movl	-8(%rbp), %edx
	movq	40(%rbp), %rax
	movq	%r8, %r9
	movl	%ecx, %r8d
	movq	%rax, %rcx
	call	_ZN3png9getSampleEiiP7boxsize
	movq	%rax, %rcx
	call	_ZN5pixel13negativeValueEv
	ucomiss	.LC8(%rip), %xmm0
	jbe	.L87
	.loc 4 39 0 discriminator 22
	movl	$58, %ebx
	jmp	.L40
.L87:
	.loc 4 39 0 discriminator 23
	movq	32(%rbp), %rax
	leaq	48(%rax), %r8
	movl	-4(%rbp), %ecx
	movl	-8(%rbp), %edx
	movq	40(%rbp), %rax
	movq	%r8, %r9
	movl	%ecx, %r8d
	movq	%rax, %rcx
	call	_ZN3png9getSampleEiiP7boxsize
	movq	%rax, %rcx
	call	_ZN5pixel13negativeValueEv
	ucomiss	.LC9(%rip), %xmm0
	jbe	.L88
	.loc 4 39 0 discriminator 25
	movl	$46, %ebx
	jmp	.L40
.L88:
	.loc 4 39 0 discriminator 26
	movq	32(%rbp), %rax
	leaq	48(%rax), %r8
	movl	-4(%rbp), %ecx
	movl	-8(%rbp), %edx
	movq	40(%rbp), %rax
	movq	%r8, %r9
	movl	%ecx, %r8d
	movq	%rax, %rcx
	call	_ZN3png9getSampleEiiP7boxsize
	movq	%rax, %rcx
	call	_ZN5pixel13negativeValueEv
	pxor	%xmm1, %xmm1
	ucomiss	%xmm1, %xmm0
	jp	.L65
	pxor	%xmm1, %xmm1
	ucomiss	%xmm1, %xmm0
	jne	.L65
	.loc 4 39 0 discriminator 28
	movl	$0, %ebx
	jmp	.L40
.L65:
	.loc 4 39 0 discriminator 29
	movl	$32, %ebx
.L40:
	.loc 4 39 0 discriminator 40
	movq	32(%rbp), %rax
	movq	104(%rax), %rsi
	movq	32(%rbp), %rax
	leaq	48(%rax), %rcx
	movl	-4(%rbp), %edx
	movl	-8(%rbp), %eax
	movl	%edx, %r8d
	movl	%eax, %edx
	call	_ZN7boxsize3getEii
	cltq
	addq	%rsi, %rax
	movb	%bl, (%rax)
	.loc 4 38 0 is_stmt 1 discriminator 40
	addl	$1, -8(%rbp)
	jmp	.L68
.L37:
.LBE11:
.LBE10:
	.loc 4 37 0 discriminator 2
	addl	$1, -4(%rbp)
	jmp	.L69
.L89:
.LBE9:
	.loc 4 42 0
	nop
	addq	$48, %rsp
	popq	%rbx
	.cfi_restore 3
	popq	%rsi
	.cfi_restore 4
	popq	%rbp
	.cfi_restore 6
	.cfi_def_cfa 7, 24
	ret
	.cfi_endproc
.LFE2156:
	.seh_endproc
	.align 2
	.globl	_ZN8rigidbox5flipHEv
	.def	_ZN8rigidbox5flipHEv;	.scl	2;	.type	32;	.endef
	.seh_proc	_ZN8rigidbox5flipHEv
_ZN8rigidbox5flipHEv:
.LFB2157:
	.loc 4 45 0
	.cfi_startproc
	pushq	%rbp
	.seh_pushreg	%rbp
	.cfi_def_cfa_offset 16
	.cfi_offset 6, -16
	pushq	%rbx
	.seh_pushreg	%rbx
	.cfi_def_cfa_offset 24
	.cfi_offset 3, -24
	subq	$72, %rsp
	.seh_stackalloc	72
	.cfi_def_cfa_offset 96
	leaq	128(%rsp), %rbp
	.seh_setframe	%rbp, 128
	.cfi_def_cfa 6, -32
	.seh_endprologue
	movq	%rcx, -32(%rbp)
	.loc 4 46 0
	movq	-32(%rbp), %rax
	addq	$48, %rax
	movq	%rax, %rcx
	call	_ZN7boxsize10charactersEv
	movl	%eax, -84(%rbp)
	.loc 4 47 0
	movl	-84(%rbp), %eax
	cltq
	addq	$15, %rax
	addq	$15, %rax
	shrq	$4, %rax
	salq	$4, %rax
	call	___chkstk_ms
	subq	%rax, %rsp
	leaq	32(%rsp), %rax
	addq	$15, %rax
	shrq	$4, %rax
	salq	$4, %rax
	movq	%rax, -80(%rbp)
.LBB12:
	.loc 4 48 0
	movl	$0, -68(%rbp)
.L94:
	.loc 4 48 0 is_stmt 0 discriminator 1
	movq	-32(%rbp), %rax
	movl	60(%rax), %eax
	addl	$1, %eax
	cmpl	%eax, -68(%rbp)
	jge	.L91
.LBB13:
.LBB14:
	.loc 4 49 0 is_stmt 1
	movl	$0, -72(%rbp)
.L93:
	.loc 4 49 0 is_stmt 0 discriminator 3
	movq	-32(%rbp), %rax
	movl	56(%rax), %eax
	addl	$1, %eax
	cmpl	%eax, -72(%rbp)
	jge	.L92
	.loc 4 50 0 is_stmt 1 discriminator 2
	movq	-32(%rbp), %rax
	movq	104(%rax), %rbx
	movq	-32(%rbp), %rax
	leaq	48(%rax), %rcx
	movl	-68(%rbp), %edx
	movl	-72(%rbp), %eax
	movl	%edx, %r8d
	movl	%eax, %edx
	call	_ZN7boxsize3getEii
	cltq
	addq	%rax, %rbx
	movq	-32(%rbp), %rax
	leaq	48(%rax), %rcx
	movq	-32(%rbp), %rax
	movl	60(%rax), %eax
	subl	-68(%rbp), %eax
	movl	%eax, %edx
	movl	-72(%rbp), %eax
	movl	%edx, %r8d
	movl	%eax, %edx
	call	_ZN7boxsize3getEii
	movslq	%eax, %rdx
	movq	-80(%rbp), %rax
	addq	%rax, %rdx
	movzbl	(%rbx), %eax
	movb	%al, (%rdx)
	.loc 4 49 0 discriminator 2
	addl	$1, -72(%rbp)
	jmp	.L93
.L92:
.LBE14:
.LBE13:
	.loc 4 48 0 discriminator 2
	addl	$1, -68(%rbp)
	jmp	.L94
.L91:
.LBE12:
	.loc 4 56 0
	movl	-84(%rbp), %ecx
	movq	-32(%rbp), %rax
	movq	104(%rax), %rdx
	movq	-80(%rbp), %rax
	movl	%ecx, %r9d
	movq	%rdx, %r8
	movq	%rax, %rdx
	movq	-32(%rbp), %rcx
	call	_ZN8rigidbox4swapEPcS0_i
	.loc 4 57 0
	nop
	leaq	-56(%rbp), %rsp
	popq	%rbx
	.cfi_restore 3
	popq	%rbp
	.cfi_restore 6
	.cfi_def_cfa 7, -56
	ret
	.cfi_endproc
.LFE2157:
	.seh_endproc
	.align 2
	.globl	_ZN8rigidbox5flipVEv
	.def	_ZN8rigidbox5flipVEv;	.scl	2;	.type	32;	.endef
	.seh_proc	_ZN8rigidbox5flipVEv
_ZN8rigidbox5flipVEv:
.LFB2158:
	.loc 4 62 0
	.cfi_startproc
	pushq	%rbp
	.seh_pushreg	%rbp
	.cfi_def_cfa_offset 16
	.cfi_offset 6, -16
	pushq	%rbx
	.seh_pushreg	%rbx
	.cfi_def_cfa_offset 24
	.cfi_offset 3, -24
	subq	$72, %rsp
	.seh_stackalloc	72
	.cfi_def_cfa_offset 96
	leaq	128(%rsp), %rbp
	.seh_setframe	%rbp, 128
	.cfi_def_cfa 6, -32
	.seh_endprologue
	movq	%rcx, -32(%rbp)
	.loc 4 63 0
	movq	-32(%rbp), %rax
	addq	$48, %rax
	movq	%rax, %rcx
	call	_ZN7boxsize10charactersEv
	movl	%eax, -84(%rbp)
	.loc 4 64 0
	movl	-84(%rbp), %eax
	cltq
	addq	$15, %rax
	addq	$15, %rax
	shrq	$4, %rax
	salq	$4, %rax
	call	___chkstk_ms
	subq	%rax, %rsp
	leaq	32(%rsp), %rax
	addq	$15, %rax
	shrq	$4, %rax
	salq	$4, %rax
	movq	%rax, -80(%rbp)
.LBB15:
	.loc 4 65 0
	movl	$0, -68(%rbp)
.L99:
	.loc 4 65 0 is_stmt 0 discriminator 1
	movq	-32(%rbp), %rax
	movl	56(%rax), %eax
	addl	$1, %eax
	cmpl	%eax, -68(%rbp)
	jge	.L96
.LBB16:
.LBB17:
	.loc 4 66 0 is_stmt 1
	movl	$0, -72(%rbp)
.L98:
	.loc 4 66 0 is_stmt 0 discriminator 3
	movq	-32(%rbp), %rax
	movl	60(%rax), %eax
	addl	$1, %eax
	cmpl	%eax, -72(%rbp)
	jge	.L97
	.loc 4 67 0 is_stmt 1 discriminator 2
	movq	-32(%rbp), %rax
	movq	104(%rax), %rbx
	movq	-32(%rbp), %rax
	leaq	48(%rax), %rcx
	movl	-72(%rbp), %edx
	movl	-68(%rbp), %eax
	movl	%edx, %r8d
	movl	%eax, %edx
	call	_ZN7boxsize3getEii
	cltq
	addq	%rax, %rbx
	movq	-32(%rbp), %rax
	leaq	48(%rax), %rcx
	movq	-32(%rbp), %rax
	movl	56(%rax), %eax
	subl	-68(%rbp), %eax
	movl	-72(%rbp), %edx
	movl	%edx, %r8d
	movl	%eax, %edx
	call	_ZN7boxsize3getEii
	movslq	%eax, %rdx
	movq	-80(%rbp), %rax
	addq	%rax, %rdx
	movzbl	(%rbx), %eax
	movb	%al, (%rdx)
	.loc 4 66 0 discriminator 2
	addl	$1, -72(%rbp)
	jmp	.L98
.L97:
.LBE17:
.LBE16:
	.loc 4 65 0 discriminator 2
	addl	$1, -68(%rbp)
	jmp	.L99
.L96:
.LBE15:
	.loc 4 74 0
	movl	-84(%rbp), %ecx
	movq	-32(%rbp), %rax
	movq	104(%rax), %rdx
	movq	-80(%rbp), %rax
	movl	%ecx, %r9d
	movq	%rdx, %r8
	movq	%rax, %rdx
	movq	-32(%rbp), %rcx
	call	_ZN8rigidbox4swapEPcS0_i
	.loc 4 75 0
	nop
	leaq	-56(%rbp), %rsp
	popq	%rbx
	.cfi_restore 3
	popq	%rbp
	.cfi_restore 6
	.cfi_def_cfa 7, -56
	ret
	.cfi_endproc
.LFE2158:
	.seh_endproc
	.section	.text$_ZN8rigidbox4swapEPcS0_i,"x"
	.linkonce discard
	.align 2
	.globl	_ZN8rigidbox4swapEPcS0_i
	.def	_ZN8rigidbox4swapEPcS0_i;	.scl	2;	.type	32;	.endef
	.seh_proc	_ZN8rigidbox4swapEPcS0_i
_ZN8rigidbox4swapEPcS0_i:
.LFB2159:
	.loc 4 78 0
	.cfi_startproc
	pushq	%rbp
	.seh_pushreg	%rbp
	.cfi_def_cfa_offset 16
	.cfi_offset 6, -16
	movq	%rsp, %rbp
	.seh_setframe	%rbp, 0
	.cfi_def_cfa_register 6
	subq	$32, %rsp
	.seh_stackalloc	32
	.seh_endprologue
	movq	%rcx, 16(%rbp)
	movq	%rdx, 24(%rbp)
	movq	%r8, 32(%rbp)
	movl	%r9d, 40(%rbp)
	.loc 4 80 0
	movl	40(%rbp), %eax
	movslq	%eax, %rcx
	movq	24(%rbp), %rdx
	movq	32(%rbp), %rax
	movq	%rcx, %r8
	movq	%rax, %rcx
	call	memcpy
	.loc 4 84 0
	nop
	addq	$32, %rsp
	popq	%rbp
	.cfi_restore 6
	.cfi_def_cfa 7, 8
	ret
	.cfi_endproc
.LFE2159:
	.seh_endproc
	.text
	.def	__tcf_0;	.scl	3;	.type	32;	.endef
	.seh_proc	__tcf_0
__tcf_0:
.LFB2645:
	.file 5 "c:/users/ian/downloads/pocketcpp-0.7/pocketcpp/mingw/include/c++/7.2.0/iostream"
	.loc 5 74 0
	.cfi_startproc
	pushq	%rbp
	.seh_pushreg	%rbp
	.cfi_def_cfa_offset 16
	.cfi_offset 6, -16
	movq	%rsp, %rbp
	.seh_setframe	%rbp, 0
	.cfi_def_cfa_register 6
	subq	$32, %rsp
	.seh_stackalloc	32
	.seh_endprologue
	.loc 5 74 0
	leaq	_ZStL8__ioinit(%rip), %rcx
	call	_ZNSt8ios_base4InitD1Ev
	nop
	addq	$32, %rsp
	popq	%rbp
	.cfi_restore 6
	.cfi_def_cfa 7, 8
	ret
	.cfi_endproc
.LFE2645:
	.seh_endproc
	.def	_Z41__static_initialization_and_destruction_0ii;	.scl	3;	.type	32;	.endef
	.seh_proc	_Z41__static_initialization_and_destruction_0ii
_Z41__static_initialization_and_destruction_0ii:
.LFB2644:
	.loc 4 84 0
	.cfi_startproc
	pushq	%rbp
	.seh_pushreg	%rbp
	.cfi_def_cfa_offset 16
	.cfi_offset 6, -16
	movq	%rsp, %rbp
	.seh_setframe	%rbp, 0
	.cfi_def_cfa_register 6
	subq	$32, %rsp
	.seh_stackalloc	32
	.seh_endprologue
	movl	%ecx, 16(%rbp)
	movl	%edx, 24(%rbp)
	.loc 4 84 0
	cmpl	$1, 16(%rbp)
	jne	.L104
	.loc 4 84 0 is_stmt 0 discriminator 1
	cmpl	$65535, 24(%rbp)
	jne	.L104
	.loc 5 74 0 is_stmt 1
	leaq	_ZStL8__ioinit(%rip), %rcx
	call	_ZNSt8ios_base4InitC1Ev
	leaq	__tcf_0(%rip), %rcx
	call	atexit
.L104:
	.loc 4 84 0
	nop
	addq	$32, %rsp
	popq	%rbp
	.cfi_restore 6
	.cfi_def_cfa 7, 8
	ret
	.cfi_endproc
.LFE2644:
	.seh_endproc
	.def	_GLOBAL__sub_I__ZN8rigidboxC2EffPcP7boxsizeS2_b;	.scl	3;	.type	32;	.endef
	.seh_proc	_GLOBAL__sub_I__ZN8rigidboxC2EffPcP7boxsizeS2_b
_GLOBAL__sub_I__ZN8rigidboxC2EffPcP7boxsizeS2_b:
.LFB2646:
	.loc 4 84 0
	.cfi_startproc
	pushq	%rbp
	.seh_pushreg	%rbp
	.cfi_def_cfa_offset 16
	.cfi_offset 6, -16
	movq	%rsp, %rbp
	.seh_setframe	%rbp, 0
	.cfi_def_cfa_register 6
	subq	$32, %rsp
	.seh_stackalloc	32
	.seh_endprologue
	.loc 4 84 0
	movl	$65535, %edx
	movl	$1, %ecx
	call	_Z41__static_initialization_and_destruction_0ii
	nop
	addq	$32, %rsp
	popq	%rbp
	.cfi_restore 6
	.cfi_def_cfa 7, 8
	ret
	.cfi_endproc
.LFE2646:
	.seh_endproc
	.section	.ctors,"w"
	.align 8
	.quad	_GLOBAL__sub_I__ZN8rigidboxC2EffPcP7boxsizeS2_b
	.section .rdata,"dr"
	.align 4
.LC0:
	.long	1144995840
	.align 4
.LC1:
	.long	1063675494
	.align 4
.LC2:
	.long	1061997773
	.align 4
.LC3:
	.long	1060320051
	.align 4
.LC4:
	.long	1058642330
	.align 4
.LC5:
	.long	1056964608
	.align 4
.LC6:
	.long	1053609165
	.align 4
.LC7:
	.long	1050253722
	.align 4
.LC8:
	.long	1045220557
	.align 4
.LC9:
	.long	1036831949
	.text
.Letext0:
	.file 6 "<built-in>"
	.file 7 "c:/users/ian/downloads/pocketcpp-0.7/pocketcpp/mingw/include/c++/7.2.0/x86_64-w64-mingw32/bits/c++config.h"
	.file 8 "c:/users/ian/downloads/pocketcpp-0.7/pocketcpp/mingw/include/c++/7.2.0/bits/basic_string.h"
	.file 9 "c:/users/ian/downloads/pocketcpp-0.7/pocketcpp/mingw/include/c++/7.2.0/bits/stringfwd.h"
	.file 10 "c:/users/ian/downloads/pocketcpp-0.7/pocketcpp/mingw/include/c++/7.2.0/cmath"
	.file 11 "c:/users/ian/downloads/pocketcpp-0.7/pocketcpp/mingw/include/c++/7.2.0/type_traits"
	.file 12 "c:/users/ian/downloads/pocketcpp-0.7/pocketcpp/mingw/include/c++/7.2.0/bits/stl_pair.h"
	.file 13 "c:/users/ian/downloads/pocketcpp-0.7/pocketcpp/mingw/include/c++/7.2.0/debug/debug.h"
	.file 14 "c:/users/ian/downloads/pocketcpp-0.7/pocketcpp/mingw/include/c++/7.2.0/cwchar"
	.file 15 "c:/users/ian/downloads/pocketcpp-0.7/pocketcpp/mingw/include/c++/7.2.0/bits/char_traits.h"
	.file 16 "c:/users/ian/downloads/pocketcpp-0.7/pocketcpp/mingw/include/c++/7.2.0/cstdint"
	.file 17 "c:/users/ian/downloads/pocketcpp-0.7/pocketcpp/mingw/include/c++/7.2.0/bits/exception_ptr.h"
	.file 18 "c:/users/ian/downloads/pocketcpp-0.7/pocketcpp/mingw/include/c++/7.2.0/new"
	.file 19 "c:/users/ian/downloads/pocketcpp-0.7/pocketcpp/mingw/include/c++/7.2.0/bits/allocator.h"
	.file 20 "c:/users/ian/downloads/pocketcpp-0.7/pocketcpp/mingw/include/c++/7.2.0/clocale"
	.file 21 "c:/users/ian/downloads/pocketcpp-0.7/pocketcpp/mingw/include/c++/7.2.0/cstdlib"
	.file 22 "c:/users/ian/downloads/pocketcpp-0.7/pocketcpp/mingw/include/c++/7.2.0/cstdio"
	.file 23 "c:/users/ian/downloads/pocketcpp-0.7/pocketcpp/mingw/include/c++/7.2.0/bits/alloc_traits.h"
	.file 24 "c:/users/ian/downloads/pocketcpp-0.7/pocketcpp/mingw/include/c++/7.2.0/initializer_list"
	.file 25 "c:/users/ian/downloads/pocketcpp-0.7/pocketcpp/mingw/include/c++/7.2.0/bits/stl_vector.h"
	.file 26 "c:/users/ian/downloads/pocketcpp-0.7/pocketcpp/mingw/include/c++/7.2.0/bits/vector.tcc"
	.file 27 "c:/users/ian/downloads/pocketcpp-0.7/pocketcpp/mingw/include/c++/7.2.0/system_error"
	.file 28 "c:/users/ian/downloads/pocketcpp-0.7/pocketcpp/mingw/include/c++/7.2.0/bits/ios_base.h"
	.file 29 "c:/users/ian/downloads/pocketcpp-0.7/pocketcpp/mingw/include/c++/7.2.0/cwctype"
	.file 30 "c:/users/ian/downloads/pocketcpp-0.7/pocketcpp/mingw/include/c++/7.2.0/iosfwd"
	.file 31 "c:/users/ian/downloads/pocketcpp-0.7/pocketcpp/mingw/include/c++/7.2.0/bits/stl_iterator_base_types.h"
	.file 32 "c:/users/ian/downloads/pocketcpp-0.7/pocketcpp/mingw/include/c++/7.2.0/bits/predefined_ops.h"
	.file 33 "c:/users/ian/downloads/pocketcpp-0.7/pocketcpp/mingw/include/c++/7.2.0/ext/new_allocator.h"
	.file 34 "c:/users/ian/downloads/pocketcpp-0.7/pocketcpp/mingw/include/c++/7.2.0/ext/numeric_traits.h"
	.file 35 "c:/users/ian/downloads/pocketcpp-0.7/pocketcpp/mingw/include/c++/7.2.0/ext/alloc_traits.h"
	.file 36 "c:/users/ian/downloads/pocketcpp-0.7/pocketcpp/mingw/include/c++/7.2.0/bits/stl_iterator.h"
	.file 37 "c:/users/ian/downloads/pocketcpp-0.7/pocketcpp/mingw/x86_64-w64-mingw32/include/crtdefs.h"
	.file 38 "c:/users/ian/downloads/pocketcpp-0.7/pocketcpp/mingw/x86_64-w64-mingw32/include/locale.h"
	.file 39 "c:/users/ian/downloads/pocketcpp-0.7/pocketcpp/mingw/x86_64-w64-mingw32/include/math.h"
	.file 40 "c:/users/ian/downloads/pocketcpp-0.7/pocketcpp/mingw/x86_64-w64-mingw32/include/stdlib.h"
	.file 41 "c:/users/ian/downloads/pocketcpp-0.7/pocketcpp/mingw/x86_64-w64-mingw32/include/malloc.h"
	.file 42 "c:/users/ian/downloads/pocketcpp-0.7/pocketcpp/mingw/x86_64-w64-mingw32/include/wchar.h"
	.file 43 "c:/users/ian/downloads/pocketcpp-0.7/pocketcpp/mingw/x86_64-w64-mingw32/include/swprintf.inl"
	.file 44 "c:/users/ian/downloads/pocketcpp-0.7/pocketcpp/mingw/x86_64-w64-mingw32/include/stdint.h"
	.file 45 "c:/users/ian/downloads/pocketcpp-0.7/pocketcpp/mingw/x86_64-w64-mingw32/include/stdio.h"
	.file 46 "c:/users/ian/downloads/pocketcpp-0.7/pocketcpp/mingw/x86_64-w64-mingw32/include/ctype.h"
	.file 47 "c:/users/ian/downloads/pocketcpp-0.7/pocketcpp/mingw/include/c++/7.2.0/x86_64-w64-mingw32/bits/gthr-default.h"
	.file 48 "c:/users/ian/downloads/pocketcpp-0.7/pocketcpp/mingw/include/c++/7.2.0/x86_64-w64-mingw32/bits/atomic_word.h"
	.file 49 "rigidbody.h"
	.file 50 "lodepng.h"
	.file 51 "png.h"
	.file 52 "rigidbox.h"
	.file 53 "c:/users/ian/downloads/pocketcpp-0.7/pocketcpp/mingw/x86_64-w64-mingw32/include/wctype.h"