	.file	"sprite.cpp"
	.text
.Ltext0:
	.cfi_sections	.debug_frame
	.align 2
	.globl	_ZN6spriteC2Ev
	.def	_ZN6spriteC2Ev;	.scl	2;	.type	32;	.endef
	.seh_proc	_ZN6spriteC2Ev
_ZN6spriteC2Ev:
.LFB1:
	.file 1 "sprite.cpp"
	.loc 1 6 0
	.cfi_startproc
	pushq	%rbp
	.seh_pushreg	%rbp
	.cfi_def_cfa_offset 16
	.cfi_offset 6, -16
	movq	%rsp, %rbp
	.seh_setframe	%rbp, 0
	.cfi_def_cfa_register 6
	.seh_endprologue
	movq	%rcx, 16(%rbp)
	.loc 1 8 0
	nop
	popq	%rbp
	.cfi_restore 6
	.cfi_def_cfa 7, 8
	ret
	.cfi_endproc
.LFE1:
	.seh_endproc
	.globl	_ZN6spriteC1Ev
	.def	_ZN6spriteC1Ev;	.scl	2;	.type	32;	.endef
	.set	_ZN6spriteC1Ev,_ZN6spriteC2Ev
	.align 2
	.globl	_ZN6spriteD2Ev
	.def	_ZN6spriteD2Ev;	.scl	2;	.type	32;	.endef
	.seh_proc	_ZN6spriteD2Ev
_ZN6spriteD2Ev:
.LFB4:
	.loc 1 11 0
	.cfi_startproc
	pushq	%rbp
	.seh_pushreg	%rbp
	.cfi_def_cfa_offset 16
	.cfi_offset 6, -16
	movq	%rsp, %rbp
	.seh_setframe	%rbp, 0
	.cfi_def_cfa_register 6
	.seh_endprologue
	movq	%rcx, 16(%rbp)
	.loc 1 13 0
	nop
	popq	%rbp
	.cfi_restore 6
	.cfi_def_cfa 7, 8
	ret
	.cfi_endproc
.LFE4:
	.seh_endproc
	.globl	_ZN6spriteD1Ev
	.def	_ZN6spriteD1Ev;	.scl	2;	.type	32;	.endef
	.set	_ZN6spriteD1Ev,_ZN6spriteD2Ev
.Letext0:
	.file 2 "sprite.h"