	.file	"tictactoe.cpp"
	.text
.Ltext0:
	.cfi_sections	.debug_frame
	.section	.text$_ZN7boxsizeC1Eiiii,"x"
	.linkonce discard
	.align 2
	.globl	_ZN7boxsizeC1Eiiii
	.def	_ZN7boxsizeC1Eiiii;	.scl	2;	.type	32;	.endef
	.seh_proc	_ZN7boxsizeC1Eiiii
_ZN7boxsizeC1Eiiii:
.LFB239:
	.file 1 "boxsize.h"
	.loc 1 13 0
	.cfi_startproc
	pushq	%rbp
	.seh_pushreg	%rbp
	.cfi_def_cfa_offset 16
	.cfi_offset 6, -16
	movq	%rsp, %rbp
	.seh_setframe	%rbp, 0
	.cfi_def_cfa_register 6
	.seh_endprologue
	movq	%rcx, 16(%rbp)
	movl	%edx, 24(%rbp)
	movl	%r8d, 32(%rbp)
	movl	%r9d, 40(%rbp)
.LBB2:
	.loc 1 14 0
	movq	16(%rbp), %rax
	movl	24(%rbp), %edx
	movl	%edx, (%rax)
	.loc 1 15 0
	movq	16(%rbp), %rax
	movl	32(%rbp), %edx
	movl	%edx, 4(%rax)
	.loc 1 16 0
	movq	16(%rbp), %rax
	movl	40(%rbp), %edx
	movl	%edx, 8(%rax)
	.loc 1 17 0
	movq	16(%rbp), %rax
	movl	48(%rbp), %edx
	movl	%edx, 12(%rax)
.LBE2:
	.loc 1 18 0
	nop
	popq	%rbp
	.cfi_restore 6
	.cfi_def_cfa 7, 8
	ret
	.cfi_endproc
.LFE239:
	.seh_endproc
	.section	.text$_ZN7boxsizeC1Ev,"x"
	.linkonce discard
	.align 2
	.globl	_ZN7boxsizeC1Ev
	.def	_ZN7boxsizeC1Ev;	.scl	2;	.type	32;	.endef
	.seh_proc	_ZN7boxsizeC1Ev
_ZN7boxsizeC1Ev:
.LFB242:
	.loc 1 19 0
	.cfi_startproc
	pushq	%rbp
	.seh_pushreg	%rbp
	.cfi_def_cfa_offset 16
	.cfi_offset 6, -16
	movq	%rsp, %rbp
	.seh_setframe	%rbp, 0
	.cfi_def_cfa_register 6
	.seh_endprologue
	movq	%rcx, 16(%rbp)
	.loc 1 21 0
	nop
	popq	%rbp
	.cfi_restore 6
	.cfi_def_cfa 7, 8
	ret
	.cfi_endproc
.LFE242:
	.seh_endproc
	.section	.text$_ZN7boxsize10charactersEv,"x"
	.linkonce discard
	.align 2
	.globl	_ZN7boxsize10charactersEv
	.def	_ZN7boxsize10charactersEv;	.scl	2;	.type	32;	.endef
	.seh_proc	_ZN7boxsize10charactersEv
_ZN7boxsize10charactersEv:
.LFB247:
	.loc 1 30 0
	.cfi_startproc
	pushq	%rbp
	.seh_pushreg	%rbp
	.cfi_def_cfa_offset 16
	.cfi_offset 6, -16
	movq	%rsp, %rbp
	.seh_setframe	%rbp, 0
	.cfi_def_cfa_register 6
	.seh_endprologue
	movq	%rcx, 16(%rbp)
	.loc 1 31 0
	movq	16(%rbp), %rax
	movl	8(%rax), %edx
	movq	16(%rbp), %rax
	movl	12(%rax), %eax
	imull	%edx, %eax
	.loc 1 32 0
	popq	%rbp
	.cfi_restore 6
	.cfi_def_cfa 7, 8
	ret
	.cfi_endproc
.LFE247:
	.seh_endproc
	.section	.text$_ZN7boxsize3getEii,"x"
	.linkonce discard
	.align 2
	.globl	_ZN7boxsize3getEii
	.def	_ZN7boxsize3getEii;	.scl	2;	.type	32;	.endef
	.seh_proc	_ZN7boxsize3getEii
_ZN7boxsize3getEii:
.LFB248:
	.loc 1 33 0
	.cfi_startproc
	pushq	%rbp
	.seh_pushreg	%rbp
	.cfi_def_cfa_offset 16
	.cfi_offset 6, -16
	movq	%rsp, %rbp
	.seh_setframe	%rbp, 0
	.cfi_def_cfa_register 6
	.seh_endprologue
	movq	%rcx, 16(%rbp)
	movl	%edx, 24(%rbp)
	movl	%r8d, 32(%rbp)
	.loc 1 34 0
	movq	16(%rbp), %rax
	movl	8(%rax), %eax
	imull	32(%rbp), %eax
	movl	%eax, %edx
	movl	24(%rbp), %eax
	addl	%edx, %eax
	.loc 1 35 0
	popq	%rbp
	.cfi_restore 6
	.cfi_def_cfa 7, 8
	ret
	.cfi_endproc
.LFE248:
	.seh_endproc
	.section	.text$_ZN7boxsize9getscaleXEf,"x"
	.linkonce discard
	.align 2
	.globl	_ZN7boxsize9getscaleXEf
	.def	_ZN7boxsize9getscaleXEf;	.scl	2;	.type	32;	.endef
	.seh_proc	_ZN7boxsize9getscaleXEf
_ZN7boxsize9getscaleXEf:
.LFB249:
	.loc 1 36 0
	.cfi_startproc
	pushq	%rbp
	.seh_pushreg	%rbp
	.cfi_def_cfa_offset 16
	.cfi_offset 6, -16
	movq	%rsp, %rbp
	.seh_setframe	%rbp, 0
	.cfi_def_cfa_register 6
	.seh_endprologue
	movq	%rcx, 16(%rbp)
	movss	%xmm1, 24(%rbp)
	.loc 1 37 0
	movq	16(%rbp), %rax
	movl	8(%rax), %eax
	cvtsi2ss	%eax, %xmm0
	mulss	24(%rbp), %xmm0
	cvtss2sd	%xmm0, %xmm0
	movq	%xmm0, %rax
	.loc 1 38 0
	movq	%rax, %xmm0
	popq	%rbp
	.cfi_restore 6
	.cfi_def_cfa 7, 8
	ret
	.cfi_endproc
.LFE249:
	.seh_endproc
	.section	.text$_ZN7boxsize9getscaleYEf,"x"
	.linkonce discard
	.align 2
	.globl	_ZN7boxsize9getscaleYEf
	.def	_ZN7boxsize9getscaleYEf;	.scl	2;	.type	32;	.endef
	.seh_proc	_ZN7boxsize9getscaleYEf
_ZN7boxsize9getscaleYEf:
.LFB251:
	.loc 1 42 0
	.cfi_startproc
	pushq	%rbp
	.seh_pushreg	%rbp
	.cfi_def_cfa_offset 16
	.cfi_offset 6, -16
	movq	%rsp, %rbp
	.seh_setframe	%rbp, 0
	.cfi_def_cfa_register 6
	.seh_endprologue
	movq	%rcx, 16(%rbp)
	movss	%xmm1, 24(%rbp)
	.loc 1 43 0
	movq	16(%rbp), %rax
	movl	12(%rax), %eax
	cvtsi2ss	%eax, %xmm0
	mulss	24(%rbp), %xmm0
	cvtss2sd	%xmm0, %xmm0
	movq	%xmm0, %rax
	.loc 1 44 0
	movq	%rax, %xmm0
	popq	%rbp
	.cfi_restore 6
	.cfi_def_cfa 7, 8
	ret
	.cfi_endproc
.LFE251:
	.seh_endproc
	.section	.text$_ZN7boxsize6getMinEv,"x"
	.linkonce discard
	.align 2
	.globl	_ZN7boxsize6getMinEv
	.def	_ZN7boxsize6getMinEv;	.scl	2;	.type	32;	.endef
	.seh_proc	_ZN7boxsize6getMinEv
_ZN7boxsize6getMinEv:
.LFB255:
	.loc 1 60 0
	.cfi_startproc
	pushq	%rbp
	.seh_pushreg	%rbp
	.cfi_def_cfa_offset 16
	.cfi_offset 6, -16
	movq	%rsp, %rbp
	.seh_setframe	%rbp, 0
	.cfi_def_cfa_register 6
	.seh_endprologue
	movq	%rcx, 16(%rbp)
	.loc 1 61 0
	movq	16(%rbp), %rax
	movl	8(%rax), %edx
	movq	16(%rbp), %rax
	movl	12(%rax), %eax
	cmpl	%eax, %edx
	jle	.L12
	.loc 1 61 0 is_stmt 0 discriminator 1
	movq	16(%rbp), %rax
	movl	12(%rax), %eax
	jmp	.L14
.L12:
	.loc 1 61 0 discriminator 2
	movq	16(%rbp), %rax
	movl	8(%rax), %eax
.L14:
	.loc 1 62 0 is_stmt 1 discriminator 5
	popq	%rbp
	.cfi_restore 6
	.cfi_def_cfa 7, 8
	ret
	.cfi_endproc
.LFE255:
	.seh_endproc
	.section .rdata,"dr"
_ZStL19piecewise_construct:
	.space 1
	.text
	.def	_ZL6printfPKcz;	.scl	3;	.type	32;	.endef
	.seh_proc	_ZL6printfPKcz
_ZL6printfPKcz:
.LFB754:
	.file 2 "c:/users/ian/downloads/pocketcpp-0.7/pocketcpp/mingw/x86_64-w64-mingw32/include/stdio.h"
	.loc 2 297 0
	.cfi_startproc
	pushq	%rbp
	.seh_pushreg	%rbp
	.cfi_def_cfa_offset 16
	.cfi_offset 6, -16
	pushq	%rbx
	.seh_pushreg	%rbx
	.cfi_def_cfa_offset 24
	.cfi_offset 3, -24
	subq	$56, %rsp
	.seh_stackalloc	56
	.cfi_def_cfa_offset 80
	leaq	128(%rsp), %rbp
	.seh_setframe	%rbp, 128
	.cfi_def_cfa 6, -48
	.seh_endprologue
	movq	%rcx, -48(%rbp)
	movq	%rdx, -40(%rbp)
	movq	%r8, -32(%rbp)
	movq	%r9, -24(%rbp)
	.loc 2 299 0
	leaq	-40(%rbp), %rax
	movq	%rax, -88(%rbp)
	.loc 2 300 0
	movq	-88(%rbp), %rax
	movq	%rax, %rdx
	movq	-48(%rbp), %rcx
	call	__mingw_vprintf
	movl	%eax, %ebx
	.loc 2 302 0
	movl	%ebx, %eax
	.loc 2 303 0
	addq	$56, %rsp
	popq	%rbx
	.cfi_restore 3
	popq	%rbp
	.cfi_restore 6
	.cfi_def_cfa 7, -40
	ret
	.cfi_endproc
.LFE754:
	.seh_endproc
	.section	.text$_ZN3boxC1ER7boxsizePcib,"x"
	.linkonce discard
	.align 2
	.globl	_ZN3boxC1ER7boxsizePcib
	.def	_ZN3boxC1ER7boxsizePcib;	.scl	2;	.type	32;	.endef
	.seh_proc	_ZN3boxC1ER7boxsizePcib
_ZN3boxC1ER7boxsizePcib:
.LFB1241:
	.file 3 "box.h"
	.loc 3 10 0
	.cfi_startproc
	pushq	%rbp
	.seh_pushreg	%rbp
	.cfi_def_cfa_offset 16
	.cfi_offset 6, -16
	movq	%rsp, %rbp
	.seh_setframe	%rbp, 0
	.cfi_def_cfa_register 6
	subq	$48, %rsp
	.seh_stackalloc	48
	.seh_endprologue
	movq	%rcx, 16(%rbp)
	movq	%rdx, 24(%rbp)
	movq	%r8, 32(%rbp)
	movl	%r9d, 40(%rbp)
	movl	48(%rbp), %eax
	movb	%al, -4(%rbp)
.LBB3:
	.loc 3 10 0
	movq	16(%rbp), %rcx
	movq	24(%rbp), %rax
	movq	8(%rax), %rdx
	movq	(%rax), %rax
	movq	%rax, (%rcx)
	movq	%rdx, 8(%rcx)
	.loc 3 11 0
	movq	16(%rbp), %rax
	movl	40(%rbp), %edx
	movl	%edx, 32(%rax)
	.loc 3 12 0
	movq	16(%rbp), %rax
	movq	32(%rbp), %rdx
	movq	%rdx, 40(%rax)
	.loc 3 16 0
	movq	16(%rbp), %rax
	movb	$1, 17(%rax)
	.loc 3 17 0
	movq	16(%rbp), %rax
	movb	$0, 16(%rax)
	.loc 3 18 0
	movq	16(%rbp), %rax
	movb	$1, 18(%rax)
	.loc 3 19 0
	movzbl	-4(%rbp), %eax
	movl	%eax, %edx
	movq	16(%rbp), %rcx
	call	_ZN3box8setAlphaEb
	.loc 3 21 0
	movq	16(%rbp), %rcx
	call	_ZN3box5clearEv
.LBE3:
	.loc 3 22 0
	nop
	addq	$48, %rsp
	popq	%rbp
	.cfi_restore 6
	.cfi_def_cfa 7, 8
	ret
	.cfi_endproc
.LFE1241:
	.seh_endproc
	.section	.text$_ZN3box8setAlphaEb,"x"
	.linkonce discard
	.align 2
	.globl	_ZN3box8setAlphaEb
	.def	_ZN3box8setAlphaEb;	.scl	2;	.type	32;	.endef
	.seh_proc	_ZN3box8setAlphaEb
_ZN3box8setAlphaEb:
.LFB1249:
	.loc 3 51 0
	.cfi_startproc
	pushq	%rbp
	.seh_pushreg	%rbp
	.cfi_def_cfa_offset 16
	.cfi_offset 6, -16
	movq	%rsp, %rbp
	.seh_setframe	%rbp, 0
	.cfi_def_cfa_register 6
	.seh_endprologue
	movq	%rcx, 16(%rbp)
	movl	%edx, %eax
	movb	%al, 24(%rbp)
.L20:
	.loc 3 52 0
	movq	16(%rbp), %rax
	movzbl	16(%rax), %eax
	testb	%al, %al
	je	.L19
	jmp	.L20
.L19:
	.loc 3 53 0
	movq	16(%rbp), %rax
	movb	$1, 16(%rax)
	.loc 3 54 0
	movq	16(%rbp), %rax
	movzbl	24(%rbp), %edx
	movb	%dl, 49(%rax)
	.loc 3 55 0
	cmpb	$0, 24(%rbp)
	je	.L21
	.loc 3 56 0
	movq	16(%rbp), %rax
	movb	$0, 48(%rax)
	jmp	.L22
.L21:
	.loc 3 60 0
	movq	16(%rbp), %rax
	movb	$32, 48(%rax)
.L22:
	.loc 3 62 0
	movq	16(%rbp), %rax
	movb	$0, 16(%rax)
	.loc 3 63 0
	nop
	popq	%rbp
	.cfi_restore 6
	.cfi_def_cfa 7, 8
	ret
	.cfi_endproc
.LFE1249:
	.seh_endproc
	.section	.text$_ZN3box5clearEv,"x"
	.linkonce discard
	.align 2
	.globl	_ZN3box5clearEv
	.def	_ZN3box5clearEv;	.scl	2;	.type	32;	.endef
	.seh_proc	_ZN3box5clearEv
_ZN3box5clearEv:
.LFB1250:
	.loc 3 65 0
	.cfi_startproc
	pushq	%rbp
	.seh_pushreg	%rbp
	.cfi_def_cfa_offset 16
	.cfi_offset 6, -16
	movq	%rsp, %rbp
	.seh_setframe	%rbp, 0
	.cfi_def_cfa_register 6
	subq	$48, %rsp
	.seh_stackalloc	48
	.seh_endprologue
	movq	%rcx, 16(%rbp)
.LBB4:
	.loc 3 66 0
	movq	16(%rbp), %rax
	movzbl	18(%rax), %eax
	testb	%al, %al
	je	.L29
.L26:
.LBB5:
	.loc 3 67 0
	movq	16(%rbp), %rax
	movzbl	16(%rax), %eax
	testb	%al, %al
	je	.L25
	jmp	.L26
.L25:
	.loc 3 68 0
	movq	16(%rbp), %rax
	movb	$1, 16(%rax)
	.loc 3 69 0
	movq	16(%rbp), %rax
	movq	%rax, %rcx
	call	_ZN7boxsize10charactersEv
	movl	%eax, -8(%rbp)
.LBB6:
	.loc 3 70 0
	movl	$0, -4(%rbp)
.L28:
	.loc 3 70 0 is_stmt 0 discriminator 3
	movl	-4(%rbp), %eax
	cmpl	-8(%rbp), %eax
	jge	.L27
	.loc 3 71 0 is_stmt 1 discriminator 2
	movq	16(%rbp), %rax
	movq	40(%rax), %rdx
	movl	-4(%rbp), %eax
	cltq
	addq	%rax, %rdx
	movq	16(%rbp), %rax
	movzbl	48(%rax), %eax
	movb	%al, (%rdx)
	.loc 3 70 0 discriminator 2
	addl	$1, -4(%rbp)
	jmp	.L28
.L27:
.LBE6:
	.loc 3 73 0
	movq	16(%rbp), %rax
	movb	$0, 16(%rax)
.L29:
.LBE5:
.LBE4:
	.loc 3 75 0
	nop
	addq	$48, %rsp
	popq	%rbp
	.cfi_restore 6
	.cfi_def_cfa 7, 8
	ret
	.cfi_endproc
.LFE1250:
	.seh_endproc
	.section	.text$_ZN3box14getFramebufferEv,"x"
	.linkonce discard
	.align 2
	.globl	_ZN3box14getFramebufferEv
	.def	_ZN3box14getFramebufferEv;	.scl	2;	.type	32;	.endef
	.seh_proc	_ZN3box14getFramebufferEv
_ZN3box14getFramebufferEv:
.LFB1263:
	.loc 3 181 0
	.cfi_startproc
	pushq	%rbp
	.seh_pushreg	%rbp
	.cfi_def_cfa_offset 16
	.cfi_offset 6, -16
	movq	%rsp, %rbp
	.seh_setframe	%rbp, 0
	.cfi_def_cfa_register 6
	.seh_endprologue
	movq	%rcx, 16(%rbp)
	.loc 3 181 0
	movq	16(%rbp), %rax
	movq	40(%rax), %rax
	popq	%rbp
	.cfi_restore 6
	.cfi_def_cfa 7, 8
	ret
	.cfi_endproc
.LFE1263:
	.seh_endproc
.lcomm _ZStL8__ioinit,1,1
	.section	.text$_ZN10gameEngine9getMouseXEv,"x"
	.linkonce discard
	.align 2
	.globl	_ZN10gameEngine9getMouseXEv
	.def	_ZN10gameEngine9getMouseXEv;	.scl	2;	.type	32;	.endef
	.seh_proc	_ZN10gameEngine9getMouseXEv
_ZN10gameEngine9getMouseXEv:
.LFB6176:
	.file 4 "gameEngine.h"
	.loc 4 89 0
	.cfi_startproc
	pushq	%rbp
	.seh_pushreg	%rbp
	.cfi_def_cfa_offset 16
	.cfi_offset 6, -16
	movq	%rsp, %rbp
	.seh_setframe	%rbp, 0
	.cfi_def_cfa_register 6
	.seh_endprologue
	movq	%rcx, 16(%rbp)
	.loc 4 89 0
	movq	16(%rbp), %rax
	movl	124(%rax), %eax
	popq	%rbp
	.cfi_restore 6
	.cfi_def_cfa 7, 8
	ret
	.cfi_endproc
.LFE6176:
	.seh_endproc
	.section	.text$_ZN10gameEngine9getMouseYEv,"x"
	.linkonce discard
	.align 2
	.globl	_ZN10gameEngine9getMouseYEv
	.def	_ZN10gameEngine9getMouseYEv;	.scl	2;	.type	32;	.endef
	.seh_proc	_ZN10gameEngine9getMouseYEv
_ZN10gameEngine9getMouseYEv:
.LFB6177:
	.loc 4 90 0
	.cfi_startproc
	pushq	%rbp
	.seh_pushreg	%rbp
	.cfi_def_cfa_offset 16
	.cfi_offset 6, -16
	movq	%rsp, %rbp
	.seh_setframe	%rbp, 0
	.cfi_def_cfa_register 6
	.seh_endprologue
	movq	%rcx, 16(%rbp)
	.loc 4 90 0
	movq	16(%rbp), %rax
	movl	128(%rax), %eax
	popq	%rbp
	.cfi_restore 6
	.cfi_def_cfa 7, 8
	ret
	.cfi_endproc
.LFE6177:
	.seh_endproc
	.section	.text$_ZN6playerC1Eb,"x"
	.linkonce discard
	.align 2
	.globl	_ZN6playerC1Eb
	.def	_ZN6playerC1Eb;	.scl	2;	.type	32;	.endef
	.seh_proc	_ZN6playerC1Eb
_ZN6playerC1Eb:
.LFB6214:
	.file 5 "player.h"
	.loc 5 4 0
	.cfi_startproc
	pushq	%rbp
	.seh_pushreg	%rbp
	.cfi_def_cfa_offset 16
	.cfi_offset 6, -16
	movq	%rsp, %rbp
	.seh_setframe	%rbp, 0
	.cfi_def_cfa_register 6
	.seh_endprologue
	movq	%rcx, 16(%rbp)
	movl	%edx, %eax
	movb	%al, 24(%rbp)
.LBB7:
	.loc 5 5 0
	movq	16(%rbp), %rax
	movzbl	24(%rbp), %edx
	movb	%dl, (%rax)
.LBE7:
	.loc 5 6 0
	nop
	popq	%rbp
	.cfi_restore 6
	.cfi_def_cfa 7, 8
	ret
	.cfi_endproc
.LFE6214:
	.seh_endproc
	.section	.text$_ZN5pixel3sumEv,"x"
	.linkonce discard
	.align 2
	.globl	_ZN5pixel3sumEv
	.def	_ZN5pixel3sumEv;	.scl	2;	.type	32;	.endef
	.seh_proc	_ZN5pixel3sumEv
_ZN5pixel3sumEv:
.LFB6560:
	.file 6 "pixel.h"
	.loc 6 11 0
	.cfi_startproc
	pushq	%rbp
	.seh_pushreg	%rbp
	.cfi_def_cfa_offset 16
	.cfi_offset 6, -16
	movq	%rsp, %rbp
	.seh_setframe	%rbp, 0
	.cfi_def_cfa_register 6
	.seh_endprologue
	movq	%rcx, 16(%rbp)
	.loc 6 12 0
	movq	16(%rbp), %rax
	movzbl	(%rax), %eax
	movzbl	%al, %edx
	movq	16(%rbp), %rax
	movzbl	1(%rax), %eax
	movzbl	%al, %eax
	addl	%eax, %edx
	movq	16(%rbp), %rax
	movzbl	2(%rax), %eax
	movzbl	%al, %eax
	addl	%edx, %eax
	.loc 6 13 0
	popq	%rbp
	.cfi_restore 6
	.cfi_def_cfa 7, 8
	ret
	.cfi_endproc
.LFE6560:
	.seh_endproc
	.section	.text$_ZN5pixel5valueEj,"x"
	.linkonce discard
	.align 2
	.globl	_ZN5pixel5valueEj
	.def	_ZN5pixel5valueEj;	.scl	2;	.type	32;	.endef
	.seh_proc	_ZN5pixel5valueEj
_ZN5pixel5valueEj:
.LFB6562:
	.loc 6 17 0
	.cfi_startproc
	pushq	%rbp
	.seh_pushreg	%rbp
	.cfi_def_cfa_offset 16
	.cfi_offset 6, -16
	movq	%rsp, %rbp
	.seh_setframe	%rbp, 0
	.cfi_def_cfa_register 6
	.seh_endprologue
	movq	%rcx, 16(%rbp)
	movl	%edx, 24(%rbp)
	.loc 6 18 0
	movl	24(%rbp), %eax
	testq	%rax, %rax
	js	.L40
	cvtsi2ssq	%rax, %xmm0
	jmp	.L41
.L40:
	movq	%rax, %rdx
	shrq	%rdx
	andl	$1, %eax
	orq	%rax, %rdx
	cvtsi2ssq	%rdx, %xmm0
	addss	%xmm0, %xmm0
.L41:
	movss	.LC0(%rip), %xmm1
	divss	%xmm1, %xmm0
	movaps	%xmm0, %xmm1
	movq	16(%rbp), %rax
	movzbl	3(%rax), %eax
	movzbl	%al, %eax
	cvtsi2ss	%eax, %xmm0
	mulss	%xmm1, %xmm0
	.loc 6 19 0
	popq	%rbp
	.cfi_restore 6
	.cfi_def_cfa 7, 8
	ret
	.cfi_endproc
.LFE6562:
	.seh_endproc
	.section	.text$_ZN5pixel8negativeEv,"x"
	.linkonce discard
	.align 2
	.globl	_ZN5pixel8negativeEv
	.def	_ZN5pixel8negativeEv;	.scl	2;	.type	32;	.endef
	.seh_proc	_ZN5pixel8negativeEv
_ZN5pixel8negativeEv:
.LFB6563:
	.loc 6 20 0
	.cfi_startproc
	pushq	%rbp
	.seh_pushreg	%rbp
	.cfi_def_cfa_offset 16
	.cfi_offset 6, -16
	movq	%rsp, %rbp
	.seh_setframe	%rbp, 0
	.cfi_def_cfa_register 6
	subq	$32, %rsp
	.seh_stackalloc	32
	.seh_endprologue
	movq	%rcx, 16(%rbp)
	.loc 6 21 0
	movq	16(%rbp), %rcx
	call	_ZN5pixel3sumEv
	movl	%eax, %eax
	testq	%rax, %rax
	js	.L44
	cvtsi2ssq	%rax, %xmm0
	jmp	.L45
.L44:
	movq	%rax, %rdx
	shrq	%rdx
	andl	$1, %eax
	orq	%rax, %rdx
	cvtsi2ssq	%rdx, %xmm0
	addss	%xmm0, %xmm0
.L45:
	movss	.LC0(%rip), %xmm1
	subss	%xmm0, %xmm1
	movaps	%xmm1, %xmm0
	cvttss2siq	%xmm0, %rax
	.loc 6 22 0
	addq	$32, %rsp
	popq	%rbp
	.cfi_restore 6
	.cfi_def_cfa 7, 8
	ret
	.cfi_endproc
.LFE6563:
	.seh_endproc
	.section	.text$_ZN5pixel13negativeValueEv,"x"
	.linkonce discard
	.align 2
	.globl	_ZN5pixel13negativeValueEv
	.def	_ZN5pixel13negativeValueEv;	.scl	2;	.type	32;	.endef
	.seh_proc	_ZN5pixel13negativeValueEv
_ZN5pixel13negativeValueEv:
.LFB6564:
	.loc 6 23 0
	.cfi_startproc
	pushq	%rbp
	.seh_pushreg	%rbp
	.cfi_def_cfa_offset 16
	.cfi_offset 6, -16
	movq	%rsp, %rbp
	.seh_setframe	%rbp, 0
	.cfi_def_cfa_register 6
	subq	$32, %rsp
	.seh_stackalloc	32
	.seh_endprologue
	movq	%rcx, 16(%rbp)
	.loc 6 24 0
	movq	16(%rbp), %rcx
	call	_ZN5pixel8negativeEv
	movl	%eax, %edx
	movq	16(%rbp), %rcx
	call	_ZN5pixel5valueEj
	.loc 6 25 0
	addq	$32, %rsp
	popq	%rbp
	.cfi_restore 6
	.cfi_def_cfa 7, 8
	ret
	.cfi_endproc
.LFE6564:
	.seh_endproc
.lcomm _ZL7xDesign,40,32
.lcomm _ZL7oDesign,40,32
	.section	.text$_ZN4spotC1Eii,"x"
	.linkonce discard
	.align 2
	.globl	_ZN4spotC1Eii
	.def	_ZN4spotC1Eii;	.scl	2;	.type	32;	.endef
	.seh_proc	_ZN4spotC1Eii
_ZN4spotC1Eii:
.LFB6579:
	.file 7 "spot.h"
	.loc 7 12 0
	.cfi_startproc
	pushq	%rbp
	.seh_pushreg	%rbp
	.cfi_def_cfa_offset 16
	.cfi_offset 6, -16
	movq	%rsp, %rbp
	.seh_setframe	%rbp, 0
	.cfi_def_cfa_register 6
	.seh_endprologue
	movq	%rcx, 16(%rbp)
	movl	%edx, 24(%rbp)
	movl	%r8d, 32(%rbp)
.LBB8:
	.loc 7 14 0
	movq	16(%rbp), %rax
	movl	24(%rbp), %edx
	movl	%edx, (%rax)
	.loc 7 15 0
	movq	16(%rbp), %rax
	movl	32(%rbp), %edx
	movl	%edx, 4(%rax)
	.loc 7 16 0
	movq	16(%rbp), %rax
	movb	$0, 8(%rax)
.LBE8:
	.loc 7 17 0
	nop
	popq	%rbp
	.cfi_restore 6
	.cfi_def_cfa 7, 8
	ret
	.cfi_endproc
.LFE6579:
	.seh_endproc
	.section	.text$_ZN4spotC1Ev,"x"
	.linkonce discard
	.align 2
	.globl	_ZN4spotC1Ev
	.def	_ZN4spotC1Ev;	.scl	2;	.type	32;	.endef
	.seh_proc	_ZN4spotC1Ev
_ZN4spotC1Ev:
.LFB6582:
	.loc 7 18 0
	.cfi_startproc
	pushq	%rbp
	.seh_pushreg	%rbp
	.cfi_def_cfa_offset 16
	.cfi_offset 6, -16
	movq	%rsp, %rbp
	.seh_setframe	%rbp, 0
	.cfi_def_cfa_register 6
	.seh_endprologue
	movq	%rcx, 16(%rbp)
	.loc 7 18 0
	nop
	popq	%rbp
	.cfi_restore 6
	.cfi_def_cfa 7, 8
	ret
	.cfi_endproc
.LFE6582:
	.seh_endproc
	.section	.text$_ZN4spot4drawEP3boxR7boxsize,"x"
	.linkonce discard
	.align 2
	.globl	_ZN4spot4drawEP3boxR7boxsize
	.def	_ZN4spot4drawEP3boxR7boxsize;	.scl	2;	.type	32;	.endef
	.seh_proc	_ZN4spot4drawEP3boxR7boxsize
_ZN4spot4drawEP3boxR7boxsize:
.LFB6583:
	.loc 7 28 0
	.cfi_startproc
	pushq	%rbp
	.seh_pushreg	%rbp
	.cfi_def_cfa_offset 16
	.cfi_offset 6, -16
	pushq	%rbx
	.seh_pushreg	%rbx
	.cfi_def_cfa_offset 24
	.cfi_offset 3, -24
	subq	$88, %rsp
	.seh_stackalloc	88
	.cfi_def_cfa_offset 112
	leaq	128(%rsp), %rbp
	.seh_setframe	%rbp, 128
	.cfi_def_cfa 6, -16
	.seh_endprologue
	movq	%rcx, -16(%rbp)
	movq	%rdx, -8(%rbp)
	movq	%r8, 0(%rbp)
	.loc 7 29 0
	movq	-16(%rbp), %rax
	movzbl	8(%rax), %eax
	xorl	$1, %eax
	testb	%al, %al
	jne	.L65
	.loc 7 31 0
	movq	0(%rbp), %rax
	movq	8(%rax), %rdx
	movq	(%rax), %rax
	movq	%rax, -96(%rbp)
	movq	%rdx, -88(%rbp)
	.loc 7 32 0
	movss	.LC1(%rip), %xmm0
	movss	%xmm0, -60(%rbp)
	.loc 7 33 0
	leaq	-96(%rbp), %rax
	movss	.LC1(%rip), %xmm1
	movq	%rax, %rcx
	call	_ZN7boxsize9getscaleXEf
	movq	%xmm0, %rax
	movq	0(%rbp), %rdx
	movl	(%rdx), %edx
	cvtsi2sd	%edx, %xmm0
	movq	%rax, %xmm2
	addsd	%xmm0, %xmm2
	movapd	%xmm2, %xmm0
	cvttsd2si	%xmm0, %edx
	movq	0(%rbp), %rax
	movl	%edx, (%rax)
	.loc 7 34 0
	leaq	-96(%rbp), %rax
	movss	.LC1(%rip), %xmm1
	movq	%rax, %rcx
	call	_ZN7boxsize9getscaleYEf
	movq	%xmm0, %rax
	movq	0(%rbp), %rdx
	movl	4(%rdx), %edx
	cvtsi2sd	%edx, %xmm0
	movq	%rax, %xmm3
	addsd	%xmm0, %xmm3
	movapd	%xmm3, %xmm0
	cvttsd2si	%xmm0, %edx
	movq	0(%rbp), %rax
	movl	%edx, 4(%rax)
	.loc 7 35 0
	leaq	-96(%rbp), %rax
	movss	.LC2(%rip), %xmm1
	movq	%rax, %rcx
	call	_ZN7boxsize9getscaleXEf
	movq	%xmm0, %rax
	movq	0(%rbp), %rdx
	movl	8(%rdx), %edx
	cvtsi2sd	%edx, %xmm0
	movq	%rax, %xmm4
	subsd	%xmm4, %xmm0
	cvttsd2si	%xmm0, %edx
	movq	0(%rbp), %rax
	movl	%edx, 8(%rax)
	.loc 7 36 0
	leaq	-96(%rbp), %rax
	movss	.LC2(%rip), %xmm1
	movq	%rax, %rcx
	call	_ZN7boxsize9getscaleYEf
	movq	%xmm0, %rax
	movq	0(%rbp), %rdx
	movl	12(%rdx), %edx
	cvtsi2sd	%edx, %xmm0
	movq	%rax, %xmm5
	subsd	%xmm5, %xmm0
	cvttsd2si	%xmm0, %edx
	movq	0(%rbp), %rax
	movl	%edx, 12(%rax)
	.loc 7 37 0
	movq	-8(%rbp), %rax
	movq	%rax, %rcx
	call	_ZN3box14getFramebufferEv
	movq	%rax, -72(%rbp)
	.loc 7 38 0
	movq	-16(%rbp), %rax
	movq	16(%rax), %rax
	movzbl	(%rax), %eax
	testb	%al, %al
	je	.L54
	.loc 7 38 0 is_stmt 0 discriminator 1
	leaq	_ZL7xDesign(%rip), %rax
	jmp	.L55
.L54:
	.loc 7 38 0 discriminator 2
	leaq	_ZL7oDesign(%rip), %rax
.L55:
	.loc 7 38 0 discriminator 4
	movq	%rax, -80(%rbp)
.LBB9:
	.loc 7 39 0 is_stmt 1 discriminator 4
	movl	$0, -52(%rbp)
.L62:
	.loc 7 39 0 is_stmt 0 discriminator 1
	movq	0(%rbp), %rax
	movl	8(%rax), %eax
	cmpl	%eax, -52(%rbp)
	jge	.L51
.LBB10:
.LBB11:
	.loc 7 40 0 is_stmt 1
	movl	$0, -56(%rbp)
.L61:
	.loc 7 40 0 is_stmt 0 discriminator 2
	movq	0(%rbp), %rax
	movl	12(%rax), %eax
	cmpl	%eax, -56(%rbp)
	jge	.L57
	.loc 7 41 0 is_stmt 1
	movq	0(%rbp), %r8
	movl	-56(%rbp), %ecx
	movl	-52(%rbp), %edx
	movq	-80(%rbp), %rax
	movq	%r8, %r9
	movl	%ecx, %r8d
	movq	%rax, %rcx
	call	_ZN3png9getSampleEiiP7boxsize
	movq	%rax, %rcx
	call	_ZN5pixel13negativeValueEv
	ucomiss	.LC3(%rip), %xmm0
	jbe	.L64
	.loc 7 41 0 is_stmt 0 discriminator 2
	movl	$35, %ebx
	jmp	.L60
.L64:
	.loc 7 41 0 discriminator 3
	movl	$32, %ebx
.L60:
	.loc 7 41 0 discriminator 5
	movq	-8(%rbp), %rax
	movq	0(%rbp), %rdx
	movl	4(%rdx), %ecx
	movl	-56(%rbp), %edx
	leal	(%rcx,%rdx), %r8d
	movq	0(%rbp), %rdx
	movl	(%rdx), %ecx
	movl	-52(%rbp), %edx
	addl	%ecx, %edx
	movq	%rax, %rcx
	call	_ZN7boxsize3getEii
	movslq	%eax, %rdx
	movq	-72(%rbp), %rax
	addq	%rdx, %rax
	movb	%bl, (%rax)
	.loc 7 40 0 is_stmt 1 discriminator 5
	addl	$1, -56(%rbp)
	jmp	.L61
.L57:
.LBE11:
.LBE10:
	.loc 7 39 0 discriminator 2
	addl	$1, -52(%rbp)
	jmp	.L62
.L65:
.LBE9:
	.loc 7 30 0
	nop
.L51:
	.loc 7 44 0
	addq	$88, %rsp
	popq	%rbx
	.cfi_restore 3
	popq	%rbp
	.cfi_restore 6
	.cfi_def_cfa 7, -72
	ret
	.cfi_endproc
.LFE6583:
	.seh_endproc
	.section	.text$_ZN9gameStateC1EP6playeriiP4spotP3box,"x"
	.linkonce discard
	.align 2
	.globl	_ZN9gameStateC1EP6playeriiP4spotP3box
	.def	_ZN9gameStateC1EP6playeriiP4spotP3box;	.scl	2;	.type	32;	.endef
	.seh_proc	_ZN9gameStateC1EP6playeriiP4spotP3box
_ZN9gameStateC1EP6playeriiP4spotP3box:
.LFB6586:
	.file 8 "gameState.h"
	.loc 8 9 0
	.cfi_startproc
	pushq	%rbp
	.seh_pushreg	%rbp
	.cfi_def_cfa_offset 16
	.cfi_offset 6, -16
	movq	%rsp, %rbp
	.seh_setframe	%rbp, 0
	.cfi_def_cfa_register 6
	subq	$32, %rsp
	.seh_stackalloc	32
	.seh_endprologue
	movq	%rcx, 16(%rbp)
	movq	%rdx, 24(%rbp)
	movl	%r8d, 32(%rbp)
	movl	%r9d, 40(%rbp)
.LBB12:
	.loc 8 10 0
	movq	16(%rbp), %rax
	leaq	40(%rax), %rcx
	movq	56(%rbp), %rdx
	movl	40(%rbp), %eax
	movq	%rdx, %r8
	movl	%eax, %edx
	call	_ZN9gameState11draw_info_tC1EiP3box
	.loc 8 11 0
	movq	16(%rbp), %rax
	movl	$0, (%rax)
	.loc 8 12 0
	movq	16(%rbp), %rax
	movq	24(%rbp), %rdx
	movq	%rdx, 8(%rax)
	.loc 8 13 0
	movq	16(%rbp), %rax
	movl	32(%rbp), %edx
	movl	%edx, 4(%rax)
	.loc 8 14 0
	movq	16(%rbp), %rax
	movl	40(%rbp), %edx
	movl	%edx, 16(%rax)
	.loc 8 15 0
	movq	16(%rbp), %rax
	movq	48(%rbp), %rdx
	movq	%rdx, 24(%rax)
	.loc 8 16 0
	movq	16(%rbp), %rax
	movq	56(%rbp), %rdx
	movq	%rdx, 32(%rax)
.LBE12:
	.loc 8 17 0
	nop
	addq	$32, %rsp
	popq	%rbp
	.cfi_restore 6
	.cfi_def_cfa 7, 8
	ret
	.cfi_endproc
.LFE6586:
	.seh_endproc
	.section	.text$_ZN9gameStateC1ERKS_,"x"
	.linkonce discard
	.align 2
	.globl	_ZN9gameStateC1ERKS_
	.def	_ZN9gameStateC1ERKS_;	.scl	2;	.type	32;	.endef
	.seh_proc	_ZN9gameStateC1ERKS_
_ZN9gameStateC1ERKS_:
.LFB6589:
	.loc 8 18 0
	.cfi_startproc
	pushq	%rbp
	.seh_pushreg	%rbp
	.cfi_def_cfa_offset 16
	.cfi_offset 6, -16
	movq	%rsp, %rbp
	.seh_setframe	%rbp, 0
	.cfi_def_cfa_register 6
	subq	$32, %rsp
	.seh_stackalloc	32
	.seh_endprologue
	movq	%rcx, 16(%rbp)
	movq	%rdx, 24(%rbp)
.LBB13:
	.loc 8 19 0
	movq	16(%rbp), %rax
	leaq	40(%rax), %rcx
	movq	24(%rbp), %rax
	movq	32(%rax), %rdx
	movq	24(%rbp), %rax
	movl	16(%rax), %eax
	movq	%rdx, %r8
	movl	%eax, %edx
	call	_ZN9gameState11draw_info_tC1EiP3box
	.loc 8 20 0
	movq	24(%rbp), %rax
	movl	(%rax), %edx
	movq	16(%rbp), %rax
	movl	%edx, (%rax)
	.loc 8 21 0
	movq	24(%rbp), %rax
	movq	8(%rax), %rdx
	movq	16(%rbp), %rax
	movq	%rdx, 8(%rax)
	.loc 8 22 0
	movq	24(%rbp), %rax
	movl	4(%rax), %edx
	movq	16(%rbp), %rax
	movl	%edx, 4(%rax)
	.loc 8 23 0
	movq	24(%rbp), %rax
	movl	16(%rax), %edx
	movq	16(%rbp), %rax
	movl	%edx, 16(%rax)
	.loc 8 24 0
	movq	24(%rbp), %rax
	movq	24(%rax), %rdx
	movq	16(%rbp), %rax
	movq	%rdx, 24(%rax)
	.loc 8 25 0
	movq	24(%rbp), %rax
	movq	32(%rax), %rdx
	movq	16(%rbp), %rax
	movq	%rdx, 32(%rax)
.LBE13:
	.loc 8 26 0
	nop
	addq	$32, %rsp
	popq	%rbp
	.cfi_restore 6
	.cfi_def_cfa 7, 8
	ret
	.cfi_endproc
.LFE6589:
	.seh_endproc
	.section	.text$_ZN9gameState7getSpotEii,"x"
	.linkonce discard
	.align 2
	.globl	_ZN9gameState7getSpotEii
	.def	_ZN9gameState7getSpotEii;	.scl	2;	.type	32;	.endef
	.seh_proc	_ZN9gameState7getSpotEii
_ZN9gameState7getSpotEii:
.LFB6591:
	.loc 8 39 0
	.cfi_startproc
	pushq	%rbp
	.seh_pushreg	%rbp
	.cfi_def_cfa_offset 16
	.cfi_offset 6, -16
	movq	%rsp, %rbp
	.seh_setframe	%rbp, 0
	.cfi_def_cfa_register 6
	subq	$48, %rsp
	.seh_stackalloc	48
	.seh_endprologue
	movq	%rcx, 16(%rbp)
	movl	%edx, 24(%rbp)
	movl	%r8d, 32(%rbp)
	.loc 8 41 0
	movl	32(%rbp), %edx
	movl	24(%rbp), %eax
	movl	%edx, %r8d
	movl	%eax, %edx
	movq	16(%rbp), %rcx
	call	_ZN9gameState6isSpotEii
	xorl	$1, %eax
	testb	%al, %al
	je	.L69
	.loc 8 42 0
	movl	$0, %eax
	jmp	.L70
.L69:
	.loc 8 44 0
	movq	16(%rbp), %rax
	movl	16(%rax), %eax
	imull	32(%rbp), %eax
	movl	%eax, %edx
	movl	24(%rbp), %eax
	addl	%edx, %eax
	movl	%eax, -4(%rbp)
	.loc 8 45 0
	movq	16(%rbp), %rax
	movq	24(%rax), %rcx
	movl	-4(%rbp), %eax
	movslq	%eax, %rdx
	movq	%rdx, %rax
	addq	%rax, %rax
	addq	%rdx, %rax
	salq	$3, %rax
	addq	%rcx, %rax
.L70:
	.loc 8 46 0
	addq	$48, %rsp
	popq	%rbp
	.cfi_restore 6
	.cfi_def_cfa 7, 8
	ret
	.cfi_endproc
.LFE6591:
	.seh_endproc
	.section	.text$_ZN9gameState7getSpotEiiR4spot,"x"
	.linkonce discard
	.align 2
	.globl	_ZN9gameState7getSpotEiiR4spot
	.def	_ZN9gameState7getSpotEiiR4spot;	.scl	2;	.type	32;	.endef
	.seh_proc	_ZN9gameState7getSpotEiiR4spot
_ZN9gameState7getSpotEiiR4spot:
.LFB6592:
	.loc 8 47 0
	.cfi_startproc
	pushq	%rbp
	.seh_pushreg	%rbp
	.cfi_def_cfa_offset 16
	.cfi_offset 6, -16
	movq	%rsp, %rbp
	.seh_setframe	%rbp, 0
	.cfi_def_cfa_register 6
	subq	$48, %rsp
	.seh_stackalloc	48
	.seh_endprologue
	movq	%rcx, 16(%rbp)
	movl	%edx, 24(%rbp)
	movl	%r8d, 32(%rbp)
	movq	%r9, 40(%rbp)
	.loc 8 48 0
	movl	32(%rbp), %edx
	movl	24(%rbp), %eax
	movl	%edx, %r8d
	movl	%eax, %edx
	movq	16(%rbp), %rcx
	call	_ZN9gameState6isSpotEii
	xorl	$1, %eax
	testb	%al, %al
	je	.L72
	.loc 8 49 0
	movl	$0, %eax
	jmp	.L73
.L72:
	.loc 8 51 0
	movq	16(%rbp), %rax
	movl	16(%rax), %eax
	imull	32(%rbp), %eax
	movl	%eax, %edx
	movl	24(%rbp), %eax
	addl	%edx, %eax
	movl	%eax, -4(%rbp)
	.loc 8 52 0
	movq	16(%rbp), %rax
	movq	24(%rax), %rcx
	movl	-4(%rbp), %eax
	movslq	%eax, %rdx
	movq	%rdx, %rax
	addq	%rax, %rax
	addq	%rdx, %rax
	salq	$3, %rax
	leaq	(%rcx,%rax), %r8
	movq	40(%rbp), %rcx
	movq	(%r8), %rax
	movq	8(%r8), %rdx
	movq	%rax, (%rcx)
	movq	%rdx, 8(%rcx)
	movq	16(%r8), %rax
	movq	%rax, 16(%rcx)
	.loc 8 53 0
	movl	$1, %eax
.L73:
	.loc 8 54 0
	addq	$48, %rsp
	popq	%rbp
	.cfi_restore 6
	.cfi_def_cfa 7, 8
	ret
	.cfi_endproc
.LFE6592:
	.seh_endproc
	.section	.text$_ZN9gameState6isSpotEii,"x"
	.linkonce discard
	.align 2
	.globl	_ZN9gameState6isSpotEii
	.def	_ZN9gameState6isSpotEii;	.scl	2;	.type	32;	.endef
	.seh_proc	_ZN9gameState6isSpotEii
_ZN9gameState6isSpotEii:
.LFB6593:
	.loc 8 55 0
	.cfi_startproc
	pushq	%rbp
	.seh_pushreg	%rbp
	.cfi_def_cfa_offset 16
	.cfi_offset 6, -16
	movq	%rsp, %rbp
	.seh_setframe	%rbp, 0
	.cfi_def_cfa_register 6
	.seh_endprologue
	movq	%rcx, 16(%rbp)
	movl	%edx, 24(%rbp)
	movl	%r8d, 32(%rbp)
	.loc 8 56 0
	movq	16(%rbp), %rax
	movl	16(%rax), %eax
	cmpl	%eax, 32(%rbp)
	jge	.L75
	.loc 8 56 0 is_stmt 0 discriminator 1
	movq	16(%rbp), %rax
	movl	16(%rax), %eax
	cmpl	%eax, 24(%rbp)
	jge	.L75
	.loc 8 56 0 discriminator 3
	movl	$1, %eax
	jmp	.L76
.L75:
	.loc 8 56 0 discriminator 4
	movl	$0, %eax
.L76:
	.loc 8 57 0 is_stmt 1 discriminator 6
	popq	%rbp
	.cfi_restore 6
	.cfi_def_cfa 7, 8
	ret
	.cfi_endproc
.LFE6593:
	.seh_endproc
	.section	.text$_ZN9gameState11draw_info_tC1EiP3box,"x"
	.linkonce discard
	.align 2
	.globl	_ZN9gameState11draw_info_tC1EiP3box
	.def	_ZN9gameState11draw_info_tC1EiP3box;	.scl	2;	.type	32;	.endef
	.seh_proc	_ZN9gameState11draw_info_tC1EiP3box
_ZN9gameState11draw_info_tC1EiP3box:
.LFB6596:
	.loc 8 67 0
	.cfi_startproc
	pushq	%rbp
	.seh_pushreg	%rbp
	.cfi_def_cfa_offset 16
	.cfi_offset 6, -16
	movq	%rsp, %rbp
	.seh_setframe	%rbp, 0
	.cfi_def_cfa_register 6
	subq	$32, %rsp
	.seh_stackalloc	32
	.seh_endprologue
	movq	%rcx, 16(%rbp)
	movl	%edx, 24(%rbp)
	movq	%r8, 32(%rbp)
.LBB14:
	.loc 8 68 0
	movq	16(%rbp), %rax
	movl	24(%rbp), %edx
	movl	%edx, (%rax)
	.loc 8 69 0
	movq	16(%rbp), %rax
	movq	32(%rbp), %rdx
	movq	%rdx, 8(%rax)
	.loc 8 70 0
	movq	16(%rbp), %rcx
	call	_ZN9gameState11draw_info_t6updateEv
.LBE14:
	.loc 8 71 0
	nop
	addq	$32, %rsp
	popq	%rbp
	.cfi_restore 6
	.cfi_def_cfa 7, 8
	ret
	.cfi_endproc
.LFE6596:
	.seh_endproc
	.section	.text$_ZN9gameState11draw_info_t6updateEv,"x"
	.linkonce discard
	.align 2
	.globl	_ZN9gameState11draw_info_t6updateEv
	.def	_ZN9gameState11draw_info_t6updateEv;	.scl	2;	.type	32;	.endef
	.seh_proc	_ZN9gameState11draw_info_t6updateEv
_ZN9gameState11draw_info_t6updateEv:
.LFB6597:
	.loc 8 76 0
	.cfi_startproc
	pushq	%rbp
	.seh_pushreg	%rbp
	.cfi_def_cfa_offset 16
	.cfi_offset 6, -16
	movq	%rsp, %rbp
	.seh_setframe	%rbp, 0
	.cfi_def_cfa_register 6
	subq	$48, %rsp
	.seh_stackalloc	48
	.seh_endprologue
	movq	%rcx, 16(%rbp)
	.loc 8 77 0
	movq	16(%rbp), %rax
	movq	8(%rax), %rax
	movq	%rax, %rcx
	call	_ZN7boxsize6getMinEv
	movl	%eax, %edx
	movq	16(%rbp), %rax
	movl	%edx, 16(%rax)
	.loc 8 78 0
	movq	16(%rbp), %rax
	movl	16(%rax), %edx
	movq	16(%rbp), %rax
	movl	(%rax), %eax
	subl	%eax, %edx
	movl	%edx, %eax
	cvtsi2ss	%eax, %xmm0
	movss	%xmm0, -4(%rbp)
	.loc 8 79 0
	movq	16(%rbp), %rax
	movl	(%rax), %eax
	cvtsi2ss	%eax, %xmm0
	movss	-4(%rbp), %xmm1
	divss	%xmm0, %xmm1
	movaps	%xmm1, %xmm0
	movss	.LC4(%rip), %xmm1
	addss	%xmm1, %xmm0
	movq	16(%rbp), %rax
	movss	%xmm0, 20(%rax)
	.loc 8 80 0
	nop
	addq	$48, %rsp
	popq	%rbp
	.cfi_restore 6
	.cfi_def_cfa 7, 8
	ret
	.cfi_endproc
.LFE6597:
	.seh_endproc
	.section	.text$_ZN9gameState11draw_info_t10getBoxsizeEiiR7boxsize,"x"
	.linkonce discard
	.align 2
	.globl	_ZN9gameState11draw_info_t10getBoxsizeEiiR7boxsize
	.def	_ZN9gameState11draw_info_t10getBoxsizeEiiR7boxsize;	.scl	2;	.type	32;	.endef
	.seh_proc	_ZN9gameState11draw_info_t10getBoxsizeEiiR7boxsize
_ZN9gameState11draw_info_t10getBoxsizeEiiR7boxsize:
.LFB6598:
	.loc 8 81 0
	.cfi_startproc
	pushq	%rbp
	.seh_pushreg	%rbp
	.cfi_def_cfa_offset 16
	.cfi_offset 6, -16
	movq	%rsp, %rbp
	.seh_setframe	%rbp, 0
	.cfi_def_cfa_register 6
	subq	$80, %rsp
	.seh_stackalloc	80
	.seh_endprologue
	movq	%rcx, 16(%rbp)
	movl	%edx, 24(%rbp)
	movl	%r8d, 32(%rbp)
	movq	%r9, 40(%rbp)
	.loc 8 82 0
	cvtsi2ss	24(%rbp), %xmm0
	movq	16(%rbp), %rax
	movss	20(%rax), %xmm1
	mulss	%xmm1, %xmm0
	cvttss2si	%xmm0, %eax
	movl	%eax, -4(%rbp)
	.loc 8 83 0
	cvtsi2ss	32(%rbp), %xmm0
	movq	16(%rbp), %rax
	movss	20(%rax), %xmm1
	mulss	%xmm1, %xmm0
	cvttss2si	%xmm0, %eax
	movl	%eax, -8(%rbp)
	.loc 8 84 0
	movq	16(%rbp), %rax
	movss	20(%rax), %xmm0
	cvttss2si	%xmm0, %ecx
	movq	16(%rbp), %rax
	movss	20(%rax), %xmm0
	cvttss2si	%xmm0, %r9d
	movl	-8(%rbp), %r8d
	movl	-4(%rbp), %edx
	leaq	-32(%rbp), %rax
	movl	%ecx, 32(%rsp)
	movq	%rax, %rcx
	call	_ZN7boxsizeC1Eiiii
	movq	40(%rbp), %rcx
	movq	-32(%rbp), %rax
	movq	-24(%rbp), %rdx
	movq	%rax, (%rcx)
	movq	%rdx, 8(%rcx)
	.loc 8 85 0
	nop
	addq	$80, %rsp
	popq	%rbp
	.cfi_restore 6
	.cfi_def_cfa 7, 8
	ret
	.cfi_endproc
.LFE6598:
	.seh_endproc
	.section	.text$_ZN9gameState4drawEv,"x"
	.linkonce discard
	.align 2
	.globl	_ZN9gameState4drawEv
	.def	_ZN9gameState4drawEv;	.scl	2;	.type	32;	.endef
	.seh_proc	_ZN9gameState4drawEv
_ZN9gameState4drawEv:
.LFB6599:
	.loc 8 87 0
	.cfi_startproc
	pushq	%rbp
	.seh_pushreg	%rbp
	.cfi_def_cfa_offset 16
	.cfi_offset 6, -16
	movq	%rsp, %rbp
	.seh_setframe	%rbp, 0
	.cfi_def_cfa_register 6
	subq	$80, %rsp
	.seh_stackalloc	80
	.seh_endprologue
	movq	%rcx, 16(%rbp)
	.loc 8 88 0
	movq	16(%rbp), %rax
	movq	32(%rax), %rax
	movq	%rax, %rcx
	call	_ZN3box14getFramebufferEv
	movq	%rax, -24(%rbp)
	.loc 8 89 0
	movq	16(%rbp), %rax
	movq	32(%rax), %rax
	movq	%rax, %rcx
	call	_ZN7boxsize6getMinEv
	movl	%eax, -28(%rbp)
	.loc 8 90 0
	movq	16(%rbp), %rax
	movl	16(%rax), %eax
	movl	-28(%rbp), %edx
	subl	%eax, %edx
	movl	%edx, %eax
	cvtsi2ss	%eax, %xmm0
	movss	%xmm0, -32(%rbp)
	.loc 8 91 0
	movq	16(%rbp), %rax
	movl	16(%rax), %eax
	cvtsi2ss	%eax, %xmm0
	movss	-32(%rbp), %xmm1
	divss	%xmm0, %xmm1
	movaps	%xmm1, %xmm0
	movss	%xmm0, -36(%rbp)
.LBB15:
	.loc 8 92 0
	movss	-36(%rbp), %xmm1
	movss	.LC4(%rip), %xmm0
	addss	%xmm1, %xmm0
	movss	%xmm0, -4(%rbp)
.L86:
	.loc 8 92 0 is_stmt 0 discriminator 1
	cvtsi2ss	-28(%rbp), %xmm0
	ucomiss	-4(%rbp), %xmm0
	jbe	.L94
.LBB16:
.LBB17:
	.loc 8 93 0 is_stmt 1
	movl	$0, -8(%rbp)
.L85:
	.loc 8 93 0 is_stmt 0 discriminator 3
	movl	-8(%rbp), %eax
	cmpl	-28(%rbp), %eax
	jge	.L84
	.loc 8 94 0 is_stmt 1 discriminator 2
	movq	16(%rbp), %rax
	movq	32(%rax), %rax
	movq	%rax, %rcx
	movss	-4(%rbp), %xmm0
	cvttss2si	%xmm0, %eax
	movl	-8(%rbp), %edx
	movl	%edx, %r8d
	movl	%eax, %edx
	call	_ZN7boxsize3getEii
	movslq	%eax, %rdx
	movq	-24(%rbp), %rax
	addq	%rdx, %rax
	movb	$35, (%rax)
	.loc 8 93 0 discriminator 2
	addl	$1, -8(%rbp)
	jmp	.L85
.L84:
.LBE17:
.LBE16:
	.loc 8 92 0 discriminator 2
	movss	-36(%rbp), %xmm1
	movss	.LC4(%rip), %xmm0
	addss	%xmm1, %xmm0
	movss	-4(%rbp), %xmm1
	addss	%xmm1, %xmm0
	movss	%xmm0, -4(%rbp)
	jmp	.L86
.L94:
.LBE15:
.LBB18:
	.loc 8 97 0
	movss	-36(%rbp), %xmm1
	movss	.LC4(%rip), %xmm0
	addss	%xmm1, %xmm0
	movss	%xmm0, -12(%rbp)
.L91:
	.loc 8 97 0 is_stmt 0 discriminator 1
	cvtsi2ss	-28(%rbp), %xmm0
	ucomiss	-12(%rbp), %xmm0
	ja	.L93
.LBE18:
	.loc 8 102 0 is_stmt 1 discriminator 1
	jmp	.L95
.L93:
.LBB21:
.LBB19:
.LBB20:
	.loc 8 98 0
	movl	$0, -16(%rbp)
.L90:
	.loc 8 98 0 is_stmt 0 discriminator 3
	movl	-16(%rbp), %eax
	cmpl	-28(%rbp), %eax
	jge	.L89
	.loc 8 99 0 is_stmt 1 discriminator 2
	movq	16(%rbp), %rax
	movq	32(%rax), %rax
	movq	%rax, %rcx
	movss	-12(%rbp), %xmm0
	cvttss2si	%xmm0, %edx
	movl	-16(%rbp), %eax
	movl	%edx, %r8d
	movl	%eax, %edx
	call	_ZN7boxsize3getEii
	movslq	%eax, %rdx
	movq	-24(%rbp), %rax
	addq	%rdx, %rax
	movb	$35, (%rax)
	.loc 8 98 0 discriminator 2
	addl	$1, -16(%rbp)
	jmp	.L90
.L89:
.LBE20:
.LBE19:
	.loc 8 97 0 discriminator 2
	movss	-36(%rbp), %xmm1
	movss	.LC4(%rip), %xmm0
	addss	%xmm1, %xmm0
	movss	-12(%rbp), %xmm1
	addss	%xmm1, %xmm0
	movss	%xmm0, -12(%rbp)
	jmp	.L91
.L95:
.LBE21:
	.loc 8 102 0
	addq	$80, %rsp
	popq	%rbp
	.cfi_restore 6
	.cfi_def_cfa 7, 8
	ret
	.cfi_endproc
.LFE6599:
	.seh_endproc
	.section	.text$_ZN13tictactoeGameD1Ev,"x"
	.linkonce discard
	.align 2
	.globl	_ZN13tictactoeGameD1Ev
	.def	_ZN13tictactoeGameD1Ev;	.scl	2;	.type	32;	.endef
	.seh_proc	_ZN13tictactoeGameD1Ev
_ZN13tictactoeGameD1Ev:
.LFB6603:
	.file 9 "tictactoeGame.h"
	.loc 9 19 0
	.cfi_startproc
	pushq	%rbp
	.seh_pushreg	%rbp
	.cfi_def_cfa_offset 16
	.cfi_offset 6, -16
	movq	%rsp, %rbp
	.seh_setframe	%rbp, 0
	.cfi_def_cfa_register 6
	subq	$32, %rsp
	.seh_stackalloc	32
	.seh_endprologue
	movq	%rcx, 16(%rbp)
.LBB22:
	.loc 9 19 0
	leaq	16+_ZTV13tictactoeGame(%rip), %rdx
	movq	16(%rbp), %rax
	movq	%rdx, (%rax)
	movq	16(%rbp), %rax
	movq	%rax, %rcx
	call	_ZN10gameEngineD2Ev
.LBE22:
	nop
	addq	$32, %rsp
	popq	%rbp
	.cfi_restore 6
	.cfi_def_cfa 7, 8
	ret
	.cfi_endproc
.LFE6603:
	.seh_endproc
	.section	.text$_ZN13tictactoeGame4GameEv,"x"
	.linkonce discard
	.globl	_ZN13tictactoeGame4GameEv
	.def	_ZN13tictactoeGame4GameEv;	.scl	2;	.type	32;	.endef
	.seh_proc	_ZN13tictactoeGame4GameEv
_ZN13tictactoeGame4GameEv:
.LFB6600:
	.loc 9 23 0
	.cfi_startproc
	.cfi_personality 0x9b,.LDFCM0
	.cfi_lsda 0x1c,.LLSDA6600
	pushq	%rbp
	.seh_pushreg	%rbp
	.cfi_def_cfa_offset 16
	.cfi_offset 6, -16
	pushq	%rbx
	.seh_pushreg	%rbx
	.cfi_def_cfa_offset 24
	.cfi_offset 3, -24
	subq	$2344, %rsp
	.seh_stackalloc	2344
	.cfi_def_cfa_offset 2368
	leaq	128(%rsp), %rbp
	.seh_setframe	%rbp, 128
	.cfi_def_cfa 6, 2240
	.seh_endprologue
	.loc 9 24 0
	leaq	2096(%rbp), %rax
	movl	$100, 32(%rsp)
	movl	$100, %r9d
	movl	$0, %r8d
	movl	$0, %edx
	movq	%rax, %rcx
	call	_ZN7boxsizeC1Eiiii
	.loc 9 25 0
	leaq	2096(%rbp), %rax
	movq	%rax, %rcx
	call	_ZN7boxsize10charactersEv
	movl	%eax, 2200(%rbp)
	.loc 9 26 0
	movl	2200(%rbp), %eax
	cltq
	addq	$15, %rax
	addq	$15, %rax
	shrq	$4, %rax
	salq	$4, %rax
	call	___chkstk_ms
	subq	%rax, %rsp
	leaq	48(%rsp), %rax
	addq	$15, %rax
	shrq	$4, %rax
	salq	$4, %rax
	movq	%rax, 2192(%rbp)
	.loc 9 27 0
	movl	2200(%rbp), %r8d
	movq	2192(%rbp), %rcx
	leaq	2096(%rbp), %rdx
	leaq	2032(%rbp), %rax
	movl	$0, 32(%rsp)
	movl	%r8d, %r9d
	movq	%rcx, %r8
	movq	%rax, %rcx
	call	_ZN3boxC1ER7boxsizePcib
	.loc 9 28 0
	movl	2200(%rbp), %eax
	cltq
	salq	$2, %rax
	addq	$15, %rax
	addq	$15, %rax
	shrq	$4, %rax
	salq	$4, %rax
	call	___chkstk_ms
	subq	%rax, %rsp
	leaq	48(%rsp), %rax
	addq	$15, %rax
	shrq	$4, %rax
	salq	$4, %rax
	movq	%rax, 2184(%rbp)
	.loc 9 29 0
	movl	$3, 2180(%rbp)
	.loc 9 30 0
	movl	2180(%rbp), %eax
	imull	2180(%rbp), %eax
	movl	%eax, 2176(%rbp)
	.loc 9 31 0
	movl	$2, 2172(%rbp)
	.loc 9 32 0
	movl	2180(%rbp), %eax
	movslq	%eax, %rdx
	movq	%rdx, %rax
	addq	%rax, %rax
	addq	%rdx, %rax
	salq	$3, %rax
	addq	$15, %rax
	addq	$15, %rax
	shrq	$4, %rax
	salq	$4, %rax
	call	___chkstk_ms
	subq	%rax, %rsp
	leaq	48(%rsp), %rax
	addq	$15, %rax
	shrq	$4, %rax
	salq	$4, %rax
	movq	%rax, 2160(%rbp)
.LBB23:
	.loc 9 33 0
	movl	$0, 2204(%rbp)
.L99:
	.loc 9 33 0 is_stmt 0 discriminator 3
	movl	2204(%rbp), %eax
	cmpl	2176(%rbp), %eax
	jge	.L98
	.loc 9 34 0 is_stmt 1 discriminator 2
	movl	2204(%rbp), %eax
	cltd
	idivl	2180(%rbp)
	movl	%eax, %ecx
	movl	2204(%rbp), %eax
	cltd
	idivl	2180(%rbp)
	leaq	2112(%rbp), %rax
	movl	%ecx, %r8d
	movq	%rax, %rcx
	call	_ZN4spotC1Eii
	movl	2204(%rbp), %eax
	movslq	%eax, %rdx
	movq	%rdx, %rax
	addq	%rax, %rax
	addq	%rdx, %rax
	salq	$3, %rax
	movq	%rax, %rdx
	movq	2160(%rbp), %rax
	leaq	(%rdx,%rax), %rcx
	movq	2112(%rbp), %rax
	movq	2120(%rbp), %rdx
	movq	%rax, (%rcx)
	movq	%rdx, 8(%rcx)
	movq	2128(%rbp), %rax
	movq	%rax, 16(%rcx)
	.loc 9 33 0 discriminator 2
	addl	$1, 2204(%rbp)
	jmp	.L99
.L98:
.LBE23:
	.loc 9 36 0
	movl	2172(%rbp), %eax
	cltq
	addq	$15, %rax
	addq	$15, %rax
	shrq	$4, %rax
	salq	$4, %rax
	call	___chkstk_ms
	subq	%rax, %rsp
	leaq	48(%rsp), %rax
	addq	$15, %rax
	shrq	$4, %rax
	salq	$4, %rax
	movq	%rax, 2152(%rbp)
	.loc 9 37 0
	leaq	2151(%rbp), %rax
	movl	$1, %edx
	movq	%rax, %rcx
	call	_ZN6playerC1Eb
	movq	2152(%rbp), %rax
	leaq	1(%rax), %rdx
	movzbl	2151(%rbp), %eax
	movb	%al, (%rdx)
	.loc 9 38 0
	movl	2180(%rbp), %r9d
	movl	2172(%rbp), %r8d
	movq	2152(%rbp), %rdx
	leaq	1968(%rbp), %rax
	leaq	2032(%rbp), %rcx
	movq	%rcx, 40(%rsp)
	movq	2160(%rbp), %rcx
	movq	%rcx, 32(%rsp)
	movq	%rax, %rcx
.LEHB0:
	call	_ZN9gameStateC1EP6playeriiP4spotP3box
	.loc 9 39 0
	leaq	2032(%rbp), %r8
	movq	2184(%rbp), %rcx
	leaq	1968(%rbp), %rdx
	leaq	-80(%rbp), %rax
	movq	%r8, %r9
	movq	%rcx, %r8
	movq	%rax, %rcx
	call	_ZN13tictactoeGameC1ER9gameStateP10_CHAR_INFOR3box
.LEHE0:
	.loc 9 40 0
	leaq	-80(%rbp), %rax
	movq	%rax, %rcx
.LEHB1:
	call	_ZN10gameEngine5StartEv
.LEHE1:
	.loc 9 39 0
	leaq	-80(%rbp), %rax
	movq	%rax, %rcx
	call	_ZN13tictactoeGameD1Ev
	.loc 9 41 0
	jmp	.L102
.L101:
	movq	%rax, %rbx
	.loc 9 39 0
	leaq	-80(%rbp), %rax
	movq	%rax, %rcx
	call	_ZN13tictactoeGameD1Ev
	movq	%rbx, %rax
	movq	%rax, %rcx
.LEHB2:
	call	_Unwind_Resume
	nop
.LEHE2:
.L102:
	.loc 9 41 0
	leaq	2216(%rbp), %rsp
	popq	%rbx
	.cfi_restore 3
	popq	%rbp
	.cfi_restore 6
	.cfi_def_cfa 7, -2328
	ret
	.cfi_endproc
.LFE6600:
	.def	__gxx_personality_seh0;	.scl	2;	.type	32;	.endef
	.seh_handler	__gxx_personality_seh0, @unwind, @except
	.seh_handlerdata
.LLSDA6600:
	.byte	0xff
	.byte	0xff
	.byte	0x1
	.uleb128 .LLSDACSE6600-.LLSDACSB6600
.LLSDACSB6600:
	.uleb128 .LEHB0-.LFB6600
	.uleb128 .LEHE0-.LEHB0
	.uleb128 0
	.uleb128 0
	.uleb128 .LEHB1-.LFB6600
	.uleb128 .LEHE1-.LEHB1
	.uleb128 .L101-.LFB6600
	.uleb128 0
	.uleb128 .LEHB2-.LFB6600
	.uleb128 .LEHE2-.LEHB2
	.uleb128 0
	.uleb128 0
.LLSDACSE6600:
	.section	.text$_ZN13tictactoeGame4GameEv,"x"
	.linkonce discard
	.seh_endproc
	.section .rdata,"dr"
	.align 2
.LC5:
	.ascii "R\0a\0s\0t\0e\0r\0\0\0"
	.section	.text$_ZN13tictactoeGameC1ER9gameStateP10_CHAR_INFOR3box,"x"
	.linkonce discard
	.align 2
	.globl	_ZN13tictactoeGameC1ER9gameStateP10_CHAR_INFOR3box
	.def	_ZN13tictactoeGameC1ER9gameStateP10_CHAR_INFOR3box;	.scl	2;	.type	32;	.endef
	.seh_proc	_ZN13tictactoeGameC1ER9gameStateP10_CHAR_INFOR3box
_ZN13tictactoeGameC1ER9gameStateP10_CHAR_INFOR3box:
.LFB6606:
	.loc 9 43 0
	.cfi_startproc
	.cfi_personality 0x9b,.LDFCM0
	.cfi_lsda 0x1c,.LLSDA6606
	pushq	%rbp
	.seh_pushreg	%rbp
	.cfi_def_cfa_offset 16
	.cfi_offset 6, -16
	pushq	%rbx
	.seh_pushreg	%rbx
	.cfi_def_cfa_offset 24
	.cfi_offset 3, -24
	subq	$56, %rsp
	.seh_stackalloc	56
	.cfi_def_cfa_offset 80
	leaq	128(%rsp), %rbp
	.seh_setframe	%rbp, 128
	.cfi_def_cfa 6, -48
	.seh_endprologue
	movq	%rcx, -48(%rbp)
	movq	%rdx, -40(%rbp)
	movq	%r8, -32(%rbp)
	movq	%r9, -24(%rbp)
.LBB24:
	.loc 9 44 0
	movq	-48(%rbp), %rbx
	movl	$-11, %ecx
	movq	__imp_GetStdHandle(%rip), %rax
.LEHB3:
	call	*%rax
.LVL0:
	movq	%rax, %rcx
	movq	-32(%rbp), %rdx
	movq	-24(%rbp), %rax
	movl	$0, 32(%rsp)
	movq	%rdx, %r9
	movq	%rcx, %r8
	movq	%rax, %rdx
	movq	%rbx, %rcx
	call	_ZN10gameEngineC2EP3boxPvP10_CHAR_INFOb
.LEHE3:
	leaq	16+_ZTV13tictactoeGame(%rip), %rdx
	movq	-48(%rbp), %rax
	movq	%rdx, (%rax)
	movq	-48(%rbp), %rax
	movl	$0, 1960(%rax)
	movq	-48(%rbp), %rax
	leaq	1968(%rax), %rcx
	movq	-40(%rbp), %rax
	movq	%rax, %rdx
.LEHB4:
	call	_ZN9gameStateC1ERKS_
	.loc 9 46 0
	movq	-48(%rbp), %rax
	movq	-24(%rbp), %rdx
	movq	%rdx, 2032(%rax)
	.loc 9 47 0
	movl	$-11, %ecx
	movq	__imp_GetStdHandle(%rip), %rax
	call	*%rax
.LVL1:
	movq	%rax, %rdx
	movq	-48(%rbp), %rax
	movq	%rdx, 88(%rax)
	.loc 9 48 0
	movl	$-10, %ecx
	movq	__imp_GetStdHandle(%rip), %rax
	call	*%rax
.LVL2:
	.loc 9 48 0 is_stmt 0 discriminator 1
	movq	%rax, %rdx
	movq	-48(%rbp), %rax
	movq	%rdx, 96(%rax)
	.loc 9 49 0 is_stmt 1 discriminator 1
	movq	-48(%rbp), %rax
	movq	-24(%rbp), %rdx
	movl	12(%rdx), %r8d
	movq	-24(%rbp), %rdx
	movl	8(%rdx), %edx
	leaq	.LC5(%rip), %rcx
	movq	%rcx, 40(%rsp)
	movl	$8, 32(%rsp)
	movl	$8, %r9d
	movq	%rax, %rcx
	call	_ZN10gameEngine16ConstructConsoleEiiiiPw
	.loc 9 50 0
	movq	-48(%rbp), %rax
	movl	$60, %edx
	movq	%rax, %rcx
	call	_ZN10gameEngine23SetTargetTicksPerSecondEi
.LEHE4:
	.loc 9 51 0
	movq	-48(%rbp), %rax
	movb	$0, 26(%rax)
.LBE24:
	.loc 9 52 0
	jmp	.L106
.L105:
	movq	%rax, %rbx
.LBB25:
	.loc 9 44 0
	movq	-48(%rbp), %rax
	movq	%rax, %rcx
	call	_ZN10gameEngineD2Ev
	movq	%rbx, %rax
	movq	%rax, %rcx
.LEHB5:
	call	_Unwind_Resume
	nop
.LEHE5:
.L106:
.LBE25:
	.loc 9 52 0
	addq	$56, %rsp
	popq	%rbx
	.cfi_restore 3
	popq	%rbp
	.cfi_restore 6
	.cfi_def_cfa 7, -40
	ret
	.cfi_endproc
.LFE6606:
	.seh_handler	__gxx_personality_seh0, @unwind, @except
	.seh_handlerdata
.LLSDA6606:
	.byte	0xff
	.byte	0xff
	.byte	0x1
	.uleb128 .LLSDACSE6606-.LLSDACSB6606
.LLSDACSB6606:
	.uleb128 .LEHB3-.LFB6606
	.uleb128 .LEHE3-.LEHB3
	.uleb128 0
	.uleb128 0
	.uleb128 .LEHB4-.LFB6606
	.uleb128 .LEHE4-.LEHB4
	.uleb128 .L105-.LFB6606
	.uleb128 0
	.uleb128 .LEHB5-.LFB6606
	.uleb128 .LEHE5-.LEHB5
	.uleb128 0
	.uleb128 0
.LLSDACSE6606:
	.section	.text$_ZN13tictactoeGameC1ER9gameStateP10_CHAR_INFOR3box,"x"
	.linkonce discard
	.seh_endproc
	.section	.text$_ZN13tictactoeGame8OnUpdateEf,"x"
	.linkonce discard
	.align 2
	.globl	_ZN13tictactoeGame8OnUpdateEf
	.def	_ZN13tictactoeGame8OnUpdateEf;	.scl	2;	.type	32;	.endef
	.seh_proc	_ZN13tictactoeGame8OnUpdateEf
_ZN13tictactoeGame8OnUpdateEf:
.LFB6607:
	.loc 9 54 0
	.cfi_startproc
	pushq	%rbp
	.seh_pushreg	%rbp
	.cfi_def_cfa_offset 16
	.cfi_offset 6, -16
	pushq	%rbx
	.seh_pushreg	%rbx
	.cfi_def_cfa_offset 24
	.cfi_offset 3, -24
	subq	$40, %rsp
	.seh_stackalloc	40
	.cfi_def_cfa_offset 64
	leaq	128(%rsp), %rbp
	.seh_setframe	%rbp, 128
	.cfi_def_cfa 6, -64
	.seh_endprologue
	movq	%rcx, -64(%rbp)
	movss	%xmm1, -56(%rbp)
	.loc 9 55 0
	movq	-64(%rbp), %rax
	movl	$27, %edx
	movq	%rax, %rcx
	call	_ZN10gameEngine6getKeyEi
	movzbl	1(%rax), %eax
	testb	%al, %al
	je	.L108
	.loc 9 56 0
	movq	-64(%rbp), %rax
	movq	%rax, %rcx
	call	_ZN10gameEngine5CloseEv
.L108:
	.loc 9 58 0
	movq	-64(%rbp), %rax
	movzbl	1937(%rax), %eax
	testb	%al, %al
	je	.L109
	.loc 9 59 0
	movq	-64(%rbp), %rax
	movq	%rax, %rcx
	call	_ZN10gameEngine9getMouseYEv
	movl	%eax, %ebx
	movq	-64(%rbp), %rax
	movq	%rax, %rcx
	call	_ZN10gameEngine9getMouseXEv
	movl	%ebx, %r8d
	movl	%eax, %edx
	movq	-64(%rbp), %rcx
	call	_ZN13tictactoeGame7OnClickEii
.L109:
	.loc 9 61 0
	movl	$0, %eax
	.loc 9 62 0
	addq	$40, %rsp
	popq	%rbx
	.cfi_restore 3
	popq	%rbp
	.cfi_restore 6
	.cfi_def_cfa 7, -24
	ret
	.cfi_endproc
.LFE6607:
	.seh_endproc
	.section .rdata,"dr"
.LC6:
	.ascii "Thank you for playing!\12\0"
	.section	.text$_ZN13tictactoeGame7OnClickEii,"x"
	.linkonce discard
	.align 2
	.globl	_ZN13tictactoeGame7OnClickEii
	.def	_ZN13tictactoeGame7OnClickEii;	.scl	2;	.type	32;	.endef
	.seh_proc	_ZN13tictactoeGame7OnClickEii
_ZN13tictactoeGame7OnClickEii:
.LFB6608:
	.loc 9 64 0
	.cfi_startproc
	pushq	%rbp
	.seh_pushreg	%rbp
	.cfi_def_cfa_offset 16
	.cfi_offset 6, -16
	movq	%rsp, %rbp
	.seh_setframe	%rbp, 0
	.cfi_def_cfa_register 6
	subq	$96, %rsp
	.seh_stackalloc	96
	.seh_endprologue
	movq	%rcx, 16(%rbp)
	movl	%edx, 24(%rbp)
	movl	%r8d, 32(%rbp)
	.loc 9 66 0
	leaq	-4(%rbp), %r8
	movl	32(%rbp), %ecx
	movl	24(%rbp), %eax
	leaq	-8(%rbp), %rdx
	movq	%rdx, 32(%rsp)
	movq	%r8, %r9
	movl	%ecx, %r8d
	movl	%eax, %edx
	movq	16(%rbp), %rcx
	call	_ZN13tictactoeGame13TranslateSpotEiiRiS0_
	.loc 9 67 0
	movq	16(%rbp), %rax
	leaq	1968(%rax), %rcx
	movl	-8(%rbp), %edx
	movl	-4(%rbp), %eax
	movl	%edx, %r8d
	movl	%eax, %edx
	call	_ZN9gameState6isSpotEii
	xorl	$1, %eax
	testb	%al, %al
	jne	.L117
	.loc 9 69 0
	leaq	-32(%rbp), %rax
	movq	%rax, %rcx
	call	_ZN4spotC1Ev
	.loc 9 70 0
	movq	16(%rbp), %rax
	leaq	1968(%rax), %rcx
	leaq	-32(%rbp), %r8
	movl	32(%rbp), %edx
	movl	24(%rbp), %eax
	movq	%r8, %r9
	movl	%edx, %r8d
	movl	%eax, %edx
	call	_ZN9gameState7getSpotEiiR4spot
	.loc 9 71 0
	movzbl	-24(%rbp), %eax
	testb	%al, %al
	jne	.L118
	.loc 9 73 0
	movb	$1, -24(%rbp)
	.loc 9 74 0
	movq	16(%rbp), %rax
	movq	1976(%rax), %r8
	movq	16(%rbp), %rax
	movl	1960(%rax), %eax
	leal	1(%rax), %ecx
	movq	16(%rbp), %rdx
	movl	%ecx, 1960(%rdx)
	movq	16(%rbp), %rdx
	movl	1972(%rdx), %ecx
	cltd
	idivl	%ecx
	movl	%edx, %eax
	cltq
	addq	%r8, %rax
	movq	%rax, -16(%rbp)
	.loc 9 76 0
	leaq	-48(%rbp), %rax
	movq	%rax, %rcx
	call	_ZN7boxsizeC1Ev
	.loc 9 77 0
	movq	16(%rbp), %rax
	leaq	2008(%rax), %rcx
	movl	-8(%rbp), %edx
	movl	-4(%rbp), %eax
	leaq	-48(%rbp), %r8
	movq	%r8, %r9
	movl	%edx, %r8d
	movl	%eax, %edx
	call	_ZN9gameState11draw_info_t10getBoxsizeEiiR7boxsize
	.loc 9 78 0
	movq	16(%rbp), %rax
	movq	2032(%rax), %rdx
	leaq	-48(%rbp), %rcx
	leaq	-32(%rbp), %rax
	movq	%rcx, %r8
	movq	%rax, %rcx
	call	_ZN4spot4drawEP3boxR7boxsize
	.loc 9 79 0
	movl	-4(%rbp), %edx
	movq	16(%rbp), %rax
	movl	%edx, 1952(%rax)
	.loc 9 80 0
	movl	-8(%rbp), %edx
	movq	16(%rbp), %rax
	movl	%edx, 1956(%rax)
	.loc 9 82 0
	leaq	-32(%rbp), %rax
	movq	%rax, %rdx
	movq	16(%rbp), %rcx
	call	_ZN13tictactoeGame5isWinER4spot
	testb	%al, %al
	je	.L119
	.loc 9 83 0
	leaq	.LC6(%rip), %rcx
	call	_ZL6printfPKcz
	.loc 9 84 0
	movl	$0, %ecx
	call	exit
.L117:
	.loc 9 68 0
	nop
	jmp	.L111
.L118:
	.loc 9 72 0
	nop
	jmp	.L111
.L119:
	.loc 9 87 0
	nop
.L111:
	.loc 9 88 0
	addq	$96, %rsp
	popq	%rbp
	.cfi_restore 6
	.cfi_def_cfa 7, 8
	ret
	.cfi_endproc
.LFE6608:
	.seh_endproc
	.section	.text$_ZN13tictactoeGame5isWinER4spot,"x"
	.linkonce discard
	.align 2
	.globl	_ZN13tictactoeGame5isWinER4spot
	.def	_ZN13tictactoeGame5isWinER4spot;	.scl	2;	.type	32;	.endef
	.seh_proc	_ZN13tictactoeGame5isWinER4spot
_ZN13tictactoeGame5isWinER4spot:
.LFB6609:
	.loc 9 90 0
	.cfi_startproc
	pushq	%rbp
	.seh_pushreg	%rbp
	.cfi_def_cfa_offset 16
	.cfi_offset 6, -16
	movq	%rsp, %rbp
	.seh_setframe	%rbp, 0
	.cfi_def_cfa_register 6
	subq	$80, %rsp
	.seh_stackalloc	80
	.seh_endprologue
	movq	%rcx, 16(%rbp)
	movq	%rdx, 24(%rbp)
	.loc 9 91 0
	movq	16(%rbp), %rax
	movl	1984(%rax), %eax
	movl	%eax, -32(%rbp)
	.loc 9 92 0
	movq	24(%rbp), %rax
	movq	16(%rax), %rax
	movq	%rax, -40(%rbp)
	.loc 9 94 0
	movq	16(%rbp), %rax
	movl	1984(%rax), %edx
	movq	24(%rbp), %rax
	movl	(%rax), %eax
	subl	%eax, %edx
	movl	%edx, %eax
	subl	$1, %eax
	movl	%eax, -44(%rbp)
	.loc 9 95 0
	movq	16(%rbp), %rax
	movl	1984(%rax), %edx
	movq	24(%rbp), %rax
	movl	4(%rax), %eax
	subl	%eax, %edx
	movl	%edx, %eax
	subl	$1, %eax
	movl	%eax, -48(%rbp)
	.loc 9 97 0
	movb	$1, -1(%rbp)
	movb	$1, -2(%rbp)
	movb	$1, -3(%rbp)
	movb	$1, -4(%rbp)
.LBB26:
	.loc 9 102 0
	movl	$0, -8(%rbp)
.L122:
	.loc 9 102 0 is_stmt 0 discriminator 4
	movzbl	-2(%rbp), %eax
	xorl	$1, %eax
	testb	%al, %al
	jne	.L121
	.loc 9 102 0 discriminator 2
	movq	16(%rbp), %rax
	movl	1984(%rax), %eax
	cmpl	%eax, -8(%rbp)
	jge	.L121
	.loc 9 103 0 is_stmt 1 discriminator 3
	movq	16(%rbp), %rax
	leaq	1968(%rax), %rcx
	movq	24(%rbp), %rax
	movl	(%rax), %eax
	movl	-8(%rbp), %edx
	movl	%edx, %r8d
	movl	%eax, %edx
	call	_ZN9gameState7getSpotEii
	movq	16(%rax), %rax
	cmpq	%rax, -40(%rbp)
	sete	%al
	movb	%al, -2(%rbp)
	.loc 9 102 0 discriminator 3
	addl	$1, -8(%rbp)
	jmp	.L122
.L121:
.LBE26:
.LBB27:
	.loc 9 106 0
	movl	$0, -12(%rbp)
.L124:
	.loc 9 106 0 is_stmt 0 discriminator 4
	movzbl	-1(%rbp), %eax
	xorl	$1, %eax
	testb	%al, %al
	jne	.L123
	.loc 9 106 0 discriminator 2
	movq	16(%rbp), %rax
	movl	1984(%rax), %eax
	cmpl	%eax, -12(%rbp)
	jge	.L123
	.loc 9 107 0 is_stmt 1 discriminator 3
	movq	16(%rbp), %rax
	leaq	1968(%rax), %rcx
	movq	24(%rbp), %rax
	movl	4(%rax), %edx
	movl	-12(%rbp), %eax
	movl	%edx, %r8d
	movl	%eax, %edx
	call	_ZN9gameState7getSpotEii
	movq	16(%rax), %rax
	cmpq	%rax, -40(%rbp)
	sete	%al
	movb	%al, -1(%rbp)
	.loc 9 106 0 discriminator 3
	addl	$1, -12(%rbp)
	jmp	.L124
.L123:
.LBE27:
.LBB28:
	.loc 9 111 0
	movq	16(%rbp), %rax
	movl	1984(%rax), %eax
	andl	$1, %eax
	testl	%eax, %eax
	je	.L125
.LBB29:
.LBB30:
	.loc 9 113 0
	movl	$0, -16(%rbp)
	movl	$0, -20(%rbp)
.L127:
	.loc 9 113 0 is_stmt 0 discriminator 5
	movzbl	-3(%rbp), %eax
	xorl	$1, %eax
	testb	%al, %al
	jne	.L126
	.loc 9 113 0 discriminator 2
	movq	16(%rbp), %rax
	movl	1984(%rax), %eax
	cmpl	%eax, -16(%rbp)
	jge	.L126
	.loc 9 113 0 discriminator 3
	movq	16(%rbp), %rax
	movl	1984(%rax), %eax
	cmpl	%eax, -20(%rbp)
	jge	.L126
	.loc 9 114 0 is_stmt 1 discriminator 4
	movq	16(%rbp), %rax
	leaq	1968(%rax), %rcx
	movl	-20(%rbp), %edx
	movl	-16(%rbp), %eax
	movl	%edx, %r8d
	movl	%eax, %edx
	call	_ZN9gameState7getSpotEii
	movq	16(%rax), %rax
	cmpq	%rax, -40(%rbp)
	sete	%al
	movb	%al, -3(%rbp)
	.loc 9 113 0 discriminator 4
	addl	$1, -16(%rbp)
	addl	$1, -20(%rbp)
	jmp	.L127
.L126:
.LBE30:
.LBB31:
	.loc 9 117 0
	movl	$0, -24(%rbp)
	movq	16(%rbp), %rax
	movl	1984(%rax), %eax
	subl	$1, %eax
	movl	%eax, -28(%rbp)
.L129:
	.loc 9 117 0 is_stmt 0 discriminator 5
	movzbl	-4(%rbp), %eax
	xorl	$1, %eax
	testb	%al, %al
	jne	.L130
	.loc 9 117 0 discriminator 2
	movq	16(%rbp), %rax
	movl	1984(%rax), %eax
	cmpl	%eax, -24(%rbp)
	jge	.L130
	.loc 9 117 0 discriminator 3
	cmpl	$0, -28(%rbp)
	js	.L130
	.loc 9 118 0 is_stmt 1 discriminator 4
	movq	16(%rbp), %rax
	leaq	1968(%rax), %rcx
	movl	-28(%rbp), %edx
	movl	-24(%rbp), %eax
	movl	%edx, %r8d
	movl	%eax, %edx
	call	_ZN9gameState7getSpotEii
	movq	16(%rax), %rax
	cmpq	%rax, -40(%rbp)
	sete	%al
	movb	%al, -4(%rbp)
	.loc 9 117 0 discriminator 4
	addl	$1, -24(%rbp)
	subl	$1, -28(%rbp)
	jmp	.L129
.L125:
.LBE31:
.LBE29:
	.loc 9 121 0
	movb	$0, -3(%rbp)
	.loc 9 122 0
	movb	$0, -4(%rbp)
.L130:
.LBE28:
	.loc 9 124 0
	movzbl	-1(%rbp), %eax
	orb	-2(%rbp), %al
	orb	-3(%rbp), %al
	orb	-4(%rbp), %al
	.loc 9 126 0
	addq	$80, %rsp
	popq	%rbp
	.cfi_restore 6
	.cfi_def_cfa 7, 8
	ret
	.cfi_endproc
.LFE6609:
	.seh_endproc
	.section	.text$_ZN13tictactoeGame13TranslateSpotEiiRiS0_,"x"
	.linkonce discard
	.align 2
	.globl	_ZN13tictactoeGame13TranslateSpotEiiRiS0_
	.def	_ZN13tictactoeGame13TranslateSpotEiiRiS0_;	.scl	2;	.type	32;	.endef
	.seh_proc	_ZN13tictactoeGame13TranslateSpotEiiRiS0_
_ZN13tictactoeGame13TranslateSpotEiiRiS0_:
.LFB6610:
	.loc 9 130 0
	.cfi_startproc
	pushq	%rbp
	.seh_pushreg	%rbp
	.cfi_def_cfa_offset 16
	.cfi_offset 6, -16
	movq	%rsp, %rbp
	.seh_setframe	%rbp, 0
	.cfi_def_cfa_register 6
	subq	$16, %rsp
	.seh_stackalloc	16
	.seh_endprologue
	movq	%rcx, 16(%rbp)
	movl	%edx, 24(%rbp)
	movl	%r8d, 32(%rbp)
	movq	%r9, 40(%rbp)
	.loc 9 131 0
	cvtsi2ss	24(%rbp), %xmm0
	movq	16(%rbp), %rax
	movq	2032(%rax), %rax
	movl	8(%rax), %eax
	cvtsi2ss	%eax, %xmm1
	divss	%xmm1, %xmm0
	movss	%xmm0, -4(%rbp)
	.loc 9 132 0
	cvtsi2ss	32(%rbp), %xmm0
	movq	16(%rbp), %rax
	movq	2032(%rax), %rax
	movl	12(%rax), %eax
	cvtsi2ss	%eax, %xmm1
	divss	%xmm1, %xmm0
	movss	%xmm0, -8(%rbp)
	.loc 9 133 0
	movq	16(%rbp), %rax
	movl	1984(%rax), %eax
	cvtsi2ss	%eax, %xmm0
	mulss	-4(%rbp), %xmm0
	cvttss2si	%xmm0, %edx
	movq	40(%rbp), %rax
	movl	%edx, (%rax)
	.loc 9 134 0
	movq	16(%rbp), %rax
	movl	1984(%rax), %eax
	cvtsi2ss	%eax, %xmm0
	mulss	-8(%rbp), %xmm0
	cvttss2si	%xmm0, %edx
	movq	48(%rbp), %rax
	movl	%edx, (%rax)
	.loc 9 135 0
	nop
	addq	$16, %rsp
	popq	%rbp
	.cfi_restore 6
	.cfi_def_cfa 7, 8
	ret
	.cfi_endproc
.LFE6610:
	.seh_endproc
	.section	.text$_ZN13tictactoeGame8OnCreateEv,"x"
	.linkonce discard
	.align 2
	.globl	_ZN13tictactoeGame8OnCreateEv
	.def	_ZN13tictactoeGame8OnCreateEv;	.scl	2;	.type	32;	.endef
	.seh_proc	_ZN13tictactoeGame8OnCreateEv
_ZN13tictactoeGame8OnCreateEv:
.LFB6611:
	.loc 9 137 0
	.cfi_startproc
	pushq	%rbp
	.seh_pushreg	%rbp
	.cfi_def_cfa_offset 16
	.cfi_offset 6, -16
	movq	%rsp, %rbp
	.seh_setframe	%rbp, 0
	.cfi_def_cfa_register 6
	subq	$32, %rsp
	.seh_stackalloc	32
	.seh_endprologue
	movq	%rcx, 16(%rbp)
	.loc 9 138 0
	movq	16(%rbp), %rax
	addq	$1968, %rax
	movq	%rax, %rcx
	call	_ZN9gameState4drawEv
	.loc 9 139 0
	movl	$0, %eax
	.loc 9 140 0
	addq	$32, %rsp
	popq	%rbp
	.cfi_restore 6
	.cfi_def_cfa 7, 8
	ret
	.cfi_endproc
.LFE6611:
	.seh_endproc
	.section	.text$_ZN13tictactoeGame7OnFrameEv,"x"
	.linkonce discard
	.align 2
	.globl	_ZN13tictactoeGame7OnFrameEv
	.def	_ZN13tictactoeGame7OnFrameEv;	.scl	2;	.type	32;	.endef
	.seh_proc	_ZN13tictactoeGame7OnFrameEv
_ZN13tictactoeGame7OnFrameEv:
.LFB6612:
	.loc 9 142 0
	.cfi_startproc
	pushq	%rbp
	.seh_pushreg	%rbp
	.cfi_def_cfa_offset 16
	.cfi_offset 6, -16
	movq	%rsp, %rbp
	.seh_setframe	%rbp, 0
	.cfi_def_cfa_register 6
	.seh_endprologue
	movq	%rcx, 16(%rbp)
	.loc 9 143 0
	movl	$1, %eax
	.loc 9 144 0
	popq	%rbp
	.cfi_restore 6
	.cfi_def_cfa 7, 8
	ret
	.cfi_endproc
.LFE6612:
	.seh_endproc
	.section	.text$_ZN13tictactoeGame7OnCloseEv,"x"
	.linkonce discard
	.align 2
	.globl	_ZN13tictactoeGame7OnCloseEv
	.def	_ZN13tictactoeGame7OnCloseEv;	.scl	2;	.type	32;	.endef
	.seh_proc	_ZN13tictactoeGame7OnCloseEv
_ZN13tictactoeGame7OnCloseEv:
.LFB6613:
	.loc 9 146 0
	.cfi_startproc
	pushq	%rbp
	.seh_pushreg	%rbp
	.cfi_def_cfa_offset 16
	.cfi_offset 6, -16
	movq	%rsp, %rbp
	.seh_setframe	%rbp, 0
	.cfi_def_cfa_register 6
	.seh_endprologue
	movq	%rcx, 16(%rbp)
	.loc 9 147 0
	nop
	.loc 9 148 0
	popq	%rbp
	.cfi_restore 6
	.cfi_def_cfa 7, 8
	ret
	.cfi_endproc
.LFE6613:
	.seh_endproc
	.def	__main;	.scl	2;	.type	32;	.endef
	.text
	.globl	main
	.def	main;	.scl	2;	.type	32;	.endef
	.seh_proc	main
main:
.LFB6616:
	.file 10 "tictactoe.cpp"
	.loc 10 6 0
	.cfi_startproc
	pushq	%rbp
	.seh_pushreg	%rbp
	.cfi_def_cfa_offset 16
	.cfi_offset 6, -16
	movq	%rsp, %rbp
	.seh_setframe	%rbp, 0
	.cfi_def_cfa_register 6
	subq	$32, %rsp
	.seh_stackalloc	32
	.seh_endprologue
	.loc 10 6 0
	call	__main
.LVL3:
	.loc 10 7 0
	call	_ZN13tictactoeGame4GameEv
	.loc 10 8 0
	movl	$0, %eax
	addq	$32, %rsp
	popq	%rbp
	.cfi_restore 6
	.cfi_def_cfa 7, 8
	ret
	.cfi_endproc
.LFE6616:
	.seh_endproc
	.globl	_ZTV13tictactoeGame
	.section	.rdata$_ZTV13tictactoeGame,"dr"
	.linkonce same_size
	.align 8
_ZTV13tictactoeGame:
	.quad	0
	.quad	_ZTI13tictactoeGame
	.quad	_ZN13tictactoeGame8OnUpdateEf
	.quad	_ZN13tictactoeGame7OnFrameEv
	.quad	_ZN13tictactoeGame7OnCloseEv
	.quad	_ZN13tictactoeGame8OnCreateEv
	.globl	_ZTI13tictactoeGame
	.section	.rdata$_ZTI13tictactoeGame,"dr"
	.linkonce same_size
	.align 8
_ZTI13tictactoeGame:
	.quad	_ZTVN10__cxxabiv120__si_class_type_infoE+16
	.quad	_ZTS13tictactoeGame
	.quad	_ZTI10gameEngine
	.globl	_ZTS13tictactoeGame
	.section	.rdata$_ZTS13tictactoeGame,"dr"
	.linkonce same_size
	.align 16
_ZTS13tictactoeGame:
	.ascii "13tictactoeGame\0"
	.globl	_ZTI10gameEngine
	.section	.rdata$_ZTI10gameEngine,"dr"
	.linkonce same_size
	.align 8
_ZTI10gameEngine:
	.quad	_ZTVN10__cxxabiv121__vmi_class_type_infoE+16
	.quad	_ZTS10gameEngine
	.long	0
	.long	1
	.quad	_ZTI3box
	.quad	2048
	.globl	_ZTS10gameEngine
	.section	.rdata$_ZTS10gameEngine,"dr"
	.linkonce same_size
	.align 8
_ZTS10gameEngine:
	.ascii "10gameEngine\0"
	.text
	.def	__tcf_0;	.scl	3;	.type	32;	.endef
	.seh_proc	__tcf_0
__tcf_0:
.LFB7163:
	.file 11 "c:/users/ian/downloads/pocketcpp-0.7/pocketcpp/mingw/include/c++/7.2.0/iostream"
	.loc 11 74 0
	.cfi_startproc
	pushq	%rbp
	.seh_pushreg	%rbp
	.cfi_def_cfa_offset 16
	.cfi_offset 6, -16
	movq	%rsp, %rbp
	.seh_setframe	%rbp, 0
	.cfi_def_cfa_register 6
	subq	$32, %rsp
	.seh_stackalloc	32
	.seh_endprologue
	.loc 11 74 0
	leaq	_ZStL8__ioinit(%rip), %rcx
	call	_ZNSt8ios_base4InitD1Ev
	nop
	addq	$32, %rsp
	popq	%rbp
	.cfi_restore 6
	.cfi_def_cfa 7, 8
	ret
	.cfi_endproc
.LFE7163:
	.seh_endproc
	.def	__tcf_1;	.scl	3;	.type	32;	.endef
	.seh_proc	__tcf_1
__tcf_1:
.LFB7164:
	.loc 7 7 0
	.cfi_startproc
	pushq	%rbp
	.seh_pushreg	%rbp
	.cfi_def_cfa_offset 16
	.cfi_offset 6, -16
	movq	%rsp, %rbp
	.seh_setframe	%rbp, 0
	.cfi_def_cfa_register 6
	subq	$32, %rsp
	.seh_stackalloc	32
	.seh_endprologue
	.loc 7 7 0
	leaq	_ZL7xDesign(%rip), %rcx
	call	_ZN3pngD1Ev
	nop
	addq	$32, %rsp
	popq	%rbp
	.cfi_restore 6
	.cfi_def_cfa 7, 8
	ret
	.cfi_endproc
.LFE7164:
	.seh_endproc
	.def	__tcf_2;	.scl	3;	.type	32;	.endef
	.seh_proc	__tcf_2
__tcf_2:
.LFB7165:
	.loc 7 8 0
	.cfi_startproc
	pushq	%rbp
	.seh_pushreg	%rbp
	.cfi_def_cfa_offset 16
	.cfi_offset 6, -16
	movq	%rsp, %rbp
	.seh_setframe	%rbp, 0
	.cfi_def_cfa_register 6
	subq	$32, %rsp
	.seh_stackalloc	32
	.seh_endprologue
	.loc 7 8 0
	leaq	_ZL7oDesign(%rip), %rcx
	call	_ZN3pngD1Ev
	nop
	addq	$32, %rsp
	popq	%rbp
	.cfi_restore 6
	.cfi_def_cfa 7, 8
	ret
	.cfi_endproc
.LFE7165:
	.seh_endproc
	.section .rdata,"dr"
.LC7:
	.ascii "x.png\0"
.LC8:
	.ascii "o.png\0"
	.text
	.def	_Z41__static_initialization_and_destruction_0ii;	.scl	3;	.type	32;	.endef
	.seh_proc	_Z41__static_initialization_and_destruction_0ii
_Z41__static_initialization_and_destruction_0ii:
.LFB7162:
	.loc 10 8 0
	.cfi_startproc
	pushq	%rbp
	.seh_pushreg	%rbp
	.cfi_def_cfa_offset 16
	.cfi_offset 6, -16
	movq	%rsp, %rbp
	.seh_setframe	%rbp, 0
	.cfi_def_cfa_register 6
	subq	$32, %rsp
	.seh_stackalloc	32
	.seh_endprologue
	movl	%ecx, 16(%rbp)
	movl	%edx, 24(%rbp)
	.loc 10 8 0
	cmpl	$1, 16(%rbp)
	jne	.L146
	.loc 10 8 0 is_stmt 0 discriminator 1
	cmpl	$65535, 24(%rbp)
	jne	.L146
	.loc 11 74 0 is_stmt 1
	leaq	_ZStL8__ioinit(%rip), %rcx
	call	_ZNSt8ios_base4InitC1Ev
	leaq	__tcf_0(%rip), %rcx
	call	atexit
	.loc 7 7 0
	leaq	.LC7(%rip), %rdx
	leaq	_ZL7xDesign(%rip), %rcx
	call	_ZN3pngC1EPKc
	leaq	__tcf_1(%rip), %rcx
	call	atexit
	.loc 7 8 0
	leaq	.LC8(%rip), %rdx
	leaq	_ZL7oDesign(%rip), %rcx
	call	_ZN3pngC1EPKc
	leaq	__tcf_2(%rip), %rcx
	call	atexit
.L146:
	.loc 10 8 0
	nop
	addq	$32, %rsp
	popq	%rbp
	.cfi_restore 6
	.cfi_def_cfa 7, 8
	ret
	.cfi_endproc
.LFE7162:
	.seh_endproc
	.globl	_ZTI3box
	.section	.rdata$_ZTI3box,"dr"
	.linkonce same_size
	.align 8
_ZTI3box:
	.quad	_ZTVN10__cxxabiv120__si_class_type_infoE+16
	.quad	_ZTS3box
	.quad	_ZTI7boxsize
	.globl	_ZTS3box
	.section	.rdata$_ZTS3box,"dr"
	.linkonce same_size
_ZTS3box:
	.ascii "3box\0"
	.globl	_ZTI7boxsize
	.section	.rdata$_ZTI7boxsize,"dr"
	.linkonce same_size
	.align 8
_ZTI7boxsize:
	.quad	_ZTVN10__cxxabiv117__class_type_infoE+16
	.quad	_ZTS7boxsize
	.globl	_ZTS7boxsize
	.section	.rdata$_ZTS7boxsize,"dr"
	.linkonce same_size
	.align 8
_ZTS7boxsize:
	.ascii "7boxsize\0"
	.text
	.def	_GLOBAL__sub_I_main;	.scl	3;	.type	32;	.endef
	.seh_proc	_GLOBAL__sub_I_main
_GLOBAL__sub_I_main:
.LFB7166:
	.loc 10 8 0
	.cfi_startproc
	pushq	%rbp
	.seh_pushreg	%rbp
	.cfi_def_cfa_offset 16
	.cfi_offset 6, -16
	movq	%rsp, %rbp
	.seh_setframe	%rbp, 0
	.cfi_def_cfa_register 6
	subq	$32, %rsp
	.seh_stackalloc	32
	.seh_endprologue
	.loc 10 8 0
	movl	$65535, %edx
	movl	$1, %ecx
	call	_Z41__static_initialization_and_destruction_0ii
	nop
	addq	$32, %rsp
	popq	%rbp
	.cfi_restore 6
	.cfi_def_cfa 7, 8
	ret
	.cfi_endproc
.LFE7166:
	.seh_endproc
	.section	.ctors,"w"
	.align 8
	.quad	_GLOBAL__sub_I_main
	.section .rdata,"dr"
	.align 4
.LC0:
	.long	1144995840
	.align 4
.LC1:
	.long	1045220557
	.align 4
.LC2:
	.long	1053609165
	.align 4
.LC3:
	.long	1056964608
	.align 4
.LC4:
	.long	1065353216
	.text
.Letext0:
	.file 12 "<built-in>"
	.file 13 "c:/users/ian/downloads/pocketcpp-0.7/pocketcpp/mingw/include/c++/7.2.0/x86_64-w64-mingw32/bits/c++config.h"
	.file 14 "c:/users/ian/downloads/pocketcpp-0.7/pocketcpp/mingw/include/c++/7.2.0/bits/basic_string.h"
	.file 15 "c:/users/ian/downloads/pocketcpp-0.7/pocketcpp/mingw/include/c++/7.2.0/bits/stringfwd.h"
	.file 16 "c:/users/ian/downloads/pocketcpp-0.7/pocketcpp/mingw/include/c++/7.2.0/cmath"
	.file 17 "c:/users/ian/downloads/pocketcpp-0.7/pocketcpp/mingw/include/c++/7.2.0/bits/cpp_type_traits.h"
	.file 18 "c:/users/ian/downloads/pocketcpp-0.7/pocketcpp/mingw/include/c++/7.2.0/type_traits"
	.file 19 "c:/users/ian/downloads/pocketcpp-0.7/pocketcpp/mingw/include/c++/7.2.0/bits/stl_pair.h"
	.file 20 "c:/users/ian/downloads/pocketcpp-0.7/pocketcpp/mingw/include/c++/7.2.0/debug/debug.h"
	.file 21 "c:/users/ian/downloads/pocketcpp-0.7/pocketcpp/mingw/include/c++/7.2.0/cwchar"
	.file 22 "c:/users/ian/downloads/pocketcpp-0.7/pocketcpp/mingw/include/c++/7.2.0/bits/char_traits.h"
	.file 23 "c:/users/ian/downloads/pocketcpp-0.7/pocketcpp/mingw/include/c++/7.2.0/cstdint"
	.file 24 "c:/users/ian/downloads/pocketcpp-0.7/pocketcpp/mingw/include/c++/7.2.0/bits/exception_ptr.h"
	.file 25 "c:/users/ian/downloads/pocketcpp-0.7/pocketcpp/mingw/include/c++/7.2.0/new"
	.file 26 "c:/users/ian/downloads/pocketcpp-0.7/pocketcpp/mingw/include/c++/7.2.0/bits/allocator.h"
	.file 27 "c:/users/ian/downloads/pocketcpp-0.7/pocketcpp/mingw/include/c++/7.2.0/clocale"
	.file 28 "c:/users/ian/downloads/pocketcpp-0.7/pocketcpp/mingw/include/c++/7.2.0/cstdlib"
	.file 29 "c:/users/ian/downloads/pocketcpp-0.7/pocketcpp/mingw/include/c++/7.2.0/cstdio"
	.file 30 "c:/users/ian/downloads/pocketcpp-0.7/pocketcpp/mingw/include/c++/7.2.0/bits/alloc_traits.h"
	.file 31 "c:/users/ian/downloads/pocketcpp-0.7/pocketcpp/mingw/include/c++/7.2.0/initializer_list"
	.file 32 "c:/users/ian/downloads/pocketcpp-0.7/pocketcpp/mingw/include/c++/7.2.0/system_error"
	.file 33 "c:/users/ian/downloads/pocketcpp-0.7/pocketcpp/mingw/include/c++/7.2.0/bits/ios_base.h"
	.file 34 "c:/users/ian/downloads/pocketcpp-0.7/pocketcpp/mingw/include/c++/7.2.0/cwctype"
	.file 35 "c:/users/ian/downloads/pocketcpp-0.7/pocketcpp/mingw/include/c++/7.2.0/iosfwd"
	.file 36 "c:/users/ian/downloads/pocketcpp-0.7/pocketcpp/mingw/include/c++/7.2.0/bits/stl_vector.h"
	.file 37 "c:/users/ian/downloads/pocketcpp-0.7/pocketcpp/mingw/include/c++/7.2.0/bits/vector.tcc"
	.file 38 "c:/users/ian/downloads/pocketcpp-0.7/pocketcpp/mingw/include/c++/7.2.0/bits/stl_iterator_base_types.h"
	.file 39 "c:/users/ian/downloads/pocketcpp-0.7/pocketcpp/mingw/include/c++/7.2.0/bits/predefined_ops.h"
	.file 40 "c:/users/ian/downloads/pocketcpp-0.7/pocketcpp/mingw/include/c++/7.2.0/ext/new_allocator.h"
	.file 41 "c:/users/ian/downloads/pocketcpp-0.7/pocketcpp/mingw/include/c++/7.2.0/ext/numeric_traits.h"
	.file 42 "c:/users/ian/downloads/pocketcpp-0.7/pocketcpp/mingw/include/c++/7.2.0/ext/alloc_traits.h"
	.file 43 "c:/users/ian/downloads/pocketcpp-0.7/pocketcpp/mingw/include/c++/7.2.0/bits/stl_iterator.h"
	.file 44 "c:/users/ian/downloads/pocketcpp-0.7/pocketcpp/mingw/x86_64-w64-mingw32/include/crtdefs.h"
	.file 45 "c:/users/ian/downloads/pocketcpp-0.7/pocketcpp/mingw/x86_64-w64-mingw32/include/locale.h"
	.file 46 "c:/users/ian/downloads/pocketcpp-0.7/pocketcpp/mingw/x86_64-w64-mingw32/include/math.h"
	.file 47 "c:/users/ian/downloads/pocketcpp-0.7/pocketcpp/mingw/x86_64-w64-mingw32/include/stdlib.h"
	.file 48 "c:/users/ian/downloads/pocketcpp-0.7/pocketcpp/mingw/x86_64-w64-mingw32/include/malloc.h"
	.file 49 "c:/users/ian/downloads/pocketcpp-0.7/pocketcpp/mingw/x86_64-w64-mingw32/include/wchar.h"
	.file 50 "c:/users/ian/downloads/pocketcpp-0.7/pocketcpp/mingw/x86_64-w64-mingw32/include/swprintf.inl"
	.file 51 "c:/users/ian/downloads/pocketcpp-0.7/pocketcpp/mingw/x86_64-w64-mingw32/include/stdint.h"
	.file 52 "c:/users/ian/downloads/pocketcpp-0.7/pocketcpp/mingw/x86_64-w64-mingw32/include/ctype.h"
	.file 53 "c:/users/ian/downloads/pocketcpp-0.7/pocketcpp/mingw/include/c++/7.2.0/x86_64-w64-mingw32/bits/gthr-default.h"
	.file 54 "c:/users/ian/downloads/pocketcpp-0.7/pocketcpp/mingw/include/c++/7.2.0/x86_64-w64-mingw32/bits/atomic_word.h"
	.file 55 "c:/users/ian/downloads/pocketcpp-0.7/pocketcpp/mingw/x86_64-w64-mingw32/include/excpt.h"
	.file 56 "c:/users/ian/downloads/pocketcpp-0.7/pocketcpp/mingw/x86_64-w64-mingw32/include/minwindef.h"
	.file 57 "c:/users/ian/downloads/pocketcpp-0.7/pocketcpp/mingw/x86_64-w64-mingw32/include/winnt.h"
	.file 58 "c:/users/ian/downloads/pocketcpp-0.7/pocketcpp/mingw/x86_64-w64-mingw32/include/guiddef.h"
	.file 59 "c:/users/ian/downloads/pocketcpp-0.7/pocketcpp/mingw/x86_64-w64-mingw32/include/wincon.h"
	.file 60 "c:/users/ian/downloads/pocketcpp-0.7/pocketcpp/mingw/x86_64-w64-mingw32/include/rpcdce.h"
	.file 61 "c:/users/ian/downloads/pocketcpp-0.7/pocketcpp/mingw/include/c++/7.2.0/stdlib.h"
	.file 62 "c:/users/ian/downloads/pocketcpp-0.7/pocketcpp/mingw/x86_64-w64-mingw32/include/wtypesbase.h"
	.file 63 "c:/users/ian/downloads/pocketcpp-0.7/pocketcpp/mingw/x86_64-w64-mingw32/include/unknwnbase.h"
	.file 64 "c:/users/ian/downloads/pocketcpp-0.7/pocketcpp/mingw/x86_64-w64-mingw32/include/objidlbase.h"
	.file 65 "c:/users/ian/downloads/pocketcpp-0.7/pocketcpp/mingw/x86_64-w64-mingw32/include/cguid.h"
	.file 66 "c:/users/ian/downloads/pocketcpp-0.7/pocketcpp/mingw/x86_64-w64-mingw32/include/wtypes.h"
	.file 67 "c:/users/ian/downloads/pocketcpp-0.7/pocketcpp/mingw/x86_64-w64-mingw32/include/objidl.h"
	.file 68 "c:/users/ian/downloads/pocketcpp-0.7/pocketcpp/mingw/x86_64-w64-mingw32/include/oleidl.h"
	.file 69 "c:/users/ian/downloads/pocketcpp-0.7/pocketcpp/mingw/x86_64-w64-mingw32/include/servprov.h"
	.file 70 "c:/users/ian/downloads/pocketcpp-0.7/pocketcpp/mingw/x86_64-w64-mingw32/include/oaidl.h"
	.file 71 "c:/users/ian/downloads/pocketcpp-0.7/pocketcpp/mingw/x86_64-w64-mingw32/include/msxml.h"
	.file 72 "c:/users/ian/downloads/pocketcpp-0.7/pocketcpp/mingw/x86_64-w64-mingw32/include/urlmon.h"
	.file 73 "c:/users/ian/downloads/pocketcpp-0.7/pocketcpp/mingw/x86_64-w64-mingw32/include/propidl.h"
	.file 74 "c:/users/ian/downloads/pocketcpp-0.7/pocketcpp/mingw/x86_64-w64-mingw32/include/oleauto.h"
	.file 75 "c:/users/ian/downloads/pocketcpp-0.7/pocketcpp/mingw/x86_64-w64-mingw32/include/winioctl.h"
	.file 76 "c:/users/ian/downloads/pocketcpp-0.7/pocketcpp/mingw/x86_64-w64-mingw32/include/winsmcrd.h"
	.file 77 "c:/users/ian/downloads/pocketcpp-0.7/pocketcpp/mingw/x86_64-w64-mingw32/include/winscard.h"
	.file 78 "c:/users/ian/downloads/pocketcpp-0.7/pocketcpp/mingw/x86_64-w64-mingw32/include/commdlg.h"
	.file 79 "c:/users/ian/downloads/pocketcpp-0.7/pocketcpp/mingw/x86_64-w64-mingw32/include/wctype.h"
	.file 80 "lodepng.h"
	.file 81 "png.h"
	.file 82 "c:/users/ian/downloads/pocketcpp-0.7/pocketcpp/mingw/x86_64-w64-mingw32/include/processenv.h"
	.data
	.align 8
.LDFCM0:
	.quad	__gxx_personality_seh0
	.ident	"GCC: (GNU) 7.2.0"
	.def	__mingw_vprintf;	.scl	2;	.type	32;	.endef
	.def	_ZN3png9getSampleEiiP7boxsize;	.scl	2;	.type	32;	.endef
	.def	_ZN10gameEngineD2Ev;	.scl	2;	.type	32;	.endef
	.def	_ZN10gameEngine5StartEv;	.scl	2;	.type	32;	.endef
	.def	_Unwind_Resume;	.scl	2;	.type	32;	.endef
	.def	_ZN10gameEngineC2EP3boxPvP10_CHAR_INFOb;	.scl	2;	.type	32;	.endef
	.def	_ZN10gameEngine16ConstructConsoleEiiiiPw;	.scl	2;	.type	32;	.endef
	.def	_ZN10gameEngine23SetTargetTicksPerSecondEi;	.scl	2;	.type	32;	.endef
	.def	_ZN10gameEngine6getKeyEi;	.scl	2;	.type	32;	.endef
	.def	_ZN10gameEngine5CloseEv;	.scl	2;	.type	32;	.endef
	.def	exit;	.scl	2;	.type	32;	.endef
	.def	_ZNSt8ios_base4InitD1Ev;	.scl	2;	.type	32;	.endef
	.def	_ZN3pngD1Ev;	.scl	2;	.type	32;	.endef
	.def	_ZNSt8ios_base4InitC1Ev;	.scl	2;	.type	32;	.endef
	.def	atexit;	.scl	2;	.type	32;	.endef
	.def	_ZN3pngC1EPKc;	.scl	2;	.type	32;	.endef
